
Fall_detection_and_heart_beat_rate_estimation.elf:     file format elf32-avr

Sections:
Idx Name          Size      VMA       LMA       File off  Algn
  0 .text         0000683e  00000000  00000000  00000094  2**1
                  CONTENTS, ALLOC, LOAD, READONLY, CODE
  1 .data         00000382  00800060  0000683e  000068d2  2**0
                  CONTENTS, ALLOC, LOAD, DATA
  2 .bss          00000049  008003e2  008003e2  00006c54  2**0
                  ALLOC
  3 .stab         000054cc  00000000  00000000  00006c54  2**2
                  CONTENTS, READONLY, DEBUGGING
  4 .stabstr      00001d46  00000000  00000000  0000c120  2**0
                  CONTENTS, READONLY, DEBUGGING
  5 .debug_aranges 00000200  00000000  00000000  0000de66  2**0
                  CONTENTS, READONLY, DEBUGGING
  6 .debug_pubnames 00000250  00000000  00000000  0000e066  2**0
                  CONTENTS, READONLY, DEBUGGING
  7 .debug_info   00002b10  00000000  00000000  0000e2b6  2**0
                  CONTENTS, READONLY, DEBUGGING
  8 .debug_abbrev 00001782  00000000  00000000  00010dc6  2**0
                  CONTENTS, READONLY, DEBUGGING
  9 .debug_line   000014b1  00000000  00000000  00012548  2**0
                  CONTENTS, READONLY, DEBUGGING
 10 .debug_frame  00000220  00000000  00000000  000139fc  2**2
                  CONTENTS, READONLY, DEBUGGING
 11 .debug_str    00000317  00000000  00000000  00013c1c  2**0
                  CONTENTS, READONLY, DEBUGGING
 12 .debug_loc    00000a92  00000000  00000000  00013f33  2**0
                  CONTENTS, READONLY, DEBUGGING
 13 .debug_ranges 00000050  00000000  00000000  000149c5  2**0
                  CONTENTS, READONLY, DEBUGGING

Disassembly of section .text:

00000000 <__vectors>:
       0:	0c 94 a7 00 	jmp	0x14e	; 0x14e <__ctors_end>
       4:	0c 94 f3 29 	jmp	0x53e6	; 0x53e6 <__vector_1>
       8:	0c 94 c4 00 	jmp	0x188	; 0x188 <__bad_interrupt>
       c:	0c 94 c4 00 	jmp	0x188	; 0x188 <__bad_interrupt>
      10:	0c 94 c4 00 	jmp	0x188	; 0x188 <__bad_interrupt>
      14:	0c 94 c4 00 	jmp	0x188	; 0x188 <__bad_interrupt>
      18:	0c 94 c4 00 	jmp	0x188	; 0x188 <__bad_interrupt>
      1c:	0c 94 2e 2a 	jmp	0x545c	; 0x545c <__vector_7>
      20:	0c 94 c4 00 	jmp	0x188	; 0x188 <__bad_interrupt>
      24:	0c 94 c4 00 	jmp	0x188	; 0x188 <__bad_interrupt>
      28:	0c 94 c4 00 	jmp	0x188	; 0x188 <__bad_interrupt>
      2c:	0c 94 c4 00 	jmp	0x188	; 0x188 <__bad_interrupt>
      30:	0c 94 c4 00 	jmp	0x188	; 0x188 <__bad_interrupt>
      34:	0c 94 c4 00 	jmp	0x188	; 0x188 <__bad_interrupt>
      38:	0c 94 c4 00 	jmp	0x188	; 0x188 <__bad_interrupt>
      3c:	0c 94 c4 00 	jmp	0x188	; 0x188 <__bad_interrupt>
      40:	0c 94 15 19 	jmp	0x322a	; 0x322a <__vector_16>
      44:	0c 94 c4 00 	jmp	0x188	; 0x188 <__bad_interrupt>
      48:	0c 94 c4 00 	jmp	0x188	; 0x188 <__bad_interrupt>
      4c:	0c 94 c4 00 	jmp	0x188	; 0x188 <__bad_interrupt>
      50:	0c 94 c4 00 	jmp	0x188	; 0x188 <__bad_interrupt>
      54:	00 40       	sbci	r16, 0x00	; 0
      56:	7a 10       	cpse	r7, r10
      58:	f3 5a       	subi	r31, 0xA3	; 163
      5a:	00 a0       	ldd	r0, Z+32	; 0x20
      5c:	72 4e       	sbci	r23, 0xE2	; 226
      5e:	18 09       	sbc	r17, r8
      60:	00 10       	cpse	r0, r0
      62:	a5 d4       	rcall	.+2378   	; 0x9ae <__gesf2+0xa>
      64:	e8 00       	.word	0x00e8	; ????
      66:	00 e8       	ldi	r16, 0x80	; 128
      68:	76 48       	sbci	r23, 0x86	; 134
      6a:	17 00       	.word	0x0017	; ????
      6c:	00 e4       	ldi	r16, 0x40	; 64
      6e:	0b 54       	subi	r16, 0x4B	; 75
      70:	02 00       	.word	0x0002	; ????
      72:	00 ca       	rjmp	.-3072   	; 0xfffff474 <__eeprom_end+0xff7ef474>
      74:	9a 3b       	cpi	r25, 0xBA	; 186
      76:	00 00       	nop
      78:	00 e1       	ldi	r16, 0x10	; 16
      7a:	f5 05       	cpc	r31, r5
      7c:	00 00       	nop
      7e:	80 96       	adiw	r24, 0x20	; 32
      80:	98 00       	.word	0x0098	; ????
      82:	00 00       	nop
      84:	40 42       	sbci	r20, 0x20	; 32
      86:	0f 00       	.word	0x000f	; ????
      88:	00 00       	nop
      8a:	a0 86       	std	Z+8, r10	; 0x08
      8c:	01 00       	.word	0x0001	; ????
      8e:	00 00       	nop
      90:	10 27       	eor	r17, r16
      92:	00 00       	nop
      94:	00 00       	nop
      96:	e8 03       	fmulsu	r22, r16
      98:	00 00       	nop
      9a:	00 00       	nop
      9c:	64 00       	.word	0x0064	; ????
      9e:	00 00       	nop
      a0:	00 00       	nop
      a2:	0a 00       	.word	0x000a	; ????
      a4:	00 00       	nop
      a6:	00 00       	nop
      a8:	01 00       	.word	0x0001	; ????
      aa:	00 00       	nop
      ac:	00 00       	nop
      ae:	2c 76       	andi	r18, 0x6C	; 108
      b0:	d8 88       	ldd	r13, Y+16	; 0x10
      b2:	dc 67       	ori	r29, 0x7C	; 124
      b4:	4f 08       	sbc	r4, r15
      b6:	23 df       	rcall	.-442    	; 0xfffffefe <__eeprom_end+0xff7efefe>
      b8:	c1 df       	rcall	.-126    	; 0x3c <__CCP__+0x8>
      ba:	ae 59       	subi	r26, 0x9E	; 158
      bc:	e1 b1       	in	r30, 0x01	; 1
      be:	b7 96       	adiw	r30, 0x27	; 39
      c0:	e5 e3       	ldi	r30, 0x35	; 53
      c2:	e4 53       	subi	r30, 0x34	; 52
      c4:	c6 3a       	cpi	r28, 0xA6	; 166
      c6:	e6 51       	subi	r30, 0x16	; 22
      c8:	99 76       	andi	r25, 0x69	; 105
      ca:	96 e8       	ldi	r25, 0x86	; 134
      cc:	e6 c2       	rjmp	.+1484   	; 0x69a <__mulsf3+0x162>
      ce:	84 26       	eor	r8, r20
      d0:	eb 89       	ldd	r30, Y+19	; 0x13
      d2:	8c 9b       	sbis	0x11, 4	; 17
      d4:	62 ed       	ldi	r22, 0xD2	; 210
      d6:	40 7c       	andi	r20, 0xC0	; 192
      d8:	6f fc       	.word	0xfc6f	; ????
      da:	ef bc       	out	0x2f, r14	; 47
      dc:	9c 9f       	mul	r25, r28
      de:	40 f2       	brcs	.-112    	; 0x70 <__SREG__+0x31>
      e0:	ba a5       	ldd	r27, Y+42	; 0x2a
      e2:	6f a5       	ldd	r22, Y+47	; 0x2f
      e4:	f4 90       	lpm	r15, Z+
      e6:	05 5a       	subi	r16, 0xA5	; 165
      e8:	2a f7       	brpl	.-54     	; 0xb4 <__SREG__+0x75>
      ea:	5c 93       	st	X, r21
      ec:	6b 6c       	ori	r22, 0xCB	; 203
      ee:	f9 67       	ori	r31, 0x79	; 121
      f0:	6d c1       	rjmp	.+730    	; 0x3cc <_fpadd_parts+0x1e8>
      f2:	1b fc       	.word	0xfc1b	; ????
      f4:	e0 e4       	ldi	r30, 0x40	; 64
      f6:	0d 47       	sbci	r16, 0x7D	; 125
      f8:	fe f5       	brtc	.+126    	; 0x178 <.do_clear_bss_loop>
      fa:	20 e6       	ldi	r18, 0x60	; 96
      fc:	b5 00       	.word	0x00b5	; ????
      fe:	d0 ed       	ldi	r29, 0xD0	; 208
     100:	90 2e       	mov	r9, r16
     102:	03 00       	.word	0x0003	; ????
     104:	94 35       	cpi	r25, 0x54	; 84
     106:	77 05       	cpc	r23, r7
     108:	00 80       	ld	r0, Z
     10a:	84 1e       	adc	r8, r20
     10c:	08 00       	.word	0x0008	; ????
     10e:	00 20       	and	r0, r0
     110:	4e 0a       	sbc	r4, r30
     112:	00 00       	nop
     114:	00 c8       	rjmp	.-4096   	; 0xfffff116 <__eeprom_end+0xff7ef116>
     116:	0c 33       	cpi	r16, 0x3C	; 60
     118:	33 33       	cpi	r19, 0x33	; 51
     11a:	33 0f       	add	r19, r19
     11c:	98 6e       	ori	r25, 0xE8	; 232
     11e:	12 83       	std	Z+2, r17	; 0x02
     120:	11 41       	sbci	r17, 0x11	; 17
     122:	ef 8d       	ldd	r30, Y+31	; 0x1f
     124:	21 14       	cp	r2, r1
     126:	89 3b       	cpi	r24, 0xB9	; 185
     128:	e6 55       	subi	r30, 0x56	; 86
     12a:	16 cf       	rjmp	.-468    	; 0xffffff58 <__eeprom_end+0xff7eff58>
     12c:	fe e6       	ldi	r31, 0x6E	; 110
     12e:	db 18       	sub	r13, r11
     130:	d1 84       	ldd	r13, Z+9	; 0x09
     132:	4b 38       	cpi	r20, 0x8B	; 139
     134:	1b f7       	brvc	.-58     	; 0xfc <__SREG__+0xbd>
     136:	7c 1d       	adc	r23, r12
     138:	90 1d       	adc	r25, r0
     13a:	a4 bb       	out	0x14, r26	; 20
     13c:	e4 24       	eor	r14, r4
     13e:	20 32       	cpi	r18, 0x20	; 32
     140:	84 72       	andi	r24, 0x24	; 36
     142:	5e 22       	and	r5, r30
     144:	81 00       	.word	0x0081	; ????
     146:	c9 f1       	breq	.+114    	; 0x1ba <__fixunssfsi+0x2e>
     148:	24 ec       	ldi	r18, 0xC4	; 196
     14a:	a1 e5       	ldi	r26, 0x51	; 81
     14c:	3d 27       	eor	r19, r29

0000014e <__ctors_end>:
     14e:	11 24       	eor	r1, r1
     150:	1f be       	out	0x3f, r1	; 63
     152:	cf e5       	ldi	r28, 0x5F	; 95
     154:	d8 e0       	ldi	r29, 0x08	; 8
     156:	de bf       	out	0x3e, r29	; 62
     158:	cd bf       	out	0x3d, r28	; 61

0000015a <__do_copy_data>:
     15a:	13 e0       	ldi	r17, 0x03	; 3
     15c:	a0 e6       	ldi	r26, 0x60	; 96
     15e:	b0 e0       	ldi	r27, 0x00	; 0
     160:	ee e3       	ldi	r30, 0x3E	; 62
     162:	f8 e6       	ldi	r31, 0x68	; 104
     164:	02 c0       	rjmp	.+4      	; 0x16a <.do_copy_data_start>

00000166 <.do_copy_data_loop>:
     166:	05 90       	lpm	r0, Z+
     168:	0d 92       	st	X+, r0

0000016a <.do_copy_data_start>:
     16a:	a2 3e       	cpi	r26, 0xE2	; 226
     16c:	b1 07       	cpc	r27, r17
     16e:	d9 f7       	brne	.-10     	; 0x166 <.do_copy_data_loop>

00000170 <__do_clear_bss>:
     170:	14 e0       	ldi	r17, 0x04	; 4
     172:	a2 ee       	ldi	r26, 0xE2	; 226
     174:	b3 e0       	ldi	r27, 0x03	; 3
     176:	01 c0       	rjmp	.+2      	; 0x17a <.do_clear_bss_start>

00000178 <.do_clear_bss_loop>:
     178:	1d 92       	st	X+, r1

0000017a <.do_clear_bss_start>:
     17a:	ab 32       	cpi	r26, 0x2B	; 43
     17c:	b1 07       	cpc	r27, r17
     17e:	e1 f7       	brne	.-8      	; 0x178 <.do_clear_bss_loop>
     180:	0e 94 59 2a 	call	0x54b2	; 0x54b2 <main>
     184:	0c 94 1d 34 	jmp	0x683a	; 0x683a <_exit>

00000188 <__bad_interrupt>:
     188:	0c 94 00 00 	jmp	0	; 0x0 <__vectors>

0000018c <__fixunssfsi>:
     18c:	ef 92       	push	r14
     18e:	ff 92       	push	r15
     190:	0f 93       	push	r16
     192:	1f 93       	push	r17
     194:	7b 01       	movw	r14, r22
     196:	8c 01       	movw	r16, r24
     198:	20 e0       	ldi	r18, 0x00	; 0
     19a:	30 e0       	ldi	r19, 0x00	; 0
     19c:	40 e0       	ldi	r20, 0x00	; 0
     19e:	5f e4       	ldi	r21, 0x4F	; 79
     1a0:	0e 94 d2 04 	call	0x9a4	; 0x9a4 <__gesf2>
     1a4:	88 23       	and	r24, r24
     1a6:	8c f0       	brlt	.+34     	; 0x1ca <__fixunssfsi+0x3e>
     1a8:	c8 01       	movw	r24, r16
     1aa:	b7 01       	movw	r22, r14
     1ac:	20 e0       	ldi	r18, 0x00	; 0
     1ae:	30 e0       	ldi	r19, 0x00	; 0
     1b0:	40 e0       	ldi	r20, 0x00	; 0
     1b2:	5f e4       	ldi	r21, 0x4F	; 79
     1b4:	0e 94 3e 02 	call	0x47c	; 0x47c <__subsf3>
     1b8:	0e 94 90 05 	call	0xb20	; 0xb20 <__fixsfsi>
     1bc:	9b 01       	movw	r18, r22
     1be:	ac 01       	movw	r20, r24
     1c0:	20 50       	subi	r18, 0x00	; 0
     1c2:	30 40       	sbci	r19, 0x00	; 0
     1c4:	40 40       	sbci	r20, 0x00	; 0
     1c6:	50 48       	sbci	r21, 0x80	; 128
     1c8:	06 c0       	rjmp	.+12     	; 0x1d6 <__fixunssfsi+0x4a>
     1ca:	c8 01       	movw	r24, r16
     1cc:	b7 01       	movw	r22, r14
     1ce:	0e 94 90 05 	call	0xb20	; 0xb20 <__fixsfsi>
     1d2:	9b 01       	movw	r18, r22
     1d4:	ac 01       	movw	r20, r24
     1d6:	b9 01       	movw	r22, r18
     1d8:	ca 01       	movw	r24, r20
     1da:	1f 91       	pop	r17
     1dc:	0f 91       	pop	r16
     1de:	ff 90       	pop	r15
     1e0:	ef 90       	pop	r14
     1e2:	08 95       	ret

000001e4 <_fpadd_parts>:
     1e4:	a0 e0       	ldi	r26, 0x00	; 0
     1e6:	b0 e0       	ldi	r27, 0x00	; 0
     1e8:	e8 ef       	ldi	r30, 0xF8	; 248
     1ea:	f0 e0       	ldi	r31, 0x00	; 0
     1ec:	0c 94 3d 2e 	jmp	0x5c7a	; 0x5c7a <__prologue_saves__>
     1f0:	dc 01       	movw	r26, r24
     1f2:	2b 01       	movw	r4, r22
     1f4:	fa 01       	movw	r30, r20
     1f6:	9c 91       	ld	r25, X
     1f8:	92 30       	cpi	r25, 0x02	; 2
     1fa:	08 f4       	brcc	.+2      	; 0x1fe <_fpadd_parts+0x1a>
     1fc:	39 c1       	rjmp	.+626    	; 0x470 <_fpadd_parts+0x28c>
     1fe:	eb 01       	movw	r28, r22
     200:	88 81       	ld	r24, Y
     202:	82 30       	cpi	r24, 0x02	; 2
     204:	08 f4       	brcc	.+2      	; 0x208 <_fpadd_parts+0x24>
     206:	33 c1       	rjmp	.+614    	; 0x46e <_fpadd_parts+0x28a>
     208:	94 30       	cpi	r25, 0x04	; 4
     20a:	69 f4       	brne	.+26     	; 0x226 <_fpadd_parts+0x42>
     20c:	84 30       	cpi	r24, 0x04	; 4
     20e:	09 f0       	breq	.+2      	; 0x212 <_fpadd_parts+0x2e>
     210:	2f c1       	rjmp	.+606    	; 0x470 <_fpadd_parts+0x28c>
     212:	11 96       	adiw	r26, 0x01	; 1
     214:	9c 91       	ld	r25, X
     216:	11 97       	sbiw	r26, 0x01	; 1
     218:	89 81       	ldd	r24, Y+1	; 0x01
     21a:	98 17       	cp	r25, r24
     21c:	09 f4       	brne	.+2      	; 0x220 <_fpadd_parts+0x3c>
     21e:	28 c1       	rjmp	.+592    	; 0x470 <_fpadd_parts+0x28c>
     220:	aa ed       	ldi	r26, 0xDA	; 218
     222:	b2 e0       	ldi	r27, 0x02	; 2
     224:	25 c1       	rjmp	.+586    	; 0x470 <_fpadd_parts+0x28c>
     226:	84 30       	cpi	r24, 0x04	; 4
     228:	09 f4       	brne	.+2      	; 0x22c <_fpadd_parts+0x48>
     22a:	21 c1       	rjmp	.+578    	; 0x46e <_fpadd_parts+0x28a>
     22c:	82 30       	cpi	r24, 0x02	; 2
     22e:	a9 f4       	brne	.+42     	; 0x25a <_fpadd_parts+0x76>
     230:	92 30       	cpi	r25, 0x02	; 2
     232:	09 f0       	breq	.+2      	; 0x236 <_fpadd_parts+0x52>
     234:	1d c1       	rjmp	.+570    	; 0x470 <_fpadd_parts+0x28c>
     236:	9a 01       	movw	r18, r20
     238:	ad 01       	movw	r20, r26
     23a:	88 e0       	ldi	r24, 0x08	; 8
     23c:	ea 01       	movw	r28, r20
     23e:	09 90       	ld	r0, Y+
     240:	ae 01       	movw	r20, r28
     242:	e9 01       	movw	r28, r18
     244:	09 92       	st	Y+, r0
     246:	9e 01       	movw	r18, r28
     248:	81 50       	subi	r24, 0x01	; 1
     24a:	c1 f7       	brne	.-16     	; 0x23c <_fpadd_parts+0x58>
     24c:	e2 01       	movw	r28, r4
     24e:	89 81       	ldd	r24, Y+1	; 0x01
     250:	11 96       	adiw	r26, 0x01	; 1
     252:	9c 91       	ld	r25, X
     254:	89 23       	and	r24, r25
     256:	81 83       	std	Z+1, r24	; 0x01
     258:	08 c1       	rjmp	.+528    	; 0x46a <_fpadd_parts+0x286>
     25a:	92 30       	cpi	r25, 0x02	; 2
     25c:	09 f4       	brne	.+2      	; 0x260 <_fpadd_parts+0x7c>
     25e:	07 c1       	rjmp	.+526    	; 0x46e <_fpadd_parts+0x28a>
     260:	12 96       	adiw	r26, 0x02	; 2
     262:	2d 90       	ld	r2, X+
     264:	3c 90       	ld	r3, X
     266:	13 97       	sbiw	r26, 0x03	; 3
     268:	eb 01       	movw	r28, r22
     26a:	8a 81       	ldd	r24, Y+2	; 0x02
     26c:	9b 81       	ldd	r25, Y+3	; 0x03
     26e:	14 96       	adiw	r26, 0x04	; 4
     270:	ad 90       	ld	r10, X+
     272:	bd 90       	ld	r11, X+
     274:	cd 90       	ld	r12, X+
     276:	dc 90       	ld	r13, X
     278:	17 97       	sbiw	r26, 0x07	; 7
     27a:	ec 80       	ldd	r14, Y+4	; 0x04
     27c:	fd 80       	ldd	r15, Y+5	; 0x05
     27e:	0e 81       	ldd	r16, Y+6	; 0x06
     280:	1f 81       	ldd	r17, Y+7	; 0x07
     282:	91 01       	movw	r18, r2
     284:	28 1b       	sub	r18, r24
     286:	39 0b       	sbc	r19, r25
     288:	b9 01       	movw	r22, r18
     28a:	37 ff       	sbrs	r19, 7
     28c:	04 c0       	rjmp	.+8      	; 0x296 <_fpadd_parts+0xb2>
     28e:	66 27       	eor	r22, r22
     290:	77 27       	eor	r23, r23
     292:	62 1b       	sub	r22, r18
     294:	73 0b       	sbc	r23, r19
     296:	60 32       	cpi	r22, 0x20	; 32
     298:	71 05       	cpc	r23, r1
     29a:	0c f0       	brlt	.+2      	; 0x29e <_fpadd_parts+0xba>
     29c:	61 c0       	rjmp	.+194    	; 0x360 <_fpadd_parts+0x17c>
     29e:	12 16       	cp	r1, r18
     2a0:	13 06       	cpc	r1, r19
     2a2:	6c f5       	brge	.+90     	; 0x2fe <_fpadd_parts+0x11a>
     2a4:	37 01       	movw	r6, r14
     2a6:	48 01       	movw	r8, r16
     2a8:	06 2e       	mov	r0, r22
     2aa:	04 c0       	rjmp	.+8      	; 0x2b4 <_fpadd_parts+0xd0>
     2ac:	96 94       	lsr	r9
     2ae:	87 94       	ror	r8
     2b0:	77 94       	ror	r7
     2b2:	67 94       	ror	r6
     2b4:	0a 94       	dec	r0
     2b6:	d2 f7       	brpl	.-12     	; 0x2ac <_fpadd_parts+0xc8>
     2b8:	21 e0       	ldi	r18, 0x01	; 1
     2ba:	30 e0       	ldi	r19, 0x00	; 0
     2bc:	40 e0       	ldi	r20, 0x00	; 0
     2be:	50 e0       	ldi	r21, 0x00	; 0
     2c0:	04 c0       	rjmp	.+8      	; 0x2ca <_fpadd_parts+0xe6>
     2c2:	22 0f       	add	r18, r18
     2c4:	33 1f       	adc	r19, r19
     2c6:	44 1f       	adc	r20, r20
     2c8:	55 1f       	adc	r21, r21
     2ca:	6a 95       	dec	r22
     2cc:	d2 f7       	brpl	.-12     	; 0x2c2 <_fpadd_parts+0xde>
     2ce:	21 50       	subi	r18, 0x01	; 1
     2d0:	30 40       	sbci	r19, 0x00	; 0
     2d2:	40 40       	sbci	r20, 0x00	; 0
     2d4:	50 40       	sbci	r21, 0x00	; 0
     2d6:	2e 21       	and	r18, r14
     2d8:	3f 21       	and	r19, r15
     2da:	40 23       	and	r20, r16
     2dc:	51 23       	and	r21, r17
     2de:	21 15       	cp	r18, r1
     2e0:	31 05       	cpc	r19, r1
     2e2:	41 05       	cpc	r20, r1
     2e4:	51 05       	cpc	r21, r1
     2e6:	21 f0       	breq	.+8      	; 0x2f0 <_fpadd_parts+0x10c>
     2e8:	21 e0       	ldi	r18, 0x01	; 1
     2ea:	30 e0       	ldi	r19, 0x00	; 0
     2ec:	40 e0       	ldi	r20, 0x00	; 0
     2ee:	50 e0       	ldi	r21, 0x00	; 0
     2f0:	79 01       	movw	r14, r18
     2f2:	8a 01       	movw	r16, r20
     2f4:	e6 28       	or	r14, r6
     2f6:	f7 28       	or	r15, r7
     2f8:	08 29       	or	r16, r8
     2fa:	19 29       	or	r17, r9
     2fc:	3c c0       	rjmp	.+120    	; 0x376 <_fpadd_parts+0x192>
     2fe:	23 2b       	or	r18, r19
     300:	d1 f1       	breq	.+116    	; 0x376 <_fpadd_parts+0x192>
     302:	26 0e       	add	r2, r22
     304:	37 1e       	adc	r3, r23
     306:	35 01       	movw	r6, r10
     308:	46 01       	movw	r8, r12
     30a:	06 2e       	mov	r0, r22
     30c:	04 c0       	rjmp	.+8      	; 0x316 <_fpadd_parts+0x132>
     30e:	96 94       	lsr	r9
     310:	87 94       	ror	r8
     312:	77 94       	ror	r7
     314:	67 94       	ror	r6
     316:	0a 94       	dec	r0
     318:	d2 f7       	brpl	.-12     	; 0x30e <_fpadd_parts+0x12a>
     31a:	21 e0       	ldi	r18, 0x01	; 1
     31c:	30 e0       	ldi	r19, 0x00	; 0
     31e:	40 e0       	ldi	r20, 0x00	; 0
     320:	50 e0       	ldi	r21, 0x00	; 0
     322:	04 c0       	rjmp	.+8      	; 0x32c <_fpadd_parts+0x148>
     324:	22 0f       	add	r18, r18
     326:	33 1f       	adc	r19, r19
     328:	44 1f       	adc	r20, r20
     32a:	55 1f       	adc	r21, r21
     32c:	6a 95       	dec	r22
     32e:	d2 f7       	brpl	.-12     	; 0x324 <_fpadd_parts+0x140>
     330:	21 50       	subi	r18, 0x01	; 1
     332:	30 40       	sbci	r19, 0x00	; 0
     334:	40 40       	sbci	r20, 0x00	; 0
     336:	50 40       	sbci	r21, 0x00	; 0
     338:	2a 21       	and	r18, r10
     33a:	3b 21       	and	r19, r11
     33c:	4c 21       	and	r20, r12
     33e:	5d 21       	and	r21, r13
     340:	21 15       	cp	r18, r1
     342:	31 05       	cpc	r19, r1
     344:	41 05       	cpc	r20, r1
     346:	51 05       	cpc	r21, r1
     348:	21 f0       	breq	.+8      	; 0x352 <_fpadd_parts+0x16e>
     34a:	21 e0       	ldi	r18, 0x01	; 1
     34c:	30 e0       	ldi	r19, 0x00	; 0
     34e:	40 e0       	ldi	r20, 0x00	; 0
     350:	50 e0       	ldi	r21, 0x00	; 0
     352:	59 01       	movw	r10, r18
     354:	6a 01       	movw	r12, r20
     356:	a6 28       	or	r10, r6
     358:	b7 28       	or	r11, r7
     35a:	c8 28       	or	r12, r8
     35c:	d9 28       	or	r13, r9
     35e:	0b c0       	rjmp	.+22     	; 0x376 <_fpadd_parts+0x192>
     360:	82 15       	cp	r24, r2
     362:	93 05       	cpc	r25, r3
     364:	2c f0       	brlt	.+10     	; 0x370 <_fpadd_parts+0x18c>
     366:	1c 01       	movw	r2, r24
     368:	aa 24       	eor	r10, r10
     36a:	bb 24       	eor	r11, r11
     36c:	65 01       	movw	r12, r10
     36e:	03 c0       	rjmp	.+6      	; 0x376 <_fpadd_parts+0x192>
     370:	ee 24       	eor	r14, r14
     372:	ff 24       	eor	r15, r15
     374:	87 01       	movw	r16, r14
     376:	11 96       	adiw	r26, 0x01	; 1
     378:	9c 91       	ld	r25, X
     37a:	d2 01       	movw	r26, r4
     37c:	11 96       	adiw	r26, 0x01	; 1
     37e:	8c 91       	ld	r24, X
     380:	98 17       	cp	r25, r24
     382:	09 f4       	brne	.+2      	; 0x386 <_fpadd_parts+0x1a2>
     384:	45 c0       	rjmp	.+138    	; 0x410 <_fpadd_parts+0x22c>
     386:	99 23       	and	r25, r25
     388:	39 f0       	breq	.+14     	; 0x398 <_fpadd_parts+0x1b4>
     38a:	a8 01       	movw	r20, r16
     38c:	97 01       	movw	r18, r14
     38e:	2a 19       	sub	r18, r10
     390:	3b 09       	sbc	r19, r11
     392:	4c 09       	sbc	r20, r12
     394:	5d 09       	sbc	r21, r13
     396:	06 c0       	rjmp	.+12     	; 0x3a4 <_fpadd_parts+0x1c0>
     398:	a6 01       	movw	r20, r12
     39a:	95 01       	movw	r18, r10
     39c:	2e 19       	sub	r18, r14
     39e:	3f 09       	sbc	r19, r15
     3a0:	40 0b       	sbc	r20, r16
     3a2:	51 0b       	sbc	r21, r17
     3a4:	57 fd       	sbrc	r21, 7
     3a6:	08 c0       	rjmp	.+16     	; 0x3b8 <_fpadd_parts+0x1d4>
     3a8:	11 82       	std	Z+1, r1	; 0x01
     3aa:	33 82       	std	Z+3, r3	; 0x03
     3ac:	22 82       	std	Z+2, r2	; 0x02
     3ae:	24 83       	std	Z+4, r18	; 0x04
     3b0:	35 83       	std	Z+5, r19	; 0x05
     3b2:	46 83       	std	Z+6, r20	; 0x06
     3b4:	57 83       	std	Z+7, r21	; 0x07
     3b6:	1d c0       	rjmp	.+58     	; 0x3f2 <_fpadd_parts+0x20e>
     3b8:	81 e0       	ldi	r24, 0x01	; 1
     3ba:	81 83       	std	Z+1, r24	; 0x01
     3bc:	33 82       	std	Z+3, r3	; 0x03
     3be:	22 82       	std	Z+2, r2	; 0x02
     3c0:	88 27       	eor	r24, r24
     3c2:	99 27       	eor	r25, r25
     3c4:	dc 01       	movw	r26, r24
     3c6:	82 1b       	sub	r24, r18
     3c8:	93 0b       	sbc	r25, r19
     3ca:	a4 0b       	sbc	r26, r20
     3cc:	b5 0b       	sbc	r27, r21
     3ce:	84 83       	std	Z+4, r24	; 0x04
     3d0:	95 83       	std	Z+5, r25	; 0x05
     3d2:	a6 83       	std	Z+6, r26	; 0x06
     3d4:	b7 83       	std	Z+7, r27	; 0x07
     3d6:	0d c0       	rjmp	.+26     	; 0x3f2 <_fpadd_parts+0x20e>
     3d8:	22 0f       	add	r18, r18
     3da:	33 1f       	adc	r19, r19
     3dc:	44 1f       	adc	r20, r20
     3de:	55 1f       	adc	r21, r21
     3e0:	24 83       	std	Z+4, r18	; 0x04
     3e2:	35 83       	std	Z+5, r19	; 0x05
     3e4:	46 83       	std	Z+6, r20	; 0x06
     3e6:	57 83       	std	Z+7, r21	; 0x07
     3e8:	82 81       	ldd	r24, Z+2	; 0x02
     3ea:	93 81       	ldd	r25, Z+3	; 0x03
     3ec:	01 97       	sbiw	r24, 0x01	; 1
     3ee:	93 83       	std	Z+3, r25	; 0x03
     3f0:	82 83       	std	Z+2, r24	; 0x02
     3f2:	24 81       	ldd	r18, Z+4	; 0x04
     3f4:	35 81       	ldd	r19, Z+5	; 0x05
     3f6:	46 81       	ldd	r20, Z+6	; 0x06
     3f8:	57 81       	ldd	r21, Z+7	; 0x07
     3fa:	da 01       	movw	r26, r20
     3fc:	c9 01       	movw	r24, r18
     3fe:	01 97       	sbiw	r24, 0x01	; 1
     400:	a1 09       	sbc	r26, r1
     402:	b1 09       	sbc	r27, r1
     404:	8f 5f       	subi	r24, 0xFF	; 255
     406:	9f 4f       	sbci	r25, 0xFF	; 255
     408:	af 4f       	sbci	r26, 0xFF	; 255
     40a:	bf 43       	sbci	r27, 0x3F	; 63
     40c:	28 f3       	brcs	.-54     	; 0x3d8 <_fpadd_parts+0x1f4>
     40e:	0b c0       	rjmp	.+22     	; 0x426 <_fpadd_parts+0x242>
     410:	91 83       	std	Z+1, r25	; 0x01
     412:	33 82       	std	Z+3, r3	; 0x03
     414:	22 82       	std	Z+2, r2	; 0x02
     416:	ea 0c       	add	r14, r10
     418:	fb 1c       	adc	r15, r11
     41a:	0c 1d       	adc	r16, r12
     41c:	1d 1d       	adc	r17, r13
     41e:	e4 82       	std	Z+4, r14	; 0x04
     420:	f5 82       	std	Z+5, r15	; 0x05
     422:	06 83       	std	Z+6, r16	; 0x06
     424:	17 83       	std	Z+7, r17	; 0x07
     426:	83 e0       	ldi	r24, 0x03	; 3
     428:	80 83       	st	Z, r24
     42a:	24 81       	ldd	r18, Z+4	; 0x04
     42c:	35 81       	ldd	r19, Z+5	; 0x05
     42e:	46 81       	ldd	r20, Z+6	; 0x06
     430:	57 81       	ldd	r21, Z+7	; 0x07
     432:	57 ff       	sbrs	r21, 7
     434:	1a c0       	rjmp	.+52     	; 0x46a <_fpadd_parts+0x286>
     436:	c9 01       	movw	r24, r18
     438:	aa 27       	eor	r26, r26
     43a:	97 fd       	sbrc	r25, 7
     43c:	a0 95       	com	r26
     43e:	ba 2f       	mov	r27, r26
     440:	81 70       	andi	r24, 0x01	; 1
     442:	90 70       	andi	r25, 0x00	; 0
     444:	a0 70       	andi	r26, 0x00	; 0
     446:	b0 70       	andi	r27, 0x00	; 0
     448:	56 95       	lsr	r21
     44a:	47 95       	ror	r20
     44c:	37 95       	ror	r19
     44e:	27 95       	ror	r18
     450:	82 2b       	or	r24, r18
     452:	93 2b       	or	r25, r19
     454:	a4 2b       	or	r26, r20
     456:	b5 2b       	or	r27, r21
     458:	84 83       	std	Z+4, r24	; 0x04
     45a:	95 83       	std	Z+5, r25	; 0x05
     45c:	a6 83       	std	Z+6, r26	; 0x06
     45e:	b7 83       	std	Z+7, r27	; 0x07
     460:	82 81       	ldd	r24, Z+2	; 0x02
     462:	93 81       	ldd	r25, Z+3	; 0x03
     464:	01 96       	adiw	r24, 0x01	; 1
     466:	93 83       	std	Z+3, r25	; 0x03
     468:	82 83       	std	Z+2, r24	; 0x02
     46a:	df 01       	movw	r26, r30
     46c:	01 c0       	rjmp	.+2      	; 0x470 <_fpadd_parts+0x28c>
     46e:	d2 01       	movw	r26, r4
     470:	cd 01       	movw	r24, r26
     472:	cd b7       	in	r28, 0x3d	; 61
     474:	de b7       	in	r29, 0x3e	; 62
     476:	e2 e1       	ldi	r30, 0x12	; 18
     478:	0c 94 59 2e 	jmp	0x5cb2	; 0x5cb2 <__epilogue_restores__>

0000047c <__subsf3>:
     47c:	a0 e2       	ldi	r26, 0x20	; 32
     47e:	b0 e0       	ldi	r27, 0x00	; 0
     480:	e4 e4       	ldi	r30, 0x44	; 68
     482:	f2 e0       	ldi	r31, 0x02	; 2
     484:	0c 94 49 2e 	jmp	0x5c92	; 0x5c92 <__prologue_saves__+0x18>
     488:	69 83       	std	Y+1, r22	; 0x01
     48a:	7a 83       	std	Y+2, r23	; 0x02
     48c:	8b 83       	std	Y+3, r24	; 0x03
     48e:	9c 83       	std	Y+4, r25	; 0x04
     490:	2d 83       	std	Y+5, r18	; 0x05
     492:	3e 83       	std	Y+6, r19	; 0x06
     494:	4f 83       	std	Y+7, r20	; 0x07
     496:	58 87       	std	Y+8, r21	; 0x08
     498:	e9 e0       	ldi	r30, 0x09	; 9
     49a:	ee 2e       	mov	r14, r30
     49c:	f1 2c       	mov	r15, r1
     49e:	ec 0e       	add	r14, r28
     4a0:	fd 1e       	adc	r15, r29
     4a2:	ce 01       	movw	r24, r28
     4a4:	01 96       	adiw	r24, 0x01	; 1
     4a6:	b7 01       	movw	r22, r14
     4a8:	0e 94 81 07 	call	0xf02	; 0xf02 <__unpack_f>
     4ac:	8e 01       	movw	r16, r28
     4ae:	0f 5e       	subi	r16, 0xEF	; 239
     4b0:	1f 4f       	sbci	r17, 0xFF	; 255
     4b2:	ce 01       	movw	r24, r28
     4b4:	05 96       	adiw	r24, 0x05	; 5
     4b6:	b8 01       	movw	r22, r16
     4b8:	0e 94 81 07 	call	0xf02	; 0xf02 <__unpack_f>
     4bc:	8a 89       	ldd	r24, Y+18	; 0x12
     4be:	91 e0       	ldi	r25, 0x01	; 1
     4c0:	89 27       	eor	r24, r25
     4c2:	8a 8b       	std	Y+18, r24	; 0x12
     4c4:	c7 01       	movw	r24, r14
     4c6:	b8 01       	movw	r22, r16
     4c8:	ae 01       	movw	r20, r28
     4ca:	47 5e       	subi	r20, 0xE7	; 231
     4cc:	5f 4f       	sbci	r21, 0xFF	; 255
     4ce:	0e 94 f2 00 	call	0x1e4	; 0x1e4 <_fpadd_parts>
     4d2:	0e 94 ac 06 	call	0xd58	; 0xd58 <__pack_f>
     4d6:	a0 96       	adiw	r28, 0x20	; 32
     4d8:	e6 e0       	ldi	r30, 0x06	; 6
     4da:	0c 94 65 2e 	jmp	0x5cca	; 0x5cca <__epilogue_restores__+0x18>

000004de <__addsf3>:
     4de:	a0 e2       	ldi	r26, 0x20	; 32
     4e0:	b0 e0       	ldi	r27, 0x00	; 0
     4e2:	e5 e7       	ldi	r30, 0x75	; 117
     4e4:	f2 e0       	ldi	r31, 0x02	; 2
     4e6:	0c 94 49 2e 	jmp	0x5c92	; 0x5c92 <__prologue_saves__+0x18>
     4ea:	69 83       	std	Y+1, r22	; 0x01
     4ec:	7a 83       	std	Y+2, r23	; 0x02
     4ee:	8b 83       	std	Y+3, r24	; 0x03
     4f0:	9c 83       	std	Y+4, r25	; 0x04
     4f2:	2d 83       	std	Y+5, r18	; 0x05
     4f4:	3e 83       	std	Y+6, r19	; 0x06
     4f6:	4f 83       	std	Y+7, r20	; 0x07
     4f8:	58 87       	std	Y+8, r21	; 0x08
     4fa:	f9 e0       	ldi	r31, 0x09	; 9
     4fc:	ef 2e       	mov	r14, r31
     4fe:	f1 2c       	mov	r15, r1
     500:	ec 0e       	add	r14, r28
     502:	fd 1e       	adc	r15, r29
     504:	ce 01       	movw	r24, r28
     506:	01 96       	adiw	r24, 0x01	; 1
     508:	b7 01       	movw	r22, r14
     50a:	0e 94 81 07 	call	0xf02	; 0xf02 <__unpack_f>
     50e:	8e 01       	movw	r16, r28
     510:	0f 5e       	subi	r16, 0xEF	; 239
     512:	1f 4f       	sbci	r17, 0xFF	; 255
     514:	ce 01       	movw	r24, r28
     516:	05 96       	adiw	r24, 0x05	; 5
     518:	b8 01       	movw	r22, r16
     51a:	0e 94 81 07 	call	0xf02	; 0xf02 <__unpack_f>
     51e:	c7 01       	movw	r24, r14
     520:	b8 01       	movw	r22, r16
     522:	ae 01       	movw	r20, r28
     524:	47 5e       	subi	r20, 0xE7	; 231
     526:	5f 4f       	sbci	r21, 0xFF	; 255
     528:	0e 94 f2 00 	call	0x1e4	; 0x1e4 <_fpadd_parts>
     52c:	0e 94 ac 06 	call	0xd58	; 0xd58 <__pack_f>
     530:	a0 96       	adiw	r28, 0x20	; 32
     532:	e6 e0       	ldi	r30, 0x06	; 6
     534:	0c 94 65 2e 	jmp	0x5cca	; 0x5cca <__epilogue_restores__+0x18>

00000538 <__mulsf3>:
     538:	a0 e2       	ldi	r26, 0x20	; 32
     53a:	b0 e0       	ldi	r27, 0x00	; 0
     53c:	e2 ea       	ldi	r30, 0xA2	; 162
     53e:	f2 e0       	ldi	r31, 0x02	; 2
     540:	0c 94 3d 2e 	jmp	0x5c7a	; 0x5c7a <__prologue_saves__>
     544:	69 83       	std	Y+1, r22	; 0x01
     546:	7a 83       	std	Y+2, r23	; 0x02
     548:	8b 83       	std	Y+3, r24	; 0x03
     54a:	9c 83       	std	Y+4, r25	; 0x04
     54c:	2d 83       	std	Y+5, r18	; 0x05
     54e:	3e 83       	std	Y+6, r19	; 0x06
     550:	4f 83       	std	Y+7, r20	; 0x07
     552:	58 87       	std	Y+8, r21	; 0x08
     554:	ce 01       	movw	r24, r28
     556:	01 96       	adiw	r24, 0x01	; 1
     558:	be 01       	movw	r22, r28
     55a:	67 5f       	subi	r22, 0xF7	; 247
     55c:	7f 4f       	sbci	r23, 0xFF	; 255
     55e:	0e 94 81 07 	call	0xf02	; 0xf02 <__unpack_f>
     562:	ce 01       	movw	r24, r28
     564:	05 96       	adiw	r24, 0x05	; 5
     566:	be 01       	movw	r22, r28
     568:	6f 5e       	subi	r22, 0xEF	; 239
     56a:	7f 4f       	sbci	r23, 0xFF	; 255
     56c:	0e 94 81 07 	call	0xf02	; 0xf02 <__unpack_f>
     570:	99 85       	ldd	r25, Y+9	; 0x09
     572:	92 30       	cpi	r25, 0x02	; 2
     574:	88 f0       	brcs	.+34     	; 0x598 <__mulsf3+0x60>
     576:	89 89       	ldd	r24, Y+17	; 0x11
     578:	82 30       	cpi	r24, 0x02	; 2
     57a:	c8 f0       	brcs	.+50     	; 0x5ae <__mulsf3+0x76>
     57c:	94 30       	cpi	r25, 0x04	; 4
     57e:	19 f4       	brne	.+6      	; 0x586 <__mulsf3+0x4e>
     580:	82 30       	cpi	r24, 0x02	; 2
     582:	51 f4       	brne	.+20     	; 0x598 <__mulsf3+0x60>
     584:	04 c0       	rjmp	.+8      	; 0x58e <__mulsf3+0x56>
     586:	84 30       	cpi	r24, 0x04	; 4
     588:	29 f4       	brne	.+10     	; 0x594 <__mulsf3+0x5c>
     58a:	92 30       	cpi	r25, 0x02	; 2
     58c:	81 f4       	brne	.+32     	; 0x5ae <__mulsf3+0x76>
     58e:	8a ed       	ldi	r24, 0xDA	; 218
     590:	92 e0       	ldi	r25, 0x02	; 2
     592:	c6 c0       	rjmp	.+396    	; 0x720 <__mulsf3+0x1e8>
     594:	92 30       	cpi	r25, 0x02	; 2
     596:	49 f4       	brne	.+18     	; 0x5aa <__mulsf3+0x72>
     598:	20 e0       	ldi	r18, 0x00	; 0
     59a:	9a 85       	ldd	r25, Y+10	; 0x0a
     59c:	8a 89       	ldd	r24, Y+18	; 0x12
     59e:	98 13       	cpse	r25, r24
     5a0:	21 e0       	ldi	r18, 0x01	; 1
     5a2:	2a 87       	std	Y+10, r18	; 0x0a
     5a4:	ce 01       	movw	r24, r28
     5a6:	09 96       	adiw	r24, 0x09	; 9
     5a8:	bb c0       	rjmp	.+374    	; 0x720 <__mulsf3+0x1e8>
     5aa:	82 30       	cpi	r24, 0x02	; 2
     5ac:	49 f4       	brne	.+18     	; 0x5c0 <__mulsf3+0x88>
     5ae:	20 e0       	ldi	r18, 0x00	; 0
     5b0:	9a 85       	ldd	r25, Y+10	; 0x0a
     5b2:	8a 89       	ldd	r24, Y+18	; 0x12
     5b4:	98 13       	cpse	r25, r24
     5b6:	21 e0       	ldi	r18, 0x01	; 1
     5b8:	2a 8b       	std	Y+18, r18	; 0x12
     5ba:	ce 01       	movw	r24, r28
     5bc:	41 96       	adiw	r24, 0x11	; 17
     5be:	b0 c0       	rjmp	.+352    	; 0x720 <__mulsf3+0x1e8>
     5c0:	2d 84       	ldd	r2, Y+13	; 0x0d
     5c2:	3e 84       	ldd	r3, Y+14	; 0x0e
     5c4:	4f 84       	ldd	r4, Y+15	; 0x0f
     5c6:	58 88       	ldd	r5, Y+16	; 0x10
     5c8:	6d 88       	ldd	r6, Y+21	; 0x15
     5ca:	7e 88       	ldd	r7, Y+22	; 0x16
     5cc:	8f 88       	ldd	r8, Y+23	; 0x17
     5ce:	98 8c       	ldd	r9, Y+24	; 0x18
     5d0:	ee 24       	eor	r14, r14
     5d2:	ff 24       	eor	r15, r15
     5d4:	87 01       	movw	r16, r14
     5d6:	aa 24       	eor	r10, r10
     5d8:	bb 24       	eor	r11, r11
     5da:	65 01       	movw	r12, r10
     5dc:	40 e0       	ldi	r20, 0x00	; 0
     5de:	50 e0       	ldi	r21, 0x00	; 0
     5e0:	60 e0       	ldi	r22, 0x00	; 0
     5e2:	70 e0       	ldi	r23, 0x00	; 0
     5e4:	e0 e0       	ldi	r30, 0x00	; 0
     5e6:	f0 e0       	ldi	r31, 0x00	; 0
     5e8:	c1 01       	movw	r24, r2
     5ea:	81 70       	andi	r24, 0x01	; 1
     5ec:	90 70       	andi	r25, 0x00	; 0
     5ee:	89 2b       	or	r24, r25
     5f0:	e9 f0       	breq	.+58     	; 0x62c <__mulsf3+0xf4>
     5f2:	e6 0c       	add	r14, r6
     5f4:	f7 1c       	adc	r15, r7
     5f6:	08 1d       	adc	r16, r8
     5f8:	19 1d       	adc	r17, r9
     5fa:	9a 01       	movw	r18, r20
     5fc:	ab 01       	movw	r20, r22
     5fe:	2a 0d       	add	r18, r10
     600:	3b 1d       	adc	r19, r11
     602:	4c 1d       	adc	r20, r12
     604:	5d 1d       	adc	r21, r13
     606:	80 e0       	ldi	r24, 0x00	; 0
     608:	90 e0       	ldi	r25, 0x00	; 0
     60a:	a0 e0       	ldi	r26, 0x00	; 0
     60c:	b0 e0       	ldi	r27, 0x00	; 0
     60e:	e6 14       	cp	r14, r6
     610:	f7 04       	cpc	r15, r7
     612:	08 05       	cpc	r16, r8
     614:	19 05       	cpc	r17, r9
     616:	20 f4       	brcc	.+8      	; 0x620 <__mulsf3+0xe8>
     618:	81 e0       	ldi	r24, 0x01	; 1
     61a:	90 e0       	ldi	r25, 0x00	; 0
     61c:	a0 e0       	ldi	r26, 0x00	; 0
     61e:	b0 e0       	ldi	r27, 0x00	; 0
     620:	ba 01       	movw	r22, r20
     622:	a9 01       	movw	r20, r18
     624:	48 0f       	add	r20, r24
     626:	59 1f       	adc	r21, r25
     628:	6a 1f       	adc	r22, r26
     62a:	7b 1f       	adc	r23, r27
     62c:	aa 0c       	add	r10, r10
     62e:	bb 1c       	adc	r11, r11
     630:	cc 1c       	adc	r12, r12
     632:	dd 1c       	adc	r13, r13
     634:	97 fe       	sbrs	r9, 7
     636:	08 c0       	rjmp	.+16     	; 0x648 <__mulsf3+0x110>
     638:	81 e0       	ldi	r24, 0x01	; 1
     63a:	90 e0       	ldi	r25, 0x00	; 0
     63c:	a0 e0       	ldi	r26, 0x00	; 0
     63e:	b0 e0       	ldi	r27, 0x00	; 0
     640:	a8 2a       	or	r10, r24
     642:	b9 2a       	or	r11, r25
     644:	ca 2a       	or	r12, r26
     646:	db 2a       	or	r13, r27
     648:	31 96       	adiw	r30, 0x01	; 1
     64a:	e0 32       	cpi	r30, 0x20	; 32
     64c:	f1 05       	cpc	r31, r1
     64e:	49 f0       	breq	.+18     	; 0x662 <__mulsf3+0x12a>
     650:	66 0c       	add	r6, r6
     652:	77 1c       	adc	r7, r7
     654:	88 1c       	adc	r8, r8
     656:	99 1c       	adc	r9, r9
     658:	56 94       	lsr	r5
     65a:	47 94       	ror	r4
     65c:	37 94       	ror	r3
     65e:	27 94       	ror	r2
     660:	c3 cf       	rjmp	.-122    	; 0x5e8 <__mulsf3+0xb0>
     662:	fa 85       	ldd	r31, Y+10	; 0x0a
     664:	ea 89       	ldd	r30, Y+18	; 0x12
     666:	2b 89       	ldd	r18, Y+19	; 0x13
     668:	3c 89       	ldd	r19, Y+20	; 0x14
     66a:	8b 85       	ldd	r24, Y+11	; 0x0b
     66c:	9c 85       	ldd	r25, Y+12	; 0x0c
     66e:	28 0f       	add	r18, r24
     670:	39 1f       	adc	r19, r25
     672:	2e 5f       	subi	r18, 0xFE	; 254
     674:	3f 4f       	sbci	r19, 0xFF	; 255
     676:	17 c0       	rjmp	.+46     	; 0x6a6 <__mulsf3+0x16e>
     678:	ca 01       	movw	r24, r20
     67a:	81 70       	andi	r24, 0x01	; 1
     67c:	90 70       	andi	r25, 0x00	; 0
     67e:	89 2b       	or	r24, r25
     680:	61 f0       	breq	.+24     	; 0x69a <__mulsf3+0x162>
     682:	16 95       	lsr	r17
     684:	07 95       	ror	r16
     686:	f7 94       	ror	r15
     688:	e7 94       	ror	r14
     68a:	80 e0       	ldi	r24, 0x00	; 0
     68c:	90 e0       	ldi	r25, 0x00	; 0
     68e:	a0 e0       	ldi	r26, 0x00	; 0
     690:	b0 e8       	ldi	r27, 0x80	; 128
     692:	e8 2a       	or	r14, r24
     694:	f9 2a       	or	r15, r25
     696:	0a 2b       	or	r16, r26
     698:	1b 2b       	or	r17, r27
     69a:	76 95       	lsr	r23
     69c:	67 95       	ror	r22
     69e:	57 95       	ror	r21
     6a0:	47 95       	ror	r20
     6a2:	2f 5f       	subi	r18, 0xFF	; 255
     6a4:	3f 4f       	sbci	r19, 0xFF	; 255
     6a6:	77 fd       	sbrc	r23, 7
     6a8:	e7 cf       	rjmp	.-50     	; 0x678 <__mulsf3+0x140>
     6aa:	0c c0       	rjmp	.+24     	; 0x6c4 <__mulsf3+0x18c>
     6ac:	44 0f       	add	r20, r20
     6ae:	55 1f       	adc	r21, r21
     6b0:	66 1f       	adc	r22, r22
     6b2:	77 1f       	adc	r23, r23
     6b4:	17 fd       	sbrc	r17, 7
     6b6:	41 60       	ori	r20, 0x01	; 1
     6b8:	ee 0c       	add	r14, r14
     6ba:	ff 1c       	adc	r15, r15
     6bc:	00 1f       	adc	r16, r16
     6be:	11 1f       	adc	r17, r17
     6c0:	21 50       	subi	r18, 0x01	; 1
     6c2:	30 40       	sbci	r19, 0x00	; 0
     6c4:	40 30       	cpi	r20, 0x00	; 0
     6c6:	90 e0       	ldi	r25, 0x00	; 0
     6c8:	59 07       	cpc	r21, r25
     6ca:	90 e0       	ldi	r25, 0x00	; 0
     6cc:	69 07       	cpc	r22, r25
     6ce:	90 e4       	ldi	r25, 0x40	; 64
     6d0:	79 07       	cpc	r23, r25
     6d2:	60 f3       	brcs	.-40     	; 0x6ac <__mulsf3+0x174>
     6d4:	2b 8f       	std	Y+27, r18	; 0x1b
     6d6:	3c 8f       	std	Y+28, r19	; 0x1c
     6d8:	db 01       	movw	r26, r22
     6da:	ca 01       	movw	r24, r20
     6dc:	8f 77       	andi	r24, 0x7F	; 127
     6de:	90 70       	andi	r25, 0x00	; 0
     6e0:	a0 70       	andi	r26, 0x00	; 0
     6e2:	b0 70       	andi	r27, 0x00	; 0
     6e4:	80 34       	cpi	r24, 0x40	; 64
     6e6:	91 05       	cpc	r25, r1
     6e8:	a1 05       	cpc	r26, r1
     6ea:	b1 05       	cpc	r27, r1
     6ec:	61 f4       	brne	.+24     	; 0x706 <__mulsf3+0x1ce>
     6ee:	47 fd       	sbrc	r20, 7
     6f0:	0a c0       	rjmp	.+20     	; 0x706 <__mulsf3+0x1ce>
     6f2:	e1 14       	cp	r14, r1
     6f4:	f1 04       	cpc	r15, r1
     6f6:	01 05       	cpc	r16, r1
     6f8:	11 05       	cpc	r17, r1
     6fa:	29 f0       	breq	.+10     	; 0x706 <__mulsf3+0x1ce>
     6fc:	40 5c       	subi	r20, 0xC0	; 192
     6fe:	5f 4f       	sbci	r21, 0xFF	; 255
     700:	6f 4f       	sbci	r22, 0xFF	; 255
     702:	7f 4f       	sbci	r23, 0xFF	; 255
     704:	40 78       	andi	r20, 0x80	; 128
     706:	1a 8e       	std	Y+26, r1	; 0x1a
     708:	fe 17       	cp	r31, r30
     70a:	11 f0       	breq	.+4      	; 0x710 <__mulsf3+0x1d8>
     70c:	81 e0       	ldi	r24, 0x01	; 1
     70e:	8a 8f       	std	Y+26, r24	; 0x1a
     710:	4d 8f       	std	Y+29, r20	; 0x1d
     712:	5e 8f       	std	Y+30, r21	; 0x1e
     714:	6f 8f       	std	Y+31, r22	; 0x1f
     716:	78 a3       	std	Y+32, r23	; 0x20
     718:	83 e0       	ldi	r24, 0x03	; 3
     71a:	89 8f       	std	Y+25, r24	; 0x19
     71c:	ce 01       	movw	r24, r28
     71e:	49 96       	adiw	r24, 0x19	; 25
     720:	0e 94 ac 06 	call	0xd58	; 0xd58 <__pack_f>
     724:	a0 96       	adiw	r28, 0x20	; 32
     726:	e2 e1       	ldi	r30, 0x12	; 18
     728:	0c 94 59 2e 	jmp	0x5cb2	; 0x5cb2 <__epilogue_restores__>

0000072c <__divsf3>:
     72c:	a8 e1       	ldi	r26, 0x18	; 24
     72e:	b0 e0       	ldi	r27, 0x00	; 0
     730:	ec e9       	ldi	r30, 0x9C	; 156
     732:	f3 e0       	ldi	r31, 0x03	; 3
     734:	0c 94 45 2e 	jmp	0x5c8a	; 0x5c8a <__prologue_saves__+0x10>
     738:	69 83       	std	Y+1, r22	; 0x01
     73a:	7a 83       	std	Y+2, r23	; 0x02
     73c:	8b 83       	std	Y+3, r24	; 0x03
     73e:	9c 83       	std	Y+4, r25	; 0x04
     740:	2d 83       	std	Y+5, r18	; 0x05
     742:	3e 83       	std	Y+6, r19	; 0x06
     744:	4f 83       	std	Y+7, r20	; 0x07
     746:	58 87       	std	Y+8, r21	; 0x08
     748:	b9 e0       	ldi	r27, 0x09	; 9
     74a:	eb 2e       	mov	r14, r27
     74c:	f1 2c       	mov	r15, r1
     74e:	ec 0e       	add	r14, r28
     750:	fd 1e       	adc	r15, r29
     752:	ce 01       	movw	r24, r28
     754:	01 96       	adiw	r24, 0x01	; 1
     756:	b7 01       	movw	r22, r14
     758:	0e 94 81 07 	call	0xf02	; 0xf02 <__unpack_f>
     75c:	8e 01       	movw	r16, r28
     75e:	0f 5e       	subi	r16, 0xEF	; 239
     760:	1f 4f       	sbci	r17, 0xFF	; 255
     762:	ce 01       	movw	r24, r28
     764:	05 96       	adiw	r24, 0x05	; 5
     766:	b8 01       	movw	r22, r16
     768:	0e 94 81 07 	call	0xf02	; 0xf02 <__unpack_f>
     76c:	29 85       	ldd	r18, Y+9	; 0x09
     76e:	22 30       	cpi	r18, 0x02	; 2
     770:	08 f4       	brcc	.+2      	; 0x774 <__divsf3+0x48>
     772:	7e c0       	rjmp	.+252    	; 0x870 <__stack+0x11>
     774:	39 89       	ldd	r19, Y+17	; 0x11
     776:	32 30       	cpi	r19, 0x02	; 2
     778:	10 f4       	brcc	.+4      	; 0x77e <__divsf3+0x52>
     77a:	b8 01       	movw	r22, r16
     77c:	7c c0       	rjmp	.+248    	; 0x876 <__stack+0x17>
     77e:	8a 85       	ldd	r24, Y+10	; 0x0a
     780:	9a 89       	ldd	r25, Y+18	; 0x12
     782:	89 27       	eor	r24, r25
     784:	8a 87       	std	Y+10, r24	; 0x0a
     786:	24 30       	cpi	r18, 0x04	; 4
     788:	11 f0       	breq	.+4      	; 0x78e <__divsf3+0x62>
     78a:	22 30       	cpi	r18, 0x02	; 2
     78c:	31 f4       	brne	.+12     	; 0x79a <__divsf3+0x6e>
     78e:	23 17       	cp	r18, r19
     790:	09 f0       	breq	.+2      	; 0x794 <__divsf3+0x68>
     792:	6e c0       	rjmp	.+220    	; 0x870 <__stack+0x11>
     794:	6a ed       	ldi	r22, 0xDA	; 218
     796:	72 e0       	ldi	r23, 0x02	; 2
     798:	6e c0       	rjmp	.+220    	; 0x876 <__stack+0x17>
     79a:	34 30       	cpi	r19, 0x04	; 4
     79c:	39 f4       	brne	.+14     	; 0x7ac <__divsf3+0x80>
     79e:	1d 86       	std	Y+13, r1	; 0x0d
     7a0:	1e 86       	std	Y+14, r1	; 0x0e
     7a2:	1f 86       	std	Y+15, r1	; 0x0f
     7a4:	18 8a       	std	Y+16, r1	; 0x10
     7a6:	1c 86       	std	Y+12, r1	; 0x0c
     7a8:	1b 86       	std	Y+11, r1	; 0x0b
     7aa:	04 c0       	rjmp	.+8      	; 0x7b4 <__divsf3+0x88>
     7ac:	32 30       	cpi	r19, 0x02	; 2
     7ae:	21 f4       	brne	.+8      	; 0x7b8 <__divsf3+0x8c>
     7b0:	84 e0       	ldi	r24, 0x04	; 4
     7b2:	89 87       	std	Y+9, r24	; 0x09
     7b4:	b7 01       	movw	r22, r14
     7b6:	5f c0       	rjmp	.+190    	; 0x876 <__stack+0x17>
     7b8:	2b 85       	ldd	r18, Y+11	; 0x0b
     7ba:	3c 85       	ldd	r19, Y+12	; 0x0c
     7bc:	8b 89       	ldd	r24, Y+19	; 0x13
     7be:	9c 89       	ldd	r25, Y+20	; 0x14
     7c0:	28 1b       	sub	r18, r24
     7c2:	39 0b       	sbc	r19, r25
     7c4:	3c 87       	std	Y+12, r19	; 0x0c
     7c6:	2b 87       	std	Y+11, r18	; 0x0b
     7c8:	ed 84       	ldd	r14, Y+13	; 0x0d
     7ca:	fe 84       	ldd	r15, Y+14	; 0x0e
     7cc:	0f 85       	ldd	r16, Y+15	; 0x0f
     7ce:	18 89       	ldd	r17, Y+16	; 0x10
     7d0:	ad 88       	ldd	r10, Y+21	; 0x15
     7d2:	be 88       	ldd	r11, Y+22	; 0x16
     7d4:	cf 88       	ldd	r12, Y+23	; 0x17
     7d6:	d8 8c       	ldd	r13, Y+24	; 0x18
     7d8:	ea 14       	cp	r14, r10
     7da:	fb 04       	cpc	r15, r11
     7dc:	0c 05       	cpc	r16, r12
     7de:	1d 05       	cpc	r17, r13
     7e0:	40 f4       	brcc	.+16     	; 0x7f2 <__divsf3+0xc6>
     7e2:	ee 0c       	add	r14, r14
     7e4:	ff 1c       	adc	r15, r15
     7e6:	00 1f       	adc	r16, r16
     7e8:	11 1f       	adc	r17, r17
     7ea:	21 50       	subi	r18, 0x01	; 1
     7ec:	30 40       	sbci	r19, 0x00	; 0
     7ee:	3c 87       	std	Y+12, r19	; 0x0c
     7f0:	2b 87       	std	Y+11, r18	; 0x0b
     7f2:	20 e0       	ldi	r18, 0x00	; 0
     7f4:	30 e0       	ldi	r19, 0x00	; 0
     7f6:	40 e0       	ldi	r20, 0x00	; 0
     7f8:	50 e0       	ldi	r21, 0x00	; 0
     7fa:	80 e0       	ldi	r24, 0x00	; 0
     7fc:	90 e0       	ldi	r25, 0x00	; 0
     7fe:	a0 e0       	ldi	r26, 0x00	; 0
     800:	b0 e4       	ldi	r27, 0x40	; 64
     802:	60 e0       	ldi	r22, 0x00	; 0
     804:	70 e0       	ldi	r23, 0x00	; 0
     806:	ea 14       	cp	r14, r10
     808:	fb 04       	cpc	r15, r11
     80a:	0c 05       	cpc	r16, r12
     80c:	1d 05       	cpc	r17, r13
     80e:	40 f0       	brcs	.+16     	; 0x820 <__divsf3+0xf4>
     810:	28 2b       	or	r18, r24
     812:	39 2b       	or	r19, r25
     814:	4a 2b       	or	r20, r26
     816:	5b 2b       	or	r21, r27
     818:	ea 18       	sub	r14, r10
     81a:	fb 08       	sbc	r15, r11
     81c:	0c 09       	sbc	r16, r12
     81e:	1d 09       	sbc	r17, r13
     820:	b6 95       	lsr	r27
     822:	a7 95       	ror	r26
     824:	97 95       	ror	r25
     826:	87 95       	ror	r24
     828:	ee 0c       	add	r14, r14
     82a:	ff 1c       	adc	r15, r15
     82c:	00 1f       	adc	r16, r16
     82e:	11 1f       	adc	r17, r17
     830:	6f 5f       	subi	r22, 0xFF	; 255
     832:	7f 4f       	sbci	r23, 0xFF	; 255
     834:	6f 31       	cpi	r22, 0x1F	; 31
     836:	71 05       	cpc	r23, r1
     838:	31 f7       	brne	.-52     	; 0x806 <__divsf3+0xda>
     83a:	da 01       	movw	r26, r20
     83c:	c9 01       	movw	r24, r18
     83e:	8f 77       	andi	r24, 0x7F	; 127
     840:	90 70       	andi	r25, 0x00	; 0
     842:	a0 70       	andi	r26, 0x00	; 0
     844:	b0 70       	andi	r27, 0x00	; 0
     846:	80 34       	cpi	r24, 0x40	; 64
     848:	91 05       	cpc	r25, r1
     84a:	a1 05       	cpc	r26, r1
     84c:	b1 05       	cpc	r27, r1
     84e:	61 f4       	brne	.+24     	; 0x868 <__stack+0x9>
     850:	27 fd       	sbrc	r18, 7
     852:	0a c0       	rjmp	.+20     	; 0x868 <__stack+0x9>
     854:	e1 14       	cp	r14, r1
     856:	f1 04       	cpc	r15, r1
     858:	01 05       	cpc	r16, r1
     85a:	11 05       	cpc	r17, r1
     85c:	29 f0       	breq	.+10     	; 0x868 <__stack+0x9>
     85e:	20 5c       	subi	r18, 0xC0	; 192
     860:	3f 4f       	sbci	r19, 0xFF	; 255
     862:	4f 4f       	sbci	r20, 0xFF	; 255
     864:	5f 4f       	sbci	r21, 0xFF	; 255
     866:	20 78       	andi	r18, 0x80	; 128
     868:	2d 87       	std	Y+13, r18	; 0x0d
     86a:	3e 87       	std	Y+14, r19	; 0x0e
     86c:	4f 87       	std	Y+15, r20	; 0x0f
     86e:	58 8b       	std	Y+16, r21	; 0x10
     870:	be 01       	movw	r22, r28
     872:	67 5f       	subi	r22, 0xF7	; 247
     874:	7f 4f       	sbci	r23, 0xFF	; 255
     876:	cb 01       	movw	r24, r22
     878:	0e 94 ac 06 	call	0xd58	; 0xd58 <__pack_f>
     87c:	68 96       	adiw	r28, 0x18	; 24
     87e:	ea e0       	ldi	r30, 0x0A	; 10
     880:	0c 94 61 2e 	jmp	0x5cc2	; 0x5cc2 <__epilogue_restores__+0x10>

00000884 <__eqsf2>:
     884:	a8 e1       	ldi	r26, 0x18	; 24
     886:	b0 e0       	ldi	r27, 0x00	; 0
     888:	e8 e4       	ldi	r30, 0x48	; 72
     88a:	f4 e0       	ldi	r31, 0x04	; 4
     88c:	0c 94 49 2e 	jmp	0x5c92	; 0x5c92 <__prologue_saves__+0x18>
     890:	69 83       	std	Y+1, r22	; 0x01
     892:	7a 83       	std	Y+2, r23	; 0x02
     894:	8b 83       	std	Y+3, r24	; 0x03
     896:	9c 83       	std	Y+4, r25	; 0x04
     898:	2d 83       	std	Y+5, r18	; 0x05
     89a:	3e 83       	std	Y+6, r19	; 0x06
     89c:	4f 83       	std	Y+7, r20	; 0x07
     89e:	58 87       	std	Y+8, r21	; 0x08
     8a0:	89 e0       	ldi	r24, 0x09	; 9
     8a2:	e8 2e       	mov	r14, r24
     8a4:	f1 2c       	mov	r15, r1
     8a6:	ec 0e       	add	r14, r28
     8a8:	fd 1e       	adc	r15, r29
     8aa:	ce 01       	movw	r24, r28
     8ac:	01 96       	adiw	r24, 0x01	; 1
     8ae:	b7 01       	movw	r22, r14
     8b0:	0e 94 81 07 	call	0xf02	; 0xf02 <__unpack_f>
     8b4:	8e 01       	movw	r16, r28
     8b6:	0f 5e       	subi	r16, 0xEF	; 239
     8b8:	1f 4f       	sbci	r17, 0xFF	; 255
     8ba:	ce 01       	movw	r24, r28
     8bc:	05 96       	adiw	r24, 0x05	; 5
     8be:	b8 01       	movw	r22, r16
     8c0:	0e 94 81 07 	call	0xf02	; 0xf02 <__unpack_f>
     8c4:	89 85       	ldd	r24, Y+9	; 0x09
     8c6:	82 30       	cpi	r24, 0x02	; 2
     8c8:	40 f0       	brcs	.+16     	; 0x8da <__eqsf2+0x56>
     8ca:	89 89       	ldd	r24, Y+17	; 0x11
     8cc:	82 30       	cpi	r24, 0x02	; 2
     8ce:	28 f0       	brcs	.+10     	; 0x8da <__eqsf2+0x56>
     8d0:	c7 01       	movw	r24, r14
     8d2:	b8 01       	movw	r22, r16
     8d4:	0e 94 f9 07 	call	0xff2	; 0xff2 <__fpcmp_parts_f>
     8d8:	01 c0       	rjmp	.+2      	; 0x8dc <__eqsf2+0x58>
     8da:	81 e0       	ldi	r24, 0x01	; 1
     8dc:	68 96       	adiw	r28, 0x18	; 24
     8de:	e6 e0       	ldi	r30, 0x06	; 6
     8e0:	0c 94 65 2e 	jmp	0x5cca	; 0x5cca <__epilogue_restores__+0x18>

000008e4 <__nesf2>:
     8e4:	a8 e1       	ldi	r26, 0x18	; 24
     8e6:	b0 e0       	ldi	r27, 0x00	; 0
     8e8:	e8 e7       	ldi	r30, 0x78	; 120
     8ea:	f4 e0       	ldi	r31, 0x04	; 4
     8ec:	0c 94 49 2e 	jmp	0x5c92	; 0x5c92 <__prologue_saves__+0x18>
     8f0:	69 83       	std	Y+1, r22	; 0x01
     8f2:	7a 83       	std	Y+2, r23	; 0x02
     8f4:	8b 83       	std	Y+3, r24	; 0x03
     8f6:	9c 83       	std	Y+4, r25	; 0x04
     8f8:	2d 83       	std	Y+5, r18	; 0x05
     8fa:	3e 83       	std	Y+6, r19	; 0x06
     8fc:	4f 83       	std	Y+7, r20	; 0x07
     8fe:	58 87       	std	Y+8, r21	; 0x08
     900:	89 e0       	ldi	r24, 0x09	; 9
     902:	e8 2e       	mov	r14, r24
     904:	f1 2c       	mov	r15, r1
     906:	ec 0e       	add	r14, r28
     908:	fd 1e       	adc	r15, r29
     90a:	ce 01       	movw	r24, r28
     90c:	01 96       	adiw	r24, 0x01	; 1
     90e:	b7 01       	movw	r22, r14
     910:	0e 94 81 07 	call	0xf02	; 0xf02 <__unpack_f>
     914:	8e 01       	movw	r16, r28
     916:	0f 5e       	subi	r16, 0xEF	; 239
     918:	1f 4f       	sbci	r17, 0xFF	; 255
     91a:	ce 01       	movw	r24, r28
     91c:	05 96       	adiw	r24, 0x05	; 5
     91e:	b8 01       	movw	r22, r16
     920:	0e 94 81 07 	call	0xf02	; 0xf02 <__unpack_f>
     924:	89 85       	ldd	r24, Y+9	; 0x09
     926:	82 30       	cpi	r24, 0x02	; 2
     928:	40 f0       	brcs	.+16     	; 0x93a <__nesf2+0x56>
     92a:	89 89       	ldd	r24, Y+17	; 0x11
     92c:	82 30       	cpi	r24, 0x02	; 2
     92e:	28 f0       	brcs	.+10     	; 0x93a <__nesf2+0x56>
     930:	c7 01       	movw	r24, r14
     932:	b8 01       	movw	r22, r16
     934:	0e 94 f9 07 	call	0xff2	; 0xff2 <__fpcmp_parts_f>
     938:	01 c0       	rjmp	.+2      	; 0x93c <__nesf2+0x58>
     93a:	81 e0       	ldi	r24, 0x01	; 1
     93c:	68 96       	adiw	r28, 0x18	; 24
     93e:	e6 e0       	ldi	r30, 0x06	; 6
     940:	0c 94 65 2e 	jmp	0x5cca	; 0x5cca <__epilogue_restores__+0x18>

00000944 <__gtsf2>:
     944:	a8 e1       	ldi	r26, 0x18	; 24
     946:	b0 e0       	ldi	r27, 0x00	; 0
     948:	e8 ea       	ldi	r30, 0xA8	; 168
     94a:	f4 e0       	ldi	r31, 0x04	; 4
     94c:	0c 94 49 2e 	jmp	0x5c92	; 0x5c92 <__prologue_saves__+0x18>
     950:	69 83       	std	Y+1, r22	; 0x01
     952:	7a 83       	std	Y+2, r23	; 0x02
     954:	8b 83       	std	Y+3, r24	; 0x03
     956:	9c 83       	std	Y+4, r25	; 0x04
     958:	2d 83       	std	Y+5, r18	; 0x05
     95a:	3e 83       	std	Y+6, r19	; 0x06
     95c:	4f 83       	std	Y+7, r20	; 0x07
     95e:	58 87       	std	Y+8, r21	; 0x08
     960:	89 e0       	ldi	r24, 0x09	; 9
     962:	e8 2e       	mov	r14, r24
     964:	f1 2c       	mov	r15, r1
     966:	ec 0e       	add	r14, r28
     968:	fd 1e       	adc	r15, r29
     96a:	ce 01       	movw	r24, r28
     96c:	01 96       	adiw	r24, 0x01	; 1
     96e:	b7 01       	movw	r22, r14
     970:	0e 94 81 07 	call	0xf02	; 0xf02 <__unpack_f>
     974:	8e 01       	movw	r16, r28
     976:	0f 5e       	subi	r16, 0xEF	; 239
     978:	1f 4f       	sbci	r17, 0xFF	; 255
     97a:	ce 01       	movw	r24, r28
     97c:	05 96       	adiw	r24, 0x05	; 5
     97e:	b8 01       	movw	r22, r16
     980:	0e 94 81 07 	call	0xf02	; 0xf02 <__unpack_f>
     984:	89 85       	ldd	r24, Y+9	; 0x09
     986:	82 30       	cpi	r24, 0x02	; 2
     988:	40 f0       	brcs	.+16     	; 0x99a <__gtsf2+0x56>
     98a:	89 89       	ldd	r24, Y+17	; 0x11
     98c:	82 30       	cpi	r24, 0x02	; 2
     98e:	28 f0       	brcs	.+10     	; 0x99a <__gtsf2+0x56>
     990:	c7 01       	movw	r24, r14
     992:	b8 01       	movw	r22, r16
     994:	0e 94 f9 07 	call	0xff2	; 0xff2 <__fpcmp_parts_f>
     998:	01 c0       	rjmp	.+2      	; 0x99c <__gtsf2+0x58>
     99a:	8f ef       	ldi	r24, 0xFF	; 255
     99c:	68 96       	adiw	r28, 0x18	; 24
     99e:	e6 e0       	ldi	r30, 0x06	; 6
     9a0:	0c 94 65 2e 	jmp	0x5cca	; 0x5cca <__epilogue_restores__+0x18>

000009a4 <__gesf2>:
     9a4:	a8 e1       	ldi	r26, 0x18	; 24
     9a6:	b0 e0       	ldi	r27, 0x00	; 0
     9a8:	e8 ed       	ldi	r30, 0xD8	; 216
     9aa:	f4 e0       	ldi	r31, 0x04	; 4
     9ac:	0c 94 49 2e 	jmp	0x5c92	; 0x5c92 <__prologue_saves__+0x18>
     9b0:	69 83       	std	Y+1, r22	; 0x01
     9b2:	7a 83       	std	Y+2, r23	; 0x02
     9b4:	8b 83       	std	Y+3, r24	; 0x03
     9b6:	9c 83       	std	Y+4, r25	; 0x04
     9b8:	2d 83       	std	Y+5, r18	; 0x05
     9ba:	3e 83       	std	Y+6, r19	; 0x06
     9bc:	4f 83       	std	Y+7, r20	; 0x07
     9be:	58 87       	std	Y+8, r21	; 0x08
     9c0:	89 e0       	ldi	r24, 0x09	; 9
     9c2:	e8 2e       	mov	r14, r24
     9c4:	f1 2c       	mov	r15, r1
     9c6:	ec 0e       	add	r14, r28
     9c8:	fd 1e       	adc	r15, r29
     9ca:	ce 01       	movw	r24, r28
     9cc:	01 96       	adiw	r24, 0x01	; 1
     9ce:	b7 01       	movw	r22, r14
     9d0:	0e 94 81 07 	call	0xf02	; 0xf02 <__unpack_f>
     9d4:	8e 01       	movw	r16, r28
     9d6:	0f 5e       	subi	r16, 0xEF	; 239
     9d8:	1f 4f       	sbci	r17, 0xFF	; 255
     9da:	ce 01       	movw	r24, r28
     9dc:	05 96       	adiw	r24, 0x05	; 5
     9de:	b8 01       	movw	r22, r16
     9e0:	0e 94 81 07 	call	0xf02	; 0xf02 <__unpack_f>
     9e4:	89 85       	ldd	r24, Y+9	; 0x09
     9e6:	82 30       	cpi	r24, 0x02	; 2
     9e8:	40 f0       	brcs	.+16     	; 0x9fa <__gesf2+0x56>
     9ea:	89 89       	ldd	r24, Y+17	; 0x11
     9ec:	82 30       	cpi	r24, 0x02	; 2
     9ee:	28 f0       	brcs	.+10     	; 0x9fa <__gesf2+0x56>
     9f0:	c7 01       	movw	r24, r14
     9f2:	b8 01       	movw	r22, r16
     9f4:	0e 94 f9 07 	call	0xff2	; 0xff2 <__fpcmp_parts_f>
     9f8:	01 c0       	rjmp	.+2      	; 0x9fc <__gesf2+0x58>
     9fa:	8f ef       	ldi	r24, 0xFF	; 255
     9fc:	68 96       	adiw	r28, 0x18	; 24
     9fe:	e6 e0       	ldi	r30, 0x06	; 6
     a00:	0c 94 65 2e 	jmp	0x5cca	; 0x5cca <__epilogue_restores__+0x18>

00000a04 <__ltsf2>:
     a04:	a8 e1       	ldi	r26, 0x18	; 24
     a06:	b0 e0       	ldi	r27, 0x00	; 0
     a08:	e8 e0       	ldi	r30, 0x08	; 8
     a0a:	f5 e0       	ldi	r31, 0x05	; 5
     a0c:	0c 94 49 2e 	jmp	0x5c92	; 0x5c92 <__prologue_saves__+0x18>
     a10:	69 83       	std	Y+1, r22	; 0x01
     a12:	7a 83       	std	Y+2, r23	; 0x02
     a14:	8b 83       	std	Y+3, r24	; 0x03
     a16:	9c 83       	std	Y+4, r25	; 0x04
     a18:	2d 83       	std	Y+5, r18	; 0x05
     a1a:	3e 83       	std	Y+6, r19	; 0x06
     a1c:	4f 83       	std	Y+7, r20	; 0x07
     a1e:	58 87       	std	Y+8, r21	; 0x08
     a20:	89 e0       	ldi	r24, 0x09	; 9
     a22:	e8 2e       	mov	r14, r24
     a24:	f1 2c       	mov	r15, r1
     a26:	ec 0e       	add	r14, r28
     a28:	fd 1e       	adc	r15, r29
     a2a:	ce 01       	movw	r24, r28
     a2c:	01 96       	adiw	r24, 0x01	; 1
     a2e:	b7 01       	movw	r22, r14
     a30:	0e 94 81 07 	call	0xf02	; 0xf02 <__unpack_f>
     a34:	8e 01       	movw	r16, r28
     a36:	0f 5e       	subi	r16, 0xEF	; 239
     a38:	1f 4f       	sbci	r17, 0xFF	; 255
     a3a:	ce 01       	movw	r24, r28
     a3c:	05 96       	adiw	r24, 0x05	; 5
     a3e:	b8 01       	movw	r22, r16
     a40:	0e 94 81 07 	call	0xf02	; 0xf02 <__unpack_f>
     a44:	89 85       	ldd	r24, Y+9	; 0x09
     a46:	82 30       	cpi	r24, 0x02	; 2
     a48:	40 f0       	brcs	.+16     	; 0xa5a <__ltsf2+0x56>
     a4a:	89 89       	ldd	r24, Y+17	; 0x11
     a4c:	82 30       	cpi	r24, 0x02	; 2
     a4e:	28 f0       	brcs	.+10     	; 0xa5a <__ltsf2+0x56>
     a50:	c7 01       	movw	r24, r14
     a52:	b8 01       	movw	r22, r16
     a54:	0e 94 f9 07 	call	0xff2	; 0xff2 <__fpcmp_parts_f>
     a58:	01 c0       	rjmp	.+2      	; 0xa5c <__ltsf2+0x58>
     a5a:	81 e0       	ldi	r24, 0x01	; 1
     a5c:	68 96       	adiw	r28, 0x18	; 24
     a5e:	e6 e0       	ldi	r30, 0x06	; 6
     a60:	0c 94 65 2e 	jmp	0x5cca	; 0x5cca <__epilogue_restores__+0x18>

00000a64 <__floatsisf>:
     a64:	a8 e0       	ldi	r26, 0x08	; 8
     a66:	b0 e0       	ldi	r27, 0x00	; 0
     a68:	e8 e3       	ldi	r30, 0x38	; 56
     a6a:	f5 e0       	ldi	r31, 0x05	; 5
     a6c:	0c 94 46 2e 	jmp	0x5c8c	; 0x5c8c <__prologue_saves__+0x12>
     a70:	9b 01       	movw	r18, r22
     a72:	ac 01       	movw	r20, r24
     a74:	83 e0       	ldi	r24, 0x03	; 3
     a76:	89 83       	std	Y+1, r24	; 0x01
     a78:	da 01       	movw	r26, r20
     a7a:	c9 01       	movw	r24, r18
     a7c:	88 27       	eor	r24, r24
     a7e:	b7 fd       	sbrc	r27, 7
     a80:	83 95       	inc	r24
     a82:	99 27       	eor	r25, r25
     a84:	aa 27       	eor	r26, r26
     a86:	bb 27       	eor	r27, r27
     a88:	b8 2e       	mov	r11, r24
     a8a:	21 15       	cp	r18, r1
     a8c:	31 05       	cpc	r19, r1
     a8e:	41 05       	cpc	r20, r1
     a90:	51 05       	cpc	r21, r1
     a92:	19 f4       	brne	.+6      	; 0xa9a <__floatsisf+0x36>
     a94:	82 e0       	ldi	r24, 0x02	; 2
     a96:	89 83       	std	Y+1, r24	; 0x01
     a98:	3a c0       	rjmp	.+116    	; 0xb0e <__floatsisf+0xaa>
     a9a:	88 23       	and	r24, r24
     a9c:	a9 f0       	breq	.+42     	; 0xac8 <__floatsisf+0x64>
     a9e:	20 30       	cpi	r18, 0x00	; 0
     aa0:	80 e0       	ldi	r24, 0x00	; 0
     aa2:	38 07       	cpc	r19, r24
     aa4:	80 e0       	ldi	r24, 0x00	; 0
     aa6:	48 07       	cpc	r20, r24
     aa8:	80 e8       	ldi	r24, 0x80	; 128
     aaa:	58 07       	cpc	r21, r24
     aac:	29 f4       	brne	.+10     	; 0xab8 <__floatsisf+0x54>
     aae:	60 e0       	ldi	r22, 0x00	; 0
     ab0:	70 e0       	ldi	r23, 0x00	; 0
     ab2:	80 e0       	ldi	r24, 0x00	; 0
     ab4:	9f ec       	ldi	r25, 0xCF	; 207
     ab6:	30 c0       	rjmp	.+96     	; 0xb18 <__floatsisf+0xb4>
     ab8:	ee 24       	eor	r14, r14
     aba:	ff 24       	eor	r15, r15
     abc:	87 01       	movw	r16, r14
     abe:	e2 1a       	sub	r14, r18
     ac0:	f3 0a       	sbc	r15, r19
     ac2:	04 0b       	sbc	r16, r20
     ac4:	15 0b       	sbc	r17, r21
     ac6:	02 c0       	rjmp	.+4      	; 0xacc <__floatsisf+0x68>
     ac8:	79 01       	movw	r14, r18
     aca:	8a 01       	movw	r16, r20
     acc:	8e e1       	ldi	r24, 0x1E	; 30
     ace:	c8 2e       	mov	r12, r24
     ad0:	d1 2c       	mov	r13, r1
     ad2:	dc 82       	std	Y+4, r13	; 0x04
     ad4:	cb 82       	std	Y+3, r12	; 0x03
     ad6:	ed 82       	std	Y+5, r14	; 0x05
     ad8:	fe 82       	std	Y+6, r15	; 0x06
     ada:	0f 83       	std	Y+7, r16	; 0x07
     adc:	18 87       	std	Y+8, r17	; 0x08
     ade:	c8 01       	movw	r24, r16
     ae0:	b7 01       	movw	r22, r14
     ae2:	0e 94 5d 06 	call	0xcba	; 0xcba <__clzsi2>
     ae6:	01 97       	sbiw	r24, 0x01	; 1
     ae8:	18 16       	cp	r1, r24
     aea:	19 06       	cpc	r1, r25
     aec:	84 f4       	brge	.+32     	; 0xb0e <__floatsisf+0xaa>
     aee:	08 2e       	mov	r0, r24
     af0:	04 c0       	rjmp	.+8      	; 0xafa <__floatsisf+0x96>
     af2:	ee 0c       	add	r14, r14
     af4:	ff 1c       	adc	r15, r15
     af6:	00 1f       	adc	r16, r16
     af8:	11 1f       	adc	r17, r17
     afa:	0a 94       	dec	r0
     afc:	d2 f7       	brpl	.-12     	; 0xaf2 <__floatsisf+0x8e>
     afe:	ed 82       	std	Y+5, r14	; 0x05
     b00:	fe 82       	std	Y+6, r15	; 0x06
     b02:	0f 83       	std	Y+7, r16	; 0x07
     b04:	18 87       	std	Y+8, r17	; 0x08
     b06:	c8 1a       	sub	r12, r24
     b08:	d9 0a       	sbc	r13, r25
     b0a:	dc 82       	std	Y+4, r13	; 0x04
     b0c:	cb 82       	std	Y+3, r12	; 0x03
     b0e:	ba 82       	std	Y+2, r11	; 0x02
     b10:	ce 01       	movw	r24, r28
     b12:	01 96       	adiw	r24, 0x01	; 1
     b14:	0e 94 ac 06 	call	0xd58	; 0xd58 <__pack_f>
     b18:	28 96       	adiw	r28, 0x08	; 8
     b1a:	e9 e0       	ldi	r30, 0x09	; 9
     b1c:	0c 94 62 2e 	jmp	0x5cc4	; 0x5cc4 <__epilogue_restores__+0x12>

00000b20 <__fixsfsi>:
     b20:	ac e0       	ldi	r26, 0x0C	; 12
     b22:	b0 e0       	ldi	r27, 0x00	; 0
     b24:	e6 e9       	ldi	r30, 0x96	; 150
     b26:	f5 e0       	ldi	r31, 0x05	; 5
     b28:	0c 94 4d 2e 	jmp	0x5c9a	; 0x5c9a <__prologue_saves__+0x20>
     b2c:	69 83       	std	Y+1, r22	; 0x01
     b2e:	7a 83       	std	Y+2, r23	; 0x02
     b30:	8b 83       	std	Y+3, r24	; 0x03
     b32:	9c 83       	std	Y+4, r25	; 0x04
     b34:	ce 01       	movw	r24, r28
     b36:	01 96       	adiw	r24, 0x01	; 1
     b38:	be 01       	movw	r22, r28
     b3a:	6b 5f       	subi	r22, 0xFB	; 251
     b3c:	7f 4f       	sbci	r23, 0xFF	; 255
     b3e:	0e 94 81 07 	call	0xf02	; 0xf02 <__unpack_f>
     b42:	8d 81       	ldd	r24, Y+5	; 0x05
     b44:	82 30       	cpi	r24, 0x02	; 2
     b46:	61 f1       	breq	.+88     	; 0xba0 <__fixsfsi+0x80>
     b48:	82 30       	cpi	r24, 0x02	; 2
     b4a:	50 f1       	brcs	.+84     	; 0xba0 <__fixsfsi+0x80>
     b4c:	84 30       	cpi	r24, 0x04	; 4
     b4e:	21 f4       	brne	.+8      	; 0xb58 <__fixsfsi+0x38>
     b50:	8e 81       	ldd	r24, Y+6	; 0x06
     b52:	88 23       	and	r24, r24
     b54:	51 f1       	breq	.+84     	; 0xbaa <__fixsfsi+0x8a>
     b56:	2e c0       	rjmp	.+92     	; 0xbb4 <__fixsfsi+0x94>
     b58:	2f 81       	ldd	r18, Y+7	; 0x07
     b5a:	38 85       	ldd	r19, Y+8	; 0x08
     b5c:	37 fd       	sbrc	r19, 7
     b5e:	20 c0       	rjmp	.+64     	; 0xba0 <__fixsfsi+0x80>
     b60:	6e 81       	ldd	r22, Y+6	; 0x06
     b62:	2f 31       	cpi	r18, 0x1F	; 31
     b64:	31 05       	cpc	r19, r1
     b66:	1c f0       	brlt	.+6      	; 0xb6e <__fixsfsi+0x4e>
     b68:	66 23       	and	r22, r22
     b6a:	f9 f0       	breq	.+62     	; 0xbaa <__fixsfsi+0x8a>
     b6c:	23 c0       	rjmp	.+70     	; 0xbb4 <__fixsfsi+0x94>
     b6e:	8e e1       	ldi	r24, 0x1E	; 30
     b70:	90 e0       	ldi	r25, 0x00	; 0
     b72:	82 1b       	sub	r24, r18
     b74:	93 0b       	sbc	r25, r19
     b76:	29 85       	ldd	r18, Y+9	; 0x09
     b78:	3a 85       	ldd	r19, Y+10	; 0x0a
     b7a:	4b 85       	ldd	r20, Y+11	; 0x0b
     b7c:	5c 85       	ldd	r21, Y+12	; 0x0c
     b7e:	04 c0       	rjmp	.+8      	; 0xb88 <__fixsfsi+0x68>
     b80:	56 95       	lsr	r21
     b82:	47 95       	ror	r20
     b84:	37 95       	ror	r19
     b86:	27 95       	ror	r18
     b88:	8a 95       	dec	r24
     b8a:	d2 f7       	brpl	.-12     	; 0xb80 <__fixsfsi+0x60>
     b8c:	66 23       	and	r22, r22
     b8e:	b1 f0       	breq	.+44     	; 0xbbc <__fixsfsi+0x9c>
     b90:	50 95       	com	r21
     b92:	40 95       	com	r20
     b94:	30 95       	com	r19
     b96:	21 95       	neg	r18
     b98:	3f 4f       	sbci	r19, 0xFF	; 255
     b9a:	4f 4f       	sbci	r20, 0xFF	; 255
     b9c:	5f 4f       	sbci	r21, 0xFF	; 255
     b9e:	0e c0       	rjmp	.+28     	; 0xbbc <__fixsfsi+0x9c>
     ba0:	20 e0       	ldi	r18, 0x00	; 0
     ba2:	30 e0       	ldi	r19, 0x00	; 0
     ba4:	40 e0       	ldi	r20, 0x00	; 0
     ba6:	50 e0       	ldi	r21, 0x00	; 0
     ba8:	09 c0       	rjmp	.+18     	; 0xbbc <__fixsfsi+0x9c>
     baa:	2f ef       	ldi	r18, 0xFF	; 255
     bac:	3f ef       	ldi	r19, 0xFF	; 255
     bae:	4f ef       	ldi	r20, 0xFF	; 255
     bb0:	5f e7       	ldi	r21, 0x7F	; 127
     bb2:	04 c0       	rjmp	.+8      	; 0xbbc <__fixsfsi+0x9c>
     bb4:	20 e0       	ldi	r18, 0x00	; 0
     bb6:	30 e0       	ldi	r19, 0x00	; 0
     bb8:	40 e0       	ldi	r20, 0x00	; 0
     bba:	50 e8       	ldi	r21, 0x80	; 128
     bbc:	b9 01       	movw	r22, r18
     bbe:	ca 01       	movw	r24, r20
     bc0:	2c 96       	adiw	r28, 0x0c	; 12
     bc2:	e2 e0       	ldi	r30, 0x02	; 2
     bc4:	0c 94 69 2e 	jmp	0x5cd2	; 0x5cd2 <__epilogue_restores__+0x20>

00000bc8 <__floatunsisf>:
     bc8:	a8 e0       	ldi	r26, 0x08	; 8
     bca:	b0 e0       	ldi	r27, 0x00	; 0
     bcc:	ea ee       	ldi	r30, 0xEA	; 234
     bce:	f5 e0       	ldi	r31, 0x05	; 5
     bd0:	0c 94 45 2e 	jmp	0x5c8a	; 0x5c8a <__prologue_saves__+0x10>
     bd4:	7b 01       	movw	r14, r22
     bd6:	8c 01       	movw	r16, r24
     bd8:	61 15       	cp	r22, r1
     bda:	71 05       	cpc	r23, r1
     bdc:	81 05       	cpc	r24, r1
     bde:	91 05       	cpc	r25, r1
     be0:	19 f4       	brne	.+6      	; 0xbe8 <__floatunsisf+0x20>
     be2:	82 e0       	ldi	r24, 0x02	; 2
     be4:	89 83       	std	Y+1, r24	; 0x01
     be6:	60 c0       	rjmp	.+192    	; 0xca8 <__floatunsisf+0xe0>
     be8:	83 e0       	ldi	r24, 0x03	; 3
     bea:	89 83       	std	Y+1, r24	; 0x01
     bec:	8e e1       	ldi	r24, 0x1E	; 30
     bee:	c8 2e       	mov	r12, r24
     bf0:	d1 2c       	mov	r13, r1
     bf2:	dc 82       	std	Y+4, r13	; 0x04
     bf4:	cb 82       	std	Y+3, r12	; 0x03
     bf6:	ed 82       	std	Y+5, r14	; 0x05
     bf8:	fe 82       	std	Y+6, r15	; 0x06
     bfa:	0f 83       	std	Y+7, r16	; 0x07
     bfc:	18 87       	std	Y+8, r17	; 0x08
     bfe:	c8 01       	movw	r24, r16
     c00:	b7 01       	movw	r22, r14
     c02:	0e 94 5d 06 	call	0xcba	; 0xcba <__clzsi2>
     c06:	fc 01       	movw	r30, r24
     c08:	31 97       	sbiw	r30, 0x01	; 1
     c0a:	f7 ff       	sbrs	r31, 7
     c0c:	3b c0       	rjmp	.+118    	; 0xc84 <__floatunsisf+0xbc>
     c0e:	22 27       	eor	r18, r18
     c10:	33 27       	eor	r19, r19
     c12:	2e 1b       	sub	r18, r30
     c14:	3f 0b       	sbc	r19, r31
     c16:	57 01       	movw	r10, r14
     c18:	68 01       	movw	r12, r16
     c1a:	02 2e       	mov	r0, r18
     c1c:	04 c0       	rjmp	.+8      	; 0xc26 <__floatunsisf+0x5e>
     c1e:	d6 94       	lsr	r13
     c20:	c7 94       	ror	r12
     c22:	b7 94       	ror	r11
     c24:	a7 94       	ror	r10
     c26:	0a 94       	dec	r0
     c28:	d2 f7       	brpl	.-12     	; 0xc1e <__floatunsisf+0x56>
     c2a:	40 e0       	ldi	r20, 0x00	; 0
     c2c:	50 e0       	ldi	r21, 0x00	; 0
     c2e:	60 e0       	ldi	r22, 0x00	; 0
     c30:	70 e0       	ldi	r23, 0x00	; 0
     c32:	81 e0       	ldi	r24, 0x01	; 1
     c34:	90 e0       	ldi	r25, 0x00	; 0
     c36:	a0 e0       	ldi	r26, 0x00	; 0
     c38:	b0 e0       	ldi	r27, 0x00	; 0
     c3a:	04 c0       	rjmp	.+8      	; 0xc44 <__floatunsisf+0x7c>
     c3c:	88 0f       	add	r24, r24
     c3e:	99 1f       	adc	r25, r25
     c40:	aa 1f       	adc	r26, r26
     c42:	bb 1f       	adc	r27, r27
     c44:	2a 95       	dec	r18
     c46:	d2 f7       	brpl	.-12     	; 0xc3c <__floatunsisf+0x74>
     c48:	01 97       	sbiw	r24, 0x01	; 1
     c4a:	a1 09       	sbc	r26, r1
     c4c:	b1 09       	sbc	r27, r1
     c4e:	8e 21       	and	r24, r14
     c50:	9f 21       	and	r25, r15
     c52:	a0 23       	and	r26, r16
     c54:	b1 23       	and	r27, r17
     c56:	00 97       	sbiw	r24, 0x00	; 0
     c58:	a1 05       	cpc	r26, r1
     c5a:	b1 05       	cpc	r27, r1
     c5c:	21 f0       	breq	.+8      	; 0xc66 <__floatunsisf+0x9e>
     c5e:	41 e0       	ldi	r20, 0x01	; 1
     c60:	50 e0       	ldi	r21, 0x00	; 0
     c62:	60 e0       	ldi	r22, 0x00	; 0
     c64:	70 e0       	ldi	r23, 0x00	; 0
     c66:	4a 29       	or	r20, r10
     c68:	5b 29       	or	r21, r11
     c6a:	6c 29       	or	r22, r12
     c6c:	7d 29       	or	r23, r13
     c6e:	4d 83       	std	Y+5, r20	; 0x05
     c70:	5e 83       	std	Y+6, r21	; 0x06
     c72:	6f 83       	std	Y+7, r22	; 0x07
     c74:	78 87       	std	Y+8, r23	; 0x08
     c76:	8e e1       	ldi	r24, 0x1E	; 30
     c78:	90 e0       	ldi	r25, 0x00	; 0
     c7a:	8e 1b       	sub	r24, r30
     c7c:	9f 0b       	sbc	r25, r31
     c7e:	9c 83       	std	Y+4, r25	; 0x04
     c80:	8b 83       	std	Y+3, r24	; 0x03
     c82:	12 c0       	rjmp	.+36     	; 0xca8 <__floatunsisf+0xe0>
     c84:	30 97       	sbiw	r30, 0x00	; 0
     c86:	81 f0       	breq	.+32     	; 0xca8 <__floatunsisf+0xe0>
     c88:	0e 2e       	mov	r0, r30
     c8a:	04 c0       	rjmp	.+8      	; 0xc94 <__floatunsisf+0xcc>
     c8c:	ee 0c       	add	r14, r14
     c8e:	ff 1c       	adc	r15, r15
     c90:	00 1f       	adc	r16, r16
     c92:	11 1f       	adc	r17, r17
     c94:	0a 94       	dec	r0
     c96:	d2 f7       	brpl	.-12     	; 0xc8c <__floatunsisf+0xc4>
     c98:	ed 82       	std	Y+5, r14	; 0x05
     c9a:	fe 82       	std	Y+6, r15	; 0x06
     c9c:	0f 83       	std	Y+7, r16	; 0x07
     c9e:	18 87       	std	Y+8, r17	; 0x08
     ca0:	ce 1a       	sub	r12, r30
     ca2:	df 0a       	sbc	r13, r31
     ca4:	dc 82       	std	Y+4, r13	; 0x04
     ca6:	cb 82       	std	Y+3, r12	; 0x03
     ca8:	1a 82       	std	Y+2, r1	; 0x02
     caa:	ce 01       	movw	r24, r28
     cac:	01 96       	adiw	r24, 0x01	; 1
     cae:	0e 94 ac 06 	call	0xd58	; 0xd58 <__pack_f>
     cb2:	28 96       	adiw	r28, 0x08	; 8
     cb4:	ea e0       	ldi	r30, 0x0A	; 10
     cb6:	0c 94 61 2e 	jmp	0x5cc2	; 0x5cc2 <__epilogue_restores__+0x10>

00000cba <__clzsi2>:
     cba:	ef 92       	push	r14
     cbc:	ff 92       	push	r15
     cbe:	0f 93       	push	r16
     cc0:	1f 93       	push	r17
     cc2:	7b 01       	movw	r14, r22
     cc4:	8c 01       	movw	r16, r24
     cc6:	80 e0       	ldi	r24, 0x00	; 0
     cc8:	e8 16       	cp	r14, r24
     cca:	80 e0       	ldi	r24, 0x00	; 0
     ccc:	f8 06       	cpc	r15, r24
     cce:	81 e0       	ldi	r24, 0x01	; 1
     cd0:	08 07       	cpc	r16, r24
     cd2:	80 e0       	ldi	r24, 0x00	; 0
     cd4:	18 07       	cpc	r17, r24
     cd6:	88 f4       	brcc	.+34     	; 0xcfa <__clzsi2+0x40>
     cd8:	8f ef       	ldi	r24, 0xFF	; 255
     cda:	e8 16       	cp	r14, r24
     cdc:	f1 04       	cpc	r15, r1
     cde:	01 05       	cpc	r16, r1
     ce0:	11 05       	cpc	r17, r1
     ce2:	31 f0       	breq	.+12     	; 0xcf0 <__clzsi2+0x36>
     ce4:	28 f0       	brcs	.+10     	; 0xcf0 <__clzsi2+0x36>
     ce6:	88 e0       	ldi	r24, 0x08	; 8
     ce8:	90 e0       	ldi	r25, 0x00	; 0
     cea:	a0 e0       	ldi	r26, 0x00	; 0
     cec:	b0 e0       	ldi	r27, 0x00	; 0
     cee:	17 c0       	rjmp	.+46     	; 0xd1e <__clzsi2+0x64>
     cf0:	80 e0       	ldi	r24, 0x00	; 0
     cf2:	90 e0       	ldi	r25, 0x00	; 0
     cf4:	a0 e0       	ldi	r26, 0x00	; 0
     cf6:	b0 e0       	ldi	r27, 0x00	; 0
     cf8:	12 c0       	rjmp	.+36     	; 0xd1e <__clzsi2+0x64>
     cfa:	80 e0       	ldi	r24, 0x00	; 0
     cfc:	e8 16       	cp	r14, r24
     cfe:	80 e0       	ldi	r24, 0x00	; 0
     d00:	f8 06       	cpc	r15, r24
     d02:	80 e0       	ldi	r24, 0x00	; 0
     d04:	08 07       	cpc	r16, r24
     d06:	81 e0       	ldi	r24, 0x01	; 1
     d08:	18 07       	cpc	r17, r24
     d0a:	28 f0       	brcs	.+10     	; 0xd16 <__clzsi2+0x5c>
     d0c:	88 e1       	ldi	r24, 0x18	; 24
     d0e:	90 e0       	ldi	r25, 0x00	; 0
     d10:	a0 e0       	ldi	r26, 0x00	; 0
     d12:	b0 e0       	ldi	r27, 0x00	; 0
     d14:	04 c0       	rjmp	.+8      	; 0xd1e <__clzsi2+0x64>
     d16:	80 e1       	ldi	r24, 0x10	; 16
     d18:	90 e0       	ldi	r25, 0x00	; 0
     d1a:	a0 e0       	ldi	r26, 0x00	; 0
     d1c:	b0 e0       	ldi	r27, 0x00	; 0
     d1e:	20 e2       	ldi	r18, 0x20	; 32
     d20:	30 e0       	ldi	r19, 0x00	; 0
     d22:	40 e0       	ldi	r20, 0x00	; 0
     d24:	50 e0       	ldi	r21, 0x00	; 0
     d26:	28 1b       	sub	r18, r24
     d28:	39 0b       	sbc	r19, r25
     d2a:	4a 0b       	sbc	r20, r26
     d2c:	5b 0b       	sbc	r21, r27
     d2e:	04 c0       	rjmp	.+8      	; 0xd38 <__clzsi2+0x7e>
     d30:	16 95       	lsr	r17
     d32:	07 95       	ror	r16
     d34:	f7 94       	ror	r15
     d36:	e7 94       	ror	r14
     d38:	8a 95       	dec	r24
     d3a:	d2 f7       	brpl	.-12     	; 0xd30 <__clzsi2+0x76>
     d3c:	f7 01       	movw	r30, r14
     d3e:	ee 51       	subi	r30, 0x1E	; 30
     d40:	fd 4f       	sbci	r31, 0xFD	; 253
     d42:	80 81       	ld	r24, Z
     d44:	28 1b       	sub	r18, r24
     d46:	31 09       	sbc	r19, r1
     d48:	41 09       	sbc	r20, r1
     d4a:	51 09       	sbc	r21, r1
     d4c:	c9 01       	movw	r24, r18
     d4e:	1f 91       	pop	r17
     d50:	0f 91       	pop	r16
     d52:	ff 90       	pop	r15
     d54:	ef 90       	pop	r14
     d56:	08 95       	ret

00000d58 <__pack_f>:
     d58:	df 92       	push	r13
     d5a:	ef 92       	push	r14
     d5c:	ff 92       	push	r15
     d5e:	0f 93       	push	r16
     d60:	1f 93       	push	r17
     d62:	fc 01       	movw	r30, r24
     d64:	e4 80       	ldd	r14, Z+4	; 0x04
     d66:	f5 80       	ldd	r15, Z+5	; 0x05
     d68:	06 81       	ldd	r16, Z+6	; 0x06
     d6a:	17 81       	ldd	r17, Z+7	; 0x07
     d6c:	d1 80       	ldd	r13, Z+1	; 0x01
     d6e:	80 81       	ld	r24, Z
     d70:	82 30       	cpi	r24, 0x02	; 2
     d72:	48 f4       	brcc	.+18     	; 0xd86 <__pack_f+0x2e>
     d74:	80 e0       	ldi	r24, 0x00	; 0
     d76:	90 e0       	ldi	r25, 0x00	; 0
     d78:	a0 e1       	ldi	r26, 0x10	; 16
     d7a:	b0 e0       	ldi	r27, 0x00	; 0
     d7c:	e8 2a       	or	r14, r24
     d7e:	f9 2a       	or	r15, r25
     d80:	0a 2b       	or	r16, r26
     d82:	1b 2b       	or	r17, r27
     d84:	a5 c0       	rjmp	.+330    	; 0xed0 <__pack_f+0x178>
     d86:	84 30       	cpi	r24, 0x04	; 4
     d88:	09 f4       	brne	.+2      	; 0xd8c <__pack_f+0x34>
     d8a:	9f c0       	rjmp	.+318    	; 0xeca <__pack_f+0x172>
     d8c:	82 30       	cpi	r24, 0x02	; 2
     d8e:	21 f4       	brne	.+8      	; 0xd98 <__pack_f+0x40>
     d90:	ee 24       	eor	r14, r14
     d92:	ff 24       	eor	r15, r15
     d94:	87 01       	movw	r16, r14
     d96:	05 c0       	rjmp	.+10     	; 0xda2 <__pack_f+0x4a>
     d98:	e1 14       	cp	r14, r1
     d9a:	f1 04       	cpc	r15, r1
     d9c:	01 05       	cpc	r16, r1
     d9e:	11 05       	cpc	r17, r1
     da0:	19 f4       	brne	.+6      	; 0xda8 <__pack_f+0x50>
     da2:	e0 e0       	ldi	r30, 0x00	; 0
     da4:	f0 e0       	ldi	r31, 0x00	; 0
     da6:	96 c0       	rjmp	.+300    	; 0xed4 <__pack_f+0x17c>
     da8:	62 81       	ldd	r22, Z+2	; 0x02
     daa:	73 81       	ldd	r23, Z+3	; 0x03
     dac:	9f ef       	ldi	r25, 0xFF	; 255
     dae:	62 38       	cpi	r22, 0x82	; 130
     db0:	79 07       	cpc	r23, r25
     db2:	0c f0       	brlt	.+2      	; 0xdb6 <__pack_f+0x5e>
     db4:	5b c0       	rjmp	.+182    	; 0xe6c <__pack_f+0x114>
     db6:	22 e8       	ldi	r18, 0x82	; 130
     db8:	3f ef       	ldi	r19, 0xFF	; 255
     dba:	26 1b       	sub	r18, r22
     dbc:	37 0b       	sbc	r19, r23
     dbe:	2a 31       	cpi	r18, 0x1A	; 26
     dc0:	31 05       	cpc	r19, r1
     dc2:	2c f0       	brlt	.+10     	; 0xdce <__pack_f+0x76>
     dc4:	20 e0       	ldi	r18, 0x00	; 0
     dc6:	30 e0       	ldi	r19, 0x00	; 0
     dc8:	40 e0       	ldi	r20, 0x00	; 0
     dca:	50 e0       	ldi	r21, 0x00	; 0
     dcc:	2a c0       	rjmp	.+84     	; 0xe22 <__pack_f+0xca>
     dce:	b8 01       	movw	r22, r16
     dd0:	a7 01       	movw	r20, r14
     dd2:	02 2e       	mov	r0, r18
     dd4:	04 c0       	rjmp	.+8      	; 0xdde <__pack_f+0x86>
     dd6:	76 95       	lsr	r23
     dd8:	67 95       	ror	r22
     dda:	57 95       	ror	r21
     ddc:	47 95       	ror	r20
     dde:	0a 94       	dec	r0
     de0:	d2 f7       	brpl	.-12     	; 0xdd6 <__pack_f+0x7e>
     de2:	81 e0       	ldi	r24, 0x01	; 1
     de4:	90 e0       	ldi	r25, 0x00	; 0
     de6:	a0 e0       	ldi	r26, 0x00	; 0
     de8:	b0 e0       	ldi	r27, 0x00	; 0
     dea:	04 c0       	rjmp	.+8      	; 0xdf4 <__pack_f+0x9c>
     dec:	88 0f       	add	r24, r24
     dee:	99 1f       	adc	r25, r25
     df0:	aa 1f       	adc	r26, r26
     df2:	bb 1f       	adc	r27, r27
     df4:	2a 95       	dec	r18
     df6:	d2 f7       	brpl	.-12     	; 0xdec <__pack_f+0x94>
     df8:	01 97       	sbiw	r24, 0x01	; 1
     dfa:	a1 09       	sbc	r26, r1
     dfc:	b1 09       	sbc	r27, r1
     dfe:	8e 21       	and	r24, r14
     e00:	9f 21       	and	r25, r15
     e02:	a0 23       	and	r26, r16
     e04:	b1 23       	and	r27, r17
     e06:	00 97       	sbiw	r24, 0x00	; 0
     e08:	a1 05       	cpc	r26, r1
     e0a:	b1 05       	cpc	r27, r1
     e0c:	21 f0       	breq	.+8      	; 0xe16 <__pack_f+0xbe>
     e0e:	81 e0       	ldi	r24, 0x01	; 1
     e10:	90 e0       	ldi	r25, 0x00	; 0
     e12:	a0 e0       	ldi	r26, 0x00	; 0
     e14:	b0 e0       	ldi	r27, 0x00	; 0
     e16:	9a 01       	movw	r18, r20
     e18:	ab 01       	movw	r20, r22
     e1a:	28 2b       	or	r18, r24
     e1c:	39 2b       	or	r19, r25
     e1e:	4a 2b       	or	r20, r26
     e20:	5b 2b       	or	r21, r27
     e22:	da 01       	movw	r26, r20
     e24:	c9 01       	movw	r24, r18
     e26:	8f 77       	andi	r24, 0x7F	; 127
     e28:	90 70       	andi	r25, 0x00	; 0
     e2a:	a0 70       	andi	r26, 0x00	; 0
     e2c:	b0 70       	andi	r27, 0x00	; 0
     e2e:	80 34       	cpi	r24, 0x40	; 64
     e30:	91 05       	cpc	r25, r1
     e32:	a1 05       	cpc	r26, r1
     e34:	b1 05       	cpc	r27, r1
     e36:	39 f4       	brne	.+14     	; 0xe46 <__pack_f+0xee>
     e38:	27 ff       	sbrs	r18, 7
     e3a:	09 c0       	rjmp	.+18     	; 0xe4e <__pack_f+0xf6>
     e3c:	20 5c       	subi	r18, 0xC0	; 192
     e3e:	3f 4f       	sbci	r19, 0xFF	; 255
     e40:	4f 4f       	sbci	r20, 0xFF	; 255
     e42:	5f 4f       	sbci	r21, 0xFF	; 255
     e44:	04 c0       	rjmp	.+8      	; 0xe4e <__pack_f+0xf6>
     e46:	21 5c       	subi	r18, 0xC1	; 193
     e48:	3f 4f       	sbci	r19, 0xFF	; 255
     e4a:	4f 4f       	sbci	r20, 0xFF	; 255
     e4c:	5f 4f       	sbci	r21, 0xFF	; 255
     e4e:	e0 e0       	ldi	r30, 0x00	; 0
     e50:	f0 e0       	ldi	r31, 0x00	; 0
     e52:	20 30       	cpi	r18, 0x00	; 0
     e54:	a0 e0       	ldi	r26, 0x00	; 0
     e56:	3a 07       	cpc	r19, r26
     e58:	a0 e0       	ldi	r26, 0x00	; 0
     e5a:	4a 07       	cpc	r20, r26
     e5c:	a0 e4       	ldi	r26, 0x40	; 64
     e5e:	5a 07       	cpc	r21, r26
     e60:	10 f0       	brcs	.+4      	; 0xe66 <__pack_f+0x10e>
     e62:	e1 e0       	ldi	r30, 0x01	; 1
     e64:	f0 e0       	ldi	r31, 0x00	; 0
     e66:	79 01       	movw	r14, r18
     e68:	8a 01       	movw	r16, r20
     e6a:	27 c0       	rjmp	.+78     	; 0xeba <__pack_f+0x162>
     e6c:	60 38       	cpi	r22, 0x80	; 128
     e6e:	71 05       	cpc	r23, r1
     e70:	64 f5       	brge	.+88     	; 0xeca <__pack_f+0x172>
     e72:	fb 01       	movw	r30, r22
     e74:	e1 58       	subi	r30, 0x81	; 129
     e76:	ff 4f       	sbci	r31, 0xFF	; 255
     e78:	d8 01       	movw	r26, r16
     e7a:	c7 01       	movw	r24, r14
     e7c:	8f 77       	andi	r24, 0x7F	; 127
     e7e:	90 70       	andi	r25, 0x00	; 0
     e80:	a0 70       	andi	r26, 0x00	; 0
     e82:	b0 70       	andi	r27, 0x00	; 0
     e84:	80 34       	cpi	r24, 0x40	; 64
     e86:	91 05       	cpc	r25, r1
     e88:	a1 05       	cpc	r26, r1
     e8a:	b1 05       	cpc	r27, r1
     e8c:	39 f4       	brne	.+14     	; 0xe9c <__pack_f+0x144>
     e8e:	e7 fe       	sbrs	r14, 7
     e90:	0d c0       	rjmp	.+26     	; 0xeac <__pack_f+0x154>
     e92:	80 e4       	ldi	r24, 0x40	; 64
     e94:	90 e0       	ldi	r25, 0x00	; 0
     e96:	a0 e0       	ldi	r26, 0x00	; 0
     e98:	b0 e0       	ldi	r27, 0x00	; 0
     e9a:	04 c0       	rjmp	.+8      	; 0xea4 <__pack_f+0x14c>
     e9c:	8f e3       	ldi	r24, 0x3F	; 63
     e9e:	90 e0       	ldi	r25, 0x00	; 0
     ea0:	a0 e0       	ldi	r26, 0x00	; 0
     ea2:	b0 e0       	ldi	r27, 0x00	; 0
     ea4:	e8 0e       	add	r14, r24
     ea6:	f9 1e       	adc	r15, r25
     ea8:	0a 1f       	adc	r16, r26
     eaa:	1b 1f       	adc	r17, r27
     eac:	17 ff       	sbrs	r17, 7
     eae:	05 c0       	rjmp	.+10     	; 0xeba <__pack_f+0x162>
     eb0:	16 95       	lsr	r17
     eb2:	07 95       	ror	r16
     eb4:	f7 94       	ror	r15
     eb6:	e7 94       	ror	r14
     eb8:	31 96       	adiw	r30, 0x01	; 1
     eba:	87 e0       	ldi	r24, 0x07	; 7
     ebc:	16 95       	lsr	r17
     ebe:	07 95       	ror	r16
     ec0:	f7 94       	ror	r15
     ec2:	e7 94       	ror	r14
     ec4:	8a 95       	dec	r24
     ec6:	d1 f7       	brne	.-12     	; 0xebc <__pack_f+0x164>
     ec8:	05 c0       	rjmp	.+10     	; 0xed4 <__pack_f+0x17c>
     eca:	ee 24       	eor	r14, r14
     ecc:	ff 24       	eor	r15, r15
     ece:	87 01       	movw	r16, r14
     ed0:	ef ef       	ldi	r30, 0xFF	; 255
     ed2:	f0 e0       	ldi	r31, 0x00	; 0
     ed4:	6e 2f       	mov	r22, r30
     ed6:	67 95       	ror	r22
     ed8:	66 27       	eor	r22, r22
     eda:	67 95       	ror	r22
     edc:	90 2f       	mov	r25, r16
     ede:	9f 77       	andi	r25, 0x7F	; 127
     ee0:	d7 94       	ror	r13
     ee2:	dd 24       	eor	r13, r13
     ee4:	d7 94       	ror	r13
     ee6:	8e 2f       	mov	r24, r30
     ee8:	86 95       	lsr	r24
     eea:	49 2f       	mov	r20, r25
     eec:	46 2b       	or	r20, r22
     eee:	58 2f       	mov	r21, r24
     ef0:	5d 29       	or	r21, r13
     ef2:	b7 01       	movw	r22, r14
     ef4:	ca 01       	movw	r24, r20
     ef6:	1f 91       	pop	r17
     ef8:	0f 91       	pop	r16
     efa:	ff 90       	pop	r15
     efc:	ef 90       	pop	r14
     efe:	df 90       	pop	r13
     f00:	08 95       	ret

00000f02 <__unpack_f>:
     f02:	fc 01       	movw	r30, r24
     f04:	db 01       	movw	r26, r22
     f06:	40 81       	ld	r20, Z
     f08:	51 81       	ldd	r21, Z+1	; 0x01
     f0a:	22 81       	ldd	r18, Z+2	; 0x02
     f0c:	62 2f       	mov	r22, r18
     f0e:	6f 77       	andi	r22, 0x7F	; 127
     f10:	70 e0       	ldi	r23, 0x00	; 0
     f12:	22 1f       	adc	r18, r18
     f14:	22 27       	eor	r18, r18
     f16:	22 1f       	adc	r18, r18
     f18:	93 81       	ldd	r25, Z+3	; 0x03
     f1a:	89 2f       	mov	r24, r25
     f1c:	88 0f       	add	r24, r24
     f1e:	82 2b       	or	r24, r18
     f20:	28 2f       	mov	r18, r24
     f22:	30 e0       	ldi	r19, 0x00	; 0
     f24:	99 1f       	adc	r25, r25
     f26:	99 27       	eor	r25, r25
     f28:	99 1f       	adc	r25, r25
     f2a:	11 96       	adiw	r26, 0x01	; 1
     f2c:	9c 93       	st	X, r25
     f2e:	11 97       	sbiw	r26, 0x01	; 1
     f30:	21 15       	cp	r18, r1
     f32:	31 05       	cpc	r19, r1
     f34:	a9 f5       	brne	.+106    	; 0xfa0 <__unpack_f+0x9e>
     f36:	41 15       	cp	r20, r1
     f38:	51 05       	cpc	r21, r1
     f3a:	61 05       	cpc	r22, r1
     f3c:	71 05       	cpc	r23, r1
     f3e:	11 f4       	brne	.+4      	; 0xf44 <__unpack_f+0x42>
     f40:	82 e0       	ldi	r24, 0x02	; 2
     f42:	37 c0       	rjmp	.+110    	; 0xfb2 <__unpack_f+0xb0>
     f44:	82 e8       	ldi	r24, 0x82	; 130
     f46:	9f ef       	ldi	r25, 0xFF	; 255
     f48:	13 96       	adiw	r26, 0x03	; 3
     f4a:	9c 93       	st	X, r25
     f4c:	8e 93       	st	-X, r24
     f4e:	12 97       	sbiw	r26, 0x02	; 2
     f50:	9a 01       	movw	r18, r20
     f52:	ab 01       	movw	r20, r22
     f54:	67 e0       	ldi	r22, 0x07	; 7
     f56:	22 0f       	add	r18, r18
     f58:	33 1f       	adc	r19, r19
     f5a:	44 1f       	adc	r20, r20
     f5c:	55 1f       	adc	r21, r21
     f5e:	6a 95       	dec	r22
     f60:	d1 f7       	brne	.-12     	; 0xf56 <__unpack_f+0x54>
     f62:	83 e0       	ldi	r24, 0x03	; 3
     f64:	8c 93       	st	X, r24
     f66:	0d c0       	rjmp	.+26     	; 0xf82 <__unpack_f+0x80>
     f68:	22 0f       	add	r18, r18
     f6a:	33 1f       	adc	r19, r19
     f6c:	44 1f       	adc	r20, r20
     f6e:	55 1f       	adc	r21, r21
     f70:	12 96       	adiw	r26, 0x02	; 2
     f72:	8d 91       	ld	r24, X+
     f74:	9c 91       	ld	r25, X
     f76:	13 97       	sbiw	r26, 0x03	; 3
     f78:	01 97       	sbiw	r24, 0x01	; 1
     f7a:	13 96       	adiw	r26, 0x03	; 3
     f7c:	9c 93       	st	X, r25
     f7e:	8e 93       	st	-X, r24
     f80:	12 97       	sbiw	r26, 0x02	; 2
     f82:	20 30       	cpi	r18, 0x00	; 0
     f84:	80 e0       	ldi	r24, 0x00	; 0
     f86:	38 07       	cpc	r19, r24
     f88:	80 e0       	ldi	r24, 0x00	; 0
     f8a:	48 07       	cpc	r20, r24
     f8c:	80 e4       	ldi	r24, 0x40	; 64
     f8e:	58 07       	cpc	r21, r24
     f90:	58 f3       	brcs	.-42     	; 0xf68 <__unpack_f+0x66>
     f92:	14 96       	adiw	r26, 0x04	; 4
     f94:	2d 93       	st	X+, r18
     f96:	3d 93       	st	X+, r19
     f98:	4d 93       	st	X+, r20
     f9a:	5c 93       	st	X, r21
     f9c:	17 97       	sbiw	r26, 0x07	; 7
     f9e:	08 95       	ret
     fa0:	2f 3f       	cpi	r18, 0xFF	; 255
     fa2:	31 05       	cpc	r19, r1
     fa4:	79 f4       	brne	.+30     	; 0xfc4 <__unpack_f+0xc2>
     fa6:	41 15       	cp	r20, r1
     fa8:	51 05       	cpc	r21, r1
     faa:	61 05       	cpc	r22, r1
     fac:	71 05       	cpc	r23, r1
     fae:	19 f4       	brne	.+6      	; 0xfb6 <__unpack_f+0xb4>
     fb0:	84 e0       	ldi	r24, 0x04	; 4
     fb2:	8c 93       	st	X, r24
     fb4:	08 95       	ret
     fb6:	64 ff       	sbrs	r22, 4
     fb8:	03 c0       	rjmp	.+6      	; 0xfc0 <__unpack_f+0xbe>
     fba:	81 e0       	ldi	r24, 0x01	; 1
     fbc:	8c 93       	st	X, r24
     fbe:	12 c0       	rjmp	.+36     	; 0xfe4 <__unpack_f+0xe2>
     fc0:	1c 92       	st	X, r1
     fc2:	10 c0       	rjmp	.+32     	; 0xfe4 <__unpack_f+0xe2>
     fc4:	2f 57       	subi	r18, 0x7F	; 127
     fc6:	30 40       	sbci	r19, 0x00	; 0
     fc8:	13 96       	adiw	r26, 0x03	; 3
     fca:	3c 93       	st	X, r19
     fcc:	2e 93       	st	-X, r18
     fce:	12 97       	sbiw	r26, 0x02	; 2
     fd0:	83 e0       	ldi	r24, 0x03	; 3
     fd2:	8c 93       	st	X, r24
     fd4:	87 e0       	ldi	r24, 0x07	; 7
     fd6:	44 0f       	add	r20, r20
     fd8:	55 1f       	adc	r21, r21
     fda:	66 1f       	adc	r22, r22
     fdc:	77 1f       	adc	r23, r23
     fde:	8a 95       	dec	r24
     fe0:	d1 f7       	brne	.-12     	; 0xfd6 <__unpack_f+0xd4>
     fe2:	70 64       	ori	r23, 0x40	; 64
     fe4:	14 96       	adiw	r26, 0x04	; 4
     fe6:	4d 93       	st	X+, r20
     fe8:	5d 93       	st	X+, r21
     fea:	6d 93       	st	X+, r22
     fec:	7c 93       	st	X, r23
     fee:	17 97       	sbiw	r26, 0x07	; 7
     ff0:	08 95       	ret

00000ff2 <__fpcmp_parts_f>:
     ff2:	1f 93       	push	r17
     ff4:	dc 01       	movw	r26, r24
     ff6:	fb 01       	movw	r30, r22
     ff8:	9c 91       	ld	r25, X
     ffa:	92 30       	cpi	r25, 0x02	; 2
     ffc:	08 f4       	brcc	.+2      	; 0x1000 <__fpcmp_parts_f+0xe>
     ffe:	47 c0       	rjmp	.+142    	; 0x108e <__fpcmp_parts_f+0x9c>
    1000:	80 81       	ld	r24, Z
    1002:	82 30       	cpi	r24, 0x02	; 2
    1004:	08 f4       	brcc	.+2      	; 0x1008 <__fpcmp_parts_f+0x16>
    1006:	43 c0       	rjmp	.+134    	; 0x108e <__fpcmp_parts_f+0x9c>
    1008:	94 30       	cpi	r25, 0x04	; 4
    100a:	51 f4       	brne	.+20     	; 0x1020 <__fpcmp_parts_f+0x2e>
    100c:	11 96       	adiw	r26, 0x01	; 1
    100e:	1c 91       	ld	r17, X
    1010:	84 30       	cpi	r24, 0x04	; 4
    1012:	99 f5       	brne	.+102    	; 0x107a <__fpcmp_parts_f+0x88>
    1014:	81 81       	ldd	r24, Z+1	; 0x01
    1016:	68 2f       	mov	r22, r24
    1018:	70 e0       	ldi	r23, 0x00	; 0
    101a:	61 1b       	sub	r22, r17
    101c:	71 09       	sbc	r23, r1
    101e:	3f c0       	rjmp	.+126    	; 0x109e <__fpcmp_parts_f+0xac>
    1020:	84 30       	cpi	r24, 0x04	; 4
    1022:	21 f0       	breq	.+8      	; 0x102c <__fpcmp_parts_f+0x3a>
    1024:	92 30       	cpi	r25, 0x02	; 2
    1026:	31 f4       	brne	.+12     	; 0x1034 <__fpcmp_parts_f+0x42>
    1028:	82 30       	cpi	r24, 0x02	; 2
    102a:	b9 f1       	breq	.+110    	; 0x109a <__fpcmp_parts_f+0xa8>
    102c:	81 81       	ldd	r24, Z+1	; 0x01
    102e:	88 23       	and	r24, r24
    1030:	89 f1       	breq	.+98     	; 0x1094 <__fpcmp_parts_f+0xa2>
    1032:	2d c0       	rjmp	.+90     	; 0x108e <__fpcmp_parts_f+0x9c>
    1034:	11 96       	adiw	r26, 0x01	; 1
    1036:	1c 91       	ld	r17, X
    1038:	11 97       	sbiw	r26, 0x01	; 1
    103a:	82 30       	cpi	r24, 0x02	; 2
    103c:	f1 f0       	breq	.+60     	; 0x107a <__fpcmp_parts_f+0x88>
    103e:	81 81       	ldd	r24, Z+1	; 0x01
    1040:	18 17       	cp	r17, r24
    1042:	d9 f4       	brne	.+54     	; 0x107a <__fpcmp_parts_f+0x88>
    1044:	12 96       	adiw	r26, 0x02	; 2
    1046:	2d 91       	ld	r18, X+
    1048:	3c 91       	ld	r19, X
    104a:	13 97       	sbiw	r26, 0x03	; 3
    104c:	82 81       	ldd	r24, Z+2	; 0x02
    104e:	93 81       	ldd	r25, Z+3	; 0x03
    1050:	82 17       	cp	r24, r18
    1052:	93 07       	cpc	r25, r19
    1054:	94 f0       	brlt	.+36     	; 0x107a <__fpcmp_parts_f+0x88>
    1056:	28 17       	cp	r18, r24
    1058:	39 07       	cpc	r19, r25
    105a:	bc f0       	brlt	.+46     	; 0x108a <__fpcmp_parts_f+0x98>
    105c:	14 96       	adiw	r26, 0x04	; 4
    105e:	8d 91       	ld	r24, X+
    1060:	9d 91       	ld	r25, X+
    1062:	0d 90       	ld	r0, X+
    1064:	bc 91       	ld	r27, X
    1066:	a0 2d       	mov	r26, r0
    1068:	24 81       	ldd	r18, Z+4	; 0x04
    106a:	35 81       	ldd	r19, Z+5	; 0x05
    106c:	46 81       	ldd	r20, Z+6	; 0x06
    106e:	57 81       	ldd	r21, Z+7	; 0x07
    1070:	28 17       	cp	r18, r24
    1072:	39 07       	cpc	r19, r25
    1074:	4a 07       	cpc	r20, r26
    1076:	5b 07       	cpc	r21, r27
    1078:	18 f4       	brcc	.+6      	; 0x1080 <__fpcmp_parts_f+0x8e>
    107a:	11 23       	and	r17, r17
    107c:	41 f0       	breq	.+16     	; 0x108e <__fpcmp_parts_f+0x9c>
    107e:	0a c0       	rjmp	.+20     	; 0x1094 <__fpcmp_parts_f+0xa2>
    1080:	82 17       	cp	r24, r18
    1082:	93 07       	cpc	r25, r19
    1084:	a4 07       	cpc	r26, r20
    1086:	b5 07       	cpc	r27, r21
    1088:	40 f4       	brcc	.+16     	; 0x109a <__fpcmp_parts_f+0xa8>
    108a:	11 23       	and	r17, r17
    108c:	19 f0       	breq	.+6      	; 0x1094 <__fpcmp_parts_f+0xa2>
    108e:	61 e0       	ldi	r22, 0x01	; 1
    1090:	70 e0       	ldi	r23, 0x00	; 0
    1092:	05 c0       	rjmp	.+10     	; 0x109e <__fpcmp_parts_f+0xac>
    1094:	6f ef       	ldi	r22, 0xFF	; 255
    1096:	7f ef       	ldi	r23, 0xFF	; 255
    1098:	02 c0       	rjmp	.+4      	; 0x109e <__fpcmp_parts_f+0xac>
    109a:	60 e0       	ldi	r22, 0x00	; 0
    109c:	70 e0       	ldi	r23, 0x00	; 0
    109e:	cb 01       	movw	r24, r22
    10a0:	1f 91       	pop	r17
    10a2:	08 95       	ret

000010a4 <USART_Init>:
#define BAUDRATE 9600
#endif

/* Initialize USART */
void USART_Init(unsigned long baud)
{
    10a4:	df 93       	push	r29
    10a6:	cf 93       	push	r28
    10a8:	00 d0       	rcall	.+0      	; 0x10aa <USART_Init+0x6>
    10aa:	00 d0       	rcall	.+0      	; 0x10ac <USART_Init+0x8>
    10ac:	00 d0       	rcall	.+0      	; 0x10ae <USART_Init+0xa>
    10ae:	cd b7       	in	r28, 0x3d	; 61
    10b0:	de b7       	in	r29, 0x3e	; 62
    10b2:	6b 83       	std	Y+3, r22	; 0x03
    10b4:	7c 83       	std	Y+4, r23	; 0x04
    10b6:	8d 83       	std	Y+5, r24	; 0x05
    10b8:	9e 83       	std	Y+6, r25	; 0x06
    unsigned int ubrr = (F_CPU / (16UL * baud)) - 1;
    10ba:	8b 81       	ldd	r24, Y+3	; 0x03
    10bc:	9c 81       	ldd	r25, Y+4	; 0x04
    10be:	ad 81       	ldd	r26, Y+5	; 0x05
    10c0:	be 81       	ldd	r27, Y+6	; 0x06
    10c2:	88 0f       	add	r24, r24
    10c4:	99 1f       	adc	r25, r25
    10c6:	aa 1f       	adc	r26, r26
    10c8:	bb 1f       	adc	r27, r27
    10ca:	88 0f       	add	r24, r24
    10cc:	99 1f       	adc	r25, r25
    10ce:	aa 1f       	adc	r26, r26
    10d0:	bb 1f       	adc	r27, r27
    10d2:	88 0f       	add	r24, r24
    10d4:	99 1f       	adc	r25, r25
    10d6:	aa 1f       	adc	r26, r26
    10d8:	bb 1f       	adc	r27, r27
    10da:	88 0f       	add	r24, r24
    10dc:	99 1f       	adc	r25, r25
    10de:	aa 1f       	adc	r26, r26
    10e0:	bb 1f       	adc	r27, r27
    10e2:	9c 01       	movw	r18, r24
    10e4:	ad 01       	movw	r20, r26
    10e6:	80 e0       	ldi	r24, 0x00	; 0
    10e8:	94 e2       	ldi	r25, 0x24	; 36
    10ea:	a4 ef       	ldi	r26, 0xF4	; 244
    10ec:	b0 e0       	ldi	r27, 0x00	; 0
    10ee:	bc 01       	movw	r22, r24
    10f0:	cd 01       	movw	r24, r26
    10f2:	0e 94 1b 2e 	call	0x5c36	; 0x5c36 <__udivmodsi4>
    10f6:	da 01       	movw	r26, r20
    10f8:	c9 01       	movw	r24, r18
    10fa:	01 97       	sbiw	r24, 0x01	; 1
    10fc:	9a 83       	std	Y+2, r25	; 0x02
    10fe:	89 83       	std	Y+1, r24	; 0x01

    UBRRH = (unsigned char)(ubrr >> 8);
    1100:	e0 e4       	ldi	r30, 0x40	; 64
    1102:	f0 e0       	ldi	r31, 0x00	; 0
    1104:	89 81       	ldd	r24, Y+1	; 0x01
    1106:	9a 81       	ldd	r25, Y+2	; 0x02
    1108:	89 2f       	mov	r24, r25
    110a:	99 27       	eor	r25, r25
    110c:	80 83       	st	Z, r24
    UBRRL = (unsigned char)ubrr;
    110e:	e9 e2       	ldi	r30, 0x29	; 41
    1110:	f0 e0       	ldi	r31, 0x00	; 0
    1112:	89 81       	ldd	r24, Y+1	; 0x01
    1114:	80 83       	st	Z, r24

    UCSRB = (1 << RXEN) | (1 << TXEN);   // Enable RX & TX
    1116:	ea e2       	ldi	r30, 0x2A	; 42
    1118:	f0 e0       	ldi	r31, 0x00	; 0
    111a:	88 e1       	ldi	r24, 0x18	; 24
    111c:	80 83       	st	Z, r24
    UCSRC = (1 << URSEL) | (1 << UCSZ0) | (1 << UCSZ1); // 8-bit data
    111e:	e0 e4       	ldi	r30, 0x40	; 64
    1120:	f0 e0       	ldi	r31, 0x00	; 0
    1122:	86 e8       	ldi	r24, 0x86	; 134
    1124:	80 83       	st	Z, r24
}
    1126:	26 96       	adiw	r28, 0x06	; 6
    1128:	0f b6       	in	r0, 0x3f	; 63
    112a:	f8 94       	cli
    112c:	de bf       	out	0x3e, r29	; 62
    112e:	0f be       	out	0x3f, r0	; 63
    1130:	cd bf       	out	0x3d, r28	; 61
    1132:	cf 91       	pop	r28
    1134:	df 91       	pop	r29
    1136:	08 95       	ret

00001138 <USART_RxChar>:

/* Receive character */
char USART_RxChar()
{
    1138:	df 93       	push	r29
    113a:	cf 93       	push	r28
    113c:	cd b7       	in	r28, 0x3d	; 61
    113e:	de b7       	in	r29, 0x3e	; 62
    while (!(UCSRA & (1 << RXC)));
    1140:	eb e2       	ldi	r30, 0x2B	; 43
    1142:	f0 e0       	ldi	r31, 0x00	; 0
    1144:	80 81       	ld	r24, Z
    1146:	88 23       	and	r24, r24
    1148:	dc f7       	brge	.-10     	; 0x1140 <USART_RxChar+0x8>
    return UDR;
    114a:	ec e2       	ldi	r30, 0x2C	; 44
    114c:	f0 e0       	ldi	r31, 0x00	; 0
    114e:	80 81       	ld	r24, Z
}
    1150:	cf 91       	pop	r28
    1152:	df 91       	pop	r29
    1154:	08 95       	ret

00001156 <USART_TxChar>:

/* Transmit character */
void USART_TxChar(char data)
{
    1156:	df 93       	push	r29
    1158:	cf 93       	push	r28
    115a:	0f 92       	push	r0
    115c:	cd b7       	in	r28, 0x3d	; 61
    115e:	de b7       	in	r29, 0x3e	; 62
    1160:	89 83       	std	Y+1, r24	; 0x01
    while (!(UCSRA & (1 << UDRE)));
    1162:	eb e2       	ldi	r30, 0x2B	; 43
    1164:	f0 e0       	ldi	r31, 0x00	; 0
    1166:	80 81       	ld	r24, Z
    1168:	88 2f       	mov	r24, r24
    116a:	90 e0       	ldi	r25, 0x00	; 0
    116c:	80 72       	andi	r24, 0x20	; 32
    116e:	90 70       	andi	r25, 0x00	; 0
    1170:	00 97       	sbiw	r24, 0x00	; 0
    1172:	b9 f3       	breq	.-18     	; 0x1162 <USART_TxChar+0xc>
    UDR = data;
    1174:	ec e2       	ldi	r30, 0x2C	; 44
    1176:	f0 e0       	ldi	r31, 0x00	; 0
    1178:	89 81       	ldd	r24, Y+1	; 0x01
    117a:	80 83       	st	Z, r24
}
    117c:	0f 90       	pop	r0
    117e:	cf 91       	pop	r28
    1180:	df 91       	pop	r29
    1182:	08 95       	ret

00001184 <USART_SendString>:

/* Send string */
void USART_SendString(char *str)
{
    1184:	df 93       	push	r29
    1186:	cf 93       	push	r28
    1188:	00 d0       	rcall	.+0      	; 0x118a <USART_SendString+0x6>
    118a:	cd b7       	in	r28, 0x3d	; 61
    118c:	de b7       	in	r29, 0x3e	; 62
    118e:	9a 83       	std	Y+2, r25	; 0x02
    1190:	89 83       	std	Y+1, r24	; 0x01
    1192:	0b c0       	rjmp	.+22     	; 0x11aa <USART_SendString+0x26>
    while (*str)
    {
        USART_TxChar(*str++);
    1194:	e9 81       	ldd	r30, Y+1	; 0x01
    1196:	fa 81       	ldd	r31, Y+2	; 0x02
    1198:	20 81       	ld	r18, Z
    119a:	89 81       	ldd	r24, Y+1	; 0x01
    119c:	9a 81       	ldd	r25, Y+2	; 0x02
    119e:	01 96       	adiw	r24, 0x01	; 1
    11a0:	9a 83       	std	Y+2, r25	; 0x02
    11a2:	89 83       	std	Y+1, r24	; 0x01
    11a4:	82 2f       	mov	r24, r18
    11a6:	0e 94 ab 08 	call	0x1156	; 0x1156 <USART_TxChar>
}

/* Send string */
void USART_SendString(char *str)
{
    while (*str)
    11aa:	e9 81       	ldd	r30, Y+1	; 0x01
    11ac:	fa 81       	ldd	r31, Y+2	; 0x02
    11ae:	80 81       	ld	r24, Z
    11b0:	88 23       	and	r24, r24
    11b2:	81 f7       	brne	.-32     	; 0x1194 <USART_SendString+0x10>
    {
        USART_TxChar(*str++);
    }
}
    11b4:	0f 90       	pop	r0
    11b6:	0f 90       	pop	r0
    11b8:	cf 91       	pop	r28
    11ba:	df 91       	pop	r29
    11bc:	08 95       	ret

000011be <USART_SendFloat>:

/* Send float helper */
static void USART_SendFloat(float value)
{
    11be:	0f 93       	push	r16
    11c0:	1f 93       	push	r17
    11c2:	df 93       	push	r29
    11c4:	cf 93       	push	r28
    11c6:	cd b7       	in	r28, 0x3d	; 61
    11c8:	de b7       	in	r29, 0x3e	; 62
    11ca:	68 97       	sbiw	r28, 0x18	; 24
    11cc:	0f b6       	in	r0, 0x3f	; 63
    11ce:	f8 94       	cli
    11d0:	de bf       	out	0x3e, r29	; 62
    11d2:	0f be       	out	0x3f, r0	; 63
    11d4:	cd bf       	out	0x3d, r28	; 61
    11d6:	6d 8b       	std	Y+21, r22	; 0x15
    11d8:	7e 8b       	std	Y+22, r23	; 0x16
    11da:	8f 8b       	std	Y+23, r24	; 0x17
    11dc:	98 8f       	std	Y+24, r25	; 0x18
    char buffer[20];
    dtostrf(value, 6, 2, buffer);  // width=6, 2 decimal places
    11de:	8d 89       	ldd	r24, Y+21	; 0x15
    11e0:	9e 89       	ldd	r25, Y+22	; 0x16
    11e2:	af 89       	ldd	r26, Y+23	; 0x17
    11e4:	b8 8d       	ldd	r27, Y+24	; 0x18
    11e6:	bc 01       	movw	r22, r24
    11e8:	cd 01       	movw	r24, r26
    11ea:	46 e0       	ldi	r20, 0x06	; 6
    11ec:	22 e0       	ldi	r18, 0x02	; 2
    11ee:	fe 01       	movw	r30, r28
    11f0:	31 96       	adiw	r30, 0x01	; 1
    11f2:	8f 01       	movw	r16, r30
    11f4:	0e 94 74 2e 	call	0x5ce8	; 0x5ce8 <dtostrf>
    USART_SendString(buffer);
    11f8:	ce 01       	movw	r24, r28
    11fa:	01 96       	adiw	r24, 0x01	; 1
    11fc:	0e 94 c2 08 	call	0x1184	; 0x1184 <USART_SendString>
}
    1200:	68 96       	adiw	r28, 0x18	; 24
    1202:	0f b6       	in	r0, 0x3f	; 63
    1204:	f8 94       	cli
    1206:	de bf       	out	0x3e, r29	; 62
    1208:	0f be       	out	0x3f, r0	; 63
    120a:	cd bf       	out	0x3d, r28	; 61
    120c:	cf 91       	pop	r28
    120e:	df 91       	pop	r29
    1210:	1f 91       	pop	r17
    1212:	0f 91       	pop	r16
    1214:	08 95       	ret

00001216 <USART_LogMPUData>:

/* Log MPU data nicely */
void USART_LogMPUData(float Ax, float Ay, float Az,
                      float Gx, float Gy, float Gz)
{
    1216:	af 92       	push	r10
    1218:	bf 92       	push	r11
    121a:	cf 92       	push	r12
    121c:	df 92       	push	r13
    121e:	ef 92       	push	r14
    1220:	ff 92       	push	r15
    1222:	0f 93       	push	r16
    1224:	1f 93       	push	r17
    1226:	df 93       	push	r29
    1228:	cf 93       	push	r28
    122a:	cd b7       	in	r28, 0x3d	; 61
    122c:	de b7       	in	r29, 0x3e	; 62
    122e:	60 97       	sbiw	r28, 0x10	; 16
    1230:	0f b6       	in	r0, 0x3f	; 63
    1232:	f8 94       	cli
    1234:	de bf       	out	0x3e, r29	; 62
    1236:	0f be       	out	0x3f, r0	; 63
    1238:	cd bf       	out	0x3d, r28	; 61
    123a:	69 83       	std	Y+1, r22	; 0x01
    123c:	7a 83       	std	Y+2, r23	; 0x02
    123e:	8b 83       	std	Y+3, r24	; 0x03
    1240:	9c 83       	std	Y+4, r25	; 0x04
    1242:	2d 83       	std	Y+5, r18	; 0x05
    1244:	3e 83       	std	Y+6, r19	; 0x06
    1246:	4f 83       	std	Y+7, r20	; 0x07
    1248:	58 87       	std	Y+8, r21	; 0x08
    124a:	e9 86       	std	Y+9, r14	; 0x09
    124c:	fa 86       	std	Y+10, r15	; 0x0a
    124e:	0b 87       	std	Y+11, r16	; 0x0b
    1250:	1c 87       	std	Y+12, r17	; 0x0c
    1252:	ad 86       	std	Y+13, r10	; 0x0d
    1254:	be 86       	std	Y+14, r11	; 0x0e
    1256:	cf 86       	std	Y+15, r12	; 0x0f
    1258:	d8 8a       	std	Y+16, r13	; 0x10
    USART_SendString("ACC: ");
    125a:	80 e6       	ldi	r24, 0x60	; 96
    125c:	90 e0       	ldi	r25, 0x00	; 0
    125e:	0e 94 c2 08 	call	0x1184	; 0x1184 <USART_SendString>
    USART_SendFloat(Ax);
    1262:	89 81       	ldd	r24, Y+1	; 0x01
    1264:	9a 81       	ldd	r25, Y+2	; 0x02
    1266:	ab 81       	ldd	r26, Y+3	; 0x03
    1268:	bc 81       	ldd	r27, Y+4	; 0x04
    126a:	bc 01       	movw	r22, r24
    126c:	cd 01       	movw	r24, r26
    126e:	0e 94 df 08 	call	0x11be	; 0x11be <USART_SendFloat>
    USART_SendString(" ");
    1272:	86 e6       	ldi	r24, 0x66	; 102
    1274:	90 e0       	ldi	r25, 0x00	; 0
    1276:	0e 94 c2 08 	call	0x1184	; 0x1184 <USART_SendString>
    USART_SendFloat(Ay);
    127a:	8d 81       	ldd	r24, Y+5	; 0x05
    127c:	9e 81       	ldd	r25, Y+6	; 0x06
    127e:	af 81       	ldd	r26, Y+7	; 0x07
    1280:	b8 85       	ldd	r27, Y+8	; 0x08
    1282:	bc 01       	movw	r22, r24
    1284:	cd 01       	movw	r24, r26
    1286:	0e 94 df 08 	call	0x11be	; 0x11be <USART_SendFloat>
    USART_SendString(" ");
    128a:	86 e6       	ldi	r24, 0x66	; 102
    128c:	90 e0       	ldi	r25, 0x00	; 0
    128e:	0e 94 c2 08 	call	0x1184	; 0x1184 <USART_SendString>
    USART_SendFloat(Az);
    1292:	89 85       	ldd	r24, Y+9	; 0x09
    1294:	9a 85       	ldd	r25, Y+10	; 0x0a
    1296:	ab 85       	ldd	r26, Y+11	; 0x0b
    1298:	bc 85       	ldd	r27, Y+12	; 0x0c
    129a:	bc 01       	movw	r22, r24
    129c:	cd 01       	movw	r24, r26
    129e:	0e 94 df 08 	call	0x11be	; 0x11be <USART_SendFloat>

    USART_SendString("  GYRO: ");
    12a2:	88 e6       	ldi	r24, 0x68	; 104
    12a4:	90 e0       	ldi	r25, 0x00	; 0
    12a6:	0e 94 c2 08 	call	0x1184	; 0x1184 <USART_SendString>
    USART_SendFloat(Gx);
    12aa:	8d 85       	ldd	r24, Y+13	; 0x0d
    12ac:	9e 85       	ldd	r25, Y+14	; 0x0e
    12ae:	af 85       	ldd	r26, Y+15	; 0x0f
    12b0:	b8 89       	ldd	r27, Y+16	; 0x10
    12b2:	bc 01       	movw	r22, r24
    12b4:	cd 01       	movw	r24, r26
    12b6:	0e 94 df 08 	call	0x11be	; 0x11be <USART_SendFloat>
    USART_SendString(" ");
    12ba:	86 e6       	ldi	r24, 0x66	; 102
    12bc:	90 e0       	ldi	r25, 0x00	; 0
    12be:	0e 94 c2 08 	call	0x1184	; 0x1184 <USART_SendString>
    USART_SendFloat(Gy);
    12c2:	8d 8d       	ldd	r24, Y+29	; 0x1d
    12c4:	9e 8d       	ldd	r25, Y+30	; 0x1e
    12c6:	af 8d       	ldd	r26, Y+31	; 0x1f
    12c8:	b8 a1       	ldd	r27, Y+32	; 0x20
    12ca:	bc 01       	movw	r22, r24
    12cc:	cd 01       	movw	r24, r26
    12ce:	0e 94 df 08 	call	0x11be	; 0x11be <USART_SendFloat>
    USART_SendString(" ");
    12d2:	86 e6       	ldi	r24, 0x66	; 102
    12d4:	90 e0       	ldi	r25, 0x00	; 0
    12d6:	0e 94 c2 08 	call	0x1184	; 0x1184 <USART_SendString>
    USART_SendFloat(Gz);
    12da:	89 a1       	ldd	r24, Y+33	; 0x21
    12dc:	9a a1       	ldd	r25, Y+34	; 0x22
    12de:	ab a1       	ldd	r26, Y+35	; 0x23
    12e0:	bc a1       	ldd	r27, Y+36	; 0x24
    12e2:	bc 01       	movw	r22, r24
    12e4:	cd 01       	movw	r24, r26
    12e6:	0e 94 df 08 	call	0x11be	; 0x11be <USART_SendFloat>

    USART_SendString("\r\n");
    12ea:	81 e7       	ldi	r24, 0x71	; 113
    12ec:	90 e0       	ldi	r25, 0x00	; 0
    12ee:	0e 94 c2 08 	call	0x1184	; 0x1184 <USART_SendString>
}
    12f2:	60 96       	adiw	r28, 0x10	; 16
    12f4:	0f b6       	in	r0, 0x3f	; 63
    12f6:	f8 94       	cli
    12f8:	de bf       	out	0x3e, r29	; 62
    12fa:	0f be       	out	0x3f, r0	; 63
    12fc:	cd bf       	out	0x3d, r28	; 61
    12fe:	cf 91       	pop	r28
    1300:	df 91       	pop	r29
    1302:	1f 91       	pop	r17
    1304:	0f 91       	pop	r16
    1306:	ff 90       	pop	r15
    1308:	ef 90       	pop	r14
    130a:	df 90       	pop	r13
    130c:	cf 90       	pop	r12
    130e:	bf 90       	pop	r11
    1310:	af 90       	pop	r10
    1312:	08 95       	ret

00001314 <USART_SendNumber>:

void USART_SendNumber(u32 num)
{
    1314:	df 93       	push	r29
    1316:	cf 93       	push	r28
    1318:	cd b7       	in	r28, 0x3d	; 61
    131a:	de b7       	in	r29, 0x3e	; 62
    131c:	60 97       	sbiw	r28, 0x10	; 16
    131e:	0f b6       	in	r0, 0x3f	; 63
    1320:	f8 94       	cli
    1322:	de bf       	out	0x3e, r29	; 62
    1324:	0f be       	out	0x3f, r0	; 63
    1326:	cd bf       	out	0x3d, r28	; 61
    1328:	6d 87       	std	Y+13, r22	; 0x0d
    132a:	7e 87       	std	Y+14, r23	; 0x0e
    132c:	8f 87       	std	Y+15, r24	; 0x0f
    132e:	98 8b       	std	Y+16, r25	; 0x10
    char str[12];   // enough for -2147483648
    sprintf(str, "%lu", num);  // signed long
    1330:	8d b7       	in	r24, 0x3d	; 61
    1332:	9e b7       	in	r25, 0x3e	; 62
    1334:	08 97       	sbiw	r24, 0x08	; 8
    1336:	0f b6       	in	r0, 0x3f	; 63
    1338:	f8 94       	cli
    133a:	9e bf       	out	0x3e, r25	; 62
    133c:	0f be       	out	0x3f, r0	; 63
    133e:	8d bf       	out	0x3d, r24	; 61
    1340:	ed b7       	in	r30, 0x3d	; 61
    1342:	fe b7       	in	r31, 0x3e	; 62
    1344:	31 96       	adiw	r30, 0x01	; 1
    1346:	ce 01       	movw	r24, r28
    1348:	01 96       	adiw	r24, 0x01	; 1
    134a:	91 83       	std	Z+1, r25	; 0x01
    134c:	80 83       	st	Z, r24
    134e:	84 e7       	ldi	r24, 0x74	; 116
    1350:	90 e0       	ldi	r25, 0x00	; 0
    1352:	93 83       	std	Z+3, r25	; 0x03
    1354:	82 83       	std	Z+2, r24	; 0x02
    1356:	8d 85       	ldd	r24, Y+13	; 0x0d
    1358:	9e 85       	ldd	r25, Y+14	; 0x0e
    135a:	af 85       	ldd	r26, Y+15	; 0x0f
    135c:	b8 89       	ldd	r27, Y+16	; 0x10
    135e:	84 83       	std	Z+4, r24	; 0x04
    1360:	95 83       	std	Z+5, r25	; 0x05
    1362:	a6 83       	std	Z+6, r26	; 0x06
    1364:	b7 83       	std	Z+7, r27	; 0x07
    1366:	0e 94 b6 2e 	call	0x5d6c	; 0x5d6c <sprintf>
    136a:	8d b7       	in	r24, 0x3d	; 61
    136c:	9e b7       	in	r25, 0x3e	; 62
    136e:	08 96       	adiw	r24, 0x08	; 8
    1370:	0f b6       	in	r0, 0x3f	; 63
    1372:	f8 94       	cli
    1374:	9e bf       	out	0x3e, r25	; 62
    1376:	0f be       	out	0x3f, r0	; 63
    1378:	8d bf       	out	0x3d, r24	; 61
    USART_SendString(str);
    137a:	ce 01       	movw	r24, r28
    137c:	01 96       	adiw	r24, 0x01	; 1
    137e:	0e 94 c2 08 	call	0x1184	; 0x1184 <USART_SendString>
    USART_SendString("\r\n");
    1382:	81 e7       	ldi	r24, 0x71	; 113
    1384:	90 e0       	ldi	r25, 0x00	; 0
    1386:	0e 94 c2 08 	call	0x1184	; 0x1184 <USART_SendString>
}
    138a:	60 96       	adiw	r28, 0x10	; 16
    138c:	0f b6       	in	r0, 0x3f	; 63
    138e:	f8 94       	cli
    1390:	de bf       	out	0x3e, r29	; 62
    1392:	0f be       	out	0x3f, r0	; 63
    1394:	cd bf       	out	0x3d, r28	; 61
    1396:	cf 91       	pop	r28
    1398:	df 91       	pop	r29
    139a:	08 95       	ret

0000139c <USART_SendNumber_Raw>:
// This function sends JUST the digits, no extra spaces or new lines
void USART_SendNumber_Raw(s32 num) {
    139c:	df 93       	push	r29
    139e:	cf 93       	push	r28
    13a0:	cd b7       	in	r28, 0x3d	; 61
    13a2:	de b7       	in	r29, 0x3e	; 62
    13a4:	2f 97       	sbiw	r28, 0x0f	; 15
    13a6:	0f b6       	in	r0, 0x3f	; 63
    13a8:	f8 94       	cli
    13aa:	de bf       	out	0x3e, r29	; 62
    13ac:	0f be       	out	0x3f, r0	; 63
    13ae:	cd bf       	out	0x3d, r28	; 61
    13b0:	6c 87       	std	Y+12, r22	; 0x0c
    13b2:	7d 87       	std	Y+13, r23	; 0x0d
    13b4:	8e 87       	std	Y+14, r24	; 0x0e
    13b6:	9f 87       	std	Y+15, r25	; 0x0f
    char buffer[11];
    itoa(num, buffer, 10); // Converts integer to string
    13b8:	8c 85       	ldd	r24, Y+12	; 0x0c
    13ba:	9d 85       	ldd	r25, Y+13	; 0x0d
    13bc:	9e 01       	movw	r18, r28
    13be:	2f 5f       	subi	r18, 0xFF	; 255
    13c0:	3f 4f       	sbci	r19, 0xFF	; 255
    13c2:	b9 01       	movw	r22, r18
    13c4:	4a e0       	ldi	r20, 0x0A	; 10
    13c6:	50 e0       	ldi	r21, 0x00	; 0
    13c8:	0e 94 95 2e 	call	0x5d2a	; 0x5d2a <itoa>
    USART_SendString(buffer);
    13cc:	ce 01       	movw	r24, r28
    13ce:	01 96       	adiw	r24, 0x01	; 1
    13d0:	0e 94 c2 08 	call	0x1184	; 0x1184 <USART_SendString>
}
    13d4:	2f 96       	adiw	r28, 0x0f	; 15
    13d6:	0f b6       	in	r0, 0x3f	; 63
    13d8:	f8 94       	cli
    13da:	de bf       	out	0x3e, r29	; 62
    13dc:	0f be       	out	0x3f, r0	; 63
    13de:	cd bf       	out	0x3d, r28	; 61
    13e0:	cf 91       	pop	r28
    13e2:	df 91       	pop	r29
    13e4:	08 95       	ret

000013e6 <USART_SendFloat_chato>:

void USART_SendFloat_chato(f32 number, u8 decimal_places) {
    13e6:	df 93       	push	r29
    13e8:	cf 93       	push	r28
    13ea:	cd b7       	in	r28, 0x3d	; 61
    13ec:	de b7       	in	r29, 0x3e	; 62
    13ee:	2f 97       	sbiw	r28, 0x0f	; 15
    13f0:	0f b6       	in	r0, 0x3f	; 63
    13f2:	f8 94       	cli
    13f4:	de bf       	out	0x3e, r29	; 62
    13f6:	0f be       	out	0x3f, r0	; 63
    13f8:	cd bf       	out	0x3d, r28	; 61
    13fa:	6b 87       	std	Y+11, r22	; 0x0b
    13fc:	7c 87       	std	Y+12, r23	; 0x0c
    13fe:	8d 87       	std	Y+13, r24	; 0x0d
    1400:	9e 87       	std	Y+14, r25	; 0x0e
    1402:	4f 87       	std	Y+15, r20	; 0x0f
    if (number < 0) {
    1404:	6b 85       	ldd	r22, Y+11	; 0x0b
    1406:	7c 85       	ldd	r23, Y+12	; 0x0c
    1408:	8d 85       	ldd	r24, Y+13	; 0x0d
    140a:	9e 85       	ldd	r25, Y+14	; 0x0e
    140c:	20 e0       	ldi	r18, 0x00	; 0
    140e:	30 e0       	ldi	r19, 0x00	; 0
    1410:	40 e0       	ldi	r20, 0x00	; 0
    1412:	50 e0       	ldi	r21, 0x00	; 0
    1414:	0e 94 02 05 	call	0xa04	; 0xa04 <__ltsf2>
    1418:	88 23       	and	r24, r24
    141a:	6c f4       	brge	.+26     	; 0x1436 <USART_SendFloat_chato+0x50>
        USART_SendString("-"); // Use String or Char
    141c:	88 e7       	ldi	r24, 0x78	; 120
    141e:	90 e0       	ldi	r25, 0x00	; 0
    1420:	0e 94 c2 08 	call	0x1184	; 0x1184 <USART_SendString>
        number = -number;
    1424:	8b 85       	ldd	r24, Y+11	; 0x0b
    1426:	9c 85       	ldd	r25, Y+12	; 0x0c
    1428:	ad 85       	ldd	r26, Y+13	; 0x0d
    142a:	be 85       	ldd	r27, Y+14	; 0x0e
    142c:	b0 58       	subi	r27, 0x80	; 128
    142e:	8b 87       	std	Y+11, r24	; 0x0b
    1430:	9c 87       	std	Y+12, r25	; 0x0c
    1432:	ad 87       	std	Y+13, r26	; 0x0d
    1434:	be 87       	std	Y+14, r27	; 0x0e
    }

    u32 integer_part = (u32)number;
    1436:	6b 85       	ldd	r22, Y+11	; 0x0b
    1438:	7c 85       	ldd	r23, Y+12	; 0x0c
    143a:	8d 85       	ldd	r24, Y+13	; 0x0d
    143c:	9e 85       	ldd	r25, Y+14	; 0x0e
    143e:	0e 94 c6 00 	call	0x18c	; 0x18c <__fixunssfsi>
    1442:	dc 01       	movw	r26, r24
    1444:	cb 01       	movw	r24, r22
    1446:	8f 83       	std	Y+7, r24	; 0x07
    1448:	98 87       	std	Y+8, r25	; 0x08
    144a:	a9 87       	std	Y+9, r26	; 0x09
    144c:	ba 87       	std	Y+10, r27	; 0x0a
    USART_SendNumber_Raw(integer_part); // <--- Use Raw version
    144e:	8f 81       	ldd	r24, Y+7	; 0x07
    1450:	98 85       	ldd	r25, Y+8	; 0x08
    1452:	a9 85       	ldd	r26, Y+9	; 0x09
    1454:	ba 85       	ldd	r27, Y+10	; 0x0a
    1456:	bc 01       	movw	r22, r24
    1458:	cd 01       	movw	r24, r26
    145a:	0e 94 ce 09 	call	0x139c	; 0x139c <USART_SendNumber_Raw>

    USART_SendString(".");
    145e:	8a e7       	ldi	r24, 0x7A	; 122
    1460:	90 e0       	ldi	r25, 0x00	; 0
    1462:	0e 94 c2 08 	call	0x1184	; 0x1184 <USART_SendString>

    f32 fraction = number - (f32)integer_part;
    1466:	6f 81       	ldd	r22, Y+7	; 0x07
    1468:	78 85       	ldd	r23, Y+8	; 0x08
    146a:	89 85       	ldd	r24, Y+9	; 0x09
    146c:	9a 85       	ldd	r25, Y+10	; 0x0a
    146e:	0e 94 e4 05 	call	0xbc8	; 0xbc8 <__floatunsisf>
    1472:	9b 01       	movw	r18, r22
    1474:	ac 01       	movw	r20, r24
    1476:	6b 85       	ldd	r22, Y+11	; 0x0b
    1478:	7c 85       	ldd	r23, Y+12	; 0x0c
    147a:	8d 85       	ldd	r24, Y+13	; 0x0d
    147c:	9e 85       	ldd	r25, Y+14	; 0x0e
    147e:	0e 94 3e 02 	call	0x47c	; 0x47c <__subsf3>
    1482:	dc 01       	movw	r26, r24
    1484:	cb 01       	movw	r24, r22
    1486:	8b 83       	std	Y+3, r24	; 0x03
    1488:	9c 83       	std	Y+4, r25	; 0x04
    148a:	ad 83       	std	Y+5, r26	; 0x05
    148c:	be 83       	std	Y+6, r27	; 0x06
    for (u8 i = 0; i < decimal_places; i++) {
    148e:	1a 82       	std	Y+2, r1	; 0x02
    1490:	3e c0       	rjmp	.+124    	; 0x150e <USART_SendFloat_chato+0x128>
        fraction *= 10;
    1492:	6b 81       	ldd	r22, Y+3	; 0x03
    1494:	7c 81       	ldd	r23, Y+4	; 0x04
    1496:	8d 81       	ldd	r24, Y+5	; 0x05
    1498:	9e 81       	ldd	r25, Y+6	; 0x06
    149a:	20 e0       	ldi	r18, 0x00	; 0
    149c:	30 e0       	ldi	r19, 0x00	; 0
    149e:	40 e2       	ldi	r20, 0x20	; 32
    14a0:	51 e4       	ldi	r21, 0x41	; 65
    14a2:	0e 94 9c 02 	call	0x538	; 0x538 <__mulsf3>
    14a6:	dc 01       	movw	r26, r24
    14a8:	cb 01       	movw	r24, r22
    14aa:	8b 83       	std	Y+3, r24	; 0x03
    14ac:	9c 83       	std	Y+4, r25	; 0x04
    14ae:	ad 83       	std	Y+5, r26	; 0x05
    14b0:	be 83       	std	Y+6, r27	; 0x06
        u8 digit = (u8)fraction;
    14b2:	6b 81       	ldd	r22, Y+3	; 0x03
    14b4:	7c 81       	ldd	r23, Y+4	; 0x04
    14b6:	8d 81       	ldd	r24, Y+5	; 0x05
    14b8:	9e 81       	ldd	r25, Y+6	; 0x06
    14ba:	0e 94 c6 00 	call	0x18c	; 0x18c <__fixunssfsi>
    14be:	dc 01       	movw	r26, r24
    14c0:	cb 01       	movw	r24, r22
    14c2:	89 83       	std	Y+1, r24	; 0x01
        USART_SendNumber_Raw(digit);    // <--- Use Raw version
    14c4:	89 81       	ldd	r24, Y+1	; 0x01
    14c6:	88 2f       	mov	r24, r24
    14c8:	90 e0       	ldi	r25, 0x00	; 0
    14ca:	a0 e0       	ldi	r26, 0x00	; 0
    14cc:	b0 e0       	ldi	r27, 0x00	; 0
    14ce:	bc 01       	movw	r22, r24
    14d0:	cd 01       	movw	r24, r26
    14d2:	0e 94 ce 09 	call	0x139c	; 0x139c <USART_SendNumber_Raw>
        fraction -= digit;
    14d6:	89 81       	ldd	r24, Y+1	; 0x01
    14d8:	88 2f       	mov	r24, r24
    14da:	90 e0       	ldi	r25, 0x00	; 0
    14dc:	aa 27       	eor	r26, r26
    14de:	97 fd       	sbrc	r25, 7
    14e0:	a0 95       	com	r26
    14e2:	ba 2f       	mov	r27, r26
    14e4:	bc 01       	movw	r22, r24
    14e6:	cd 01       	movw	r24, r26
    14e8:	0e 94 32 05 	call	0xa64	; 0xa64 <__floatsisf>
    14ec:	9b 01       	movw	r18, r22
    14ee:	ac 01       	movw	r20, r24
    14f0:	6b 81       	ldd	r22, Y+3	; 0x03
    14f2:	7c 81       	ldd	r23, Y+4	; 0x04
    14f4:	8d 81       	ldd	r24, Y+5	; 0x05
    14f6:	9e 81       	ldd	r25, Y+6	; 0x06
    14f8:	0e 94 3e 02 	call	0x47c	; 0x47c <__subsf3>
    14fc:	dc 01       	movw	r26, r24
    14fe:	cb 01       	movw	r24, r22
    1500:	8b 83       	std	Y+3, r24	; 0x03
    1502:	9c 83       	std	Y+4, r25	; 0x04
    1504:	ad 83       	std	Y+5, r26	; 0x05
    1506:	be 83       	std	Y+6, r27	; 0x06
    USART_SendNumber_Raw(integer_part); // <--- Use Raw version

    USART_SendString(".");

    f32 fraction = number - (f32)integer_part;
    for (u8 i = 0; i < decimal_places; i++) {
    1508:	8a 81       	ldd	r24, Y+2	; 0x02
    150a:	8f 5f       	subi	r24, 0xFF	; 255
    150c:	8a 83       	std	Y+2, r24	; 0x02
    150e:	9a 81       	ldd	r25, Y+2	; 0x02
    1510:	8f 85       	ldd	r24, Y+15	; 0x0f
    1512:	98 17       	cp	r25, r24
    1514:	08 f4       	brcc	.+2      	; 0x1518 <USART_SendFloat_chato+0x132>
    1516:	bd cf       	rjmp	.-134    	; 0x1492 <USART_SendFloat_chato+0xac>
        fraction *= 10;
        u8 digit = (u8)fraction;
        USART_SendNumber_Raw(digit);    // <--- Use Raw version
        fraction -= digit;
    }
}
    1518:	2f 96       	adiw	r28, 0x0f	; 15
    151a:	0f b6       	in	r0, 0x3f	; 63
    151c:	f8 94       	cli
    151e:	de bf       	out	0x3e, r29	; 62
    1520:	0f be       	out	0x3f, r0	; 63
    1522:	cd bf       	out	0x3d, r28	; 61
    1524:	cf 91       	pop	r28
    1526:	df 91       	pop	r29
    1528:	08 95       	ret

0000152a <Timer1_Init>:
u32 G_Prescaller ;
void (*Timer1_ptr)(void) ;
u32 G_OverFlowCounts ;
u32 counter = 0 ;
void Timer1_Init (u32 Prescaller , u8 Mode)
{
    152a:	df 93       	push	r29
    152c:	cf 93       	push	r28
    152e:	cd b7       	in	r28, 0x3d	; 61
    1530:	de b7       	in	r29, 0x3e	; 62
    1532:	2b 97       	sbiw	r28, 0x0b	; 11
    1534:	0f b6       	in	r0, 0x3f	; 63
    1536:	f8 94       	cli
    1538:	de bf       	out	0x3e, r29	; 62
    153a:	0f be       	out	0x3f, r0	; 63
    153c:	cd bf       	out	0x3d, r28	; 61
    153e:	69 83       	std	Y+1, r22	; 0x01
    1540:	7a 83       	std	Y+2, r23	; 0x02
    1542:	8b 83       	std	Y+3, r24	; 0x03
    1544:	9c 83       	std	Y+4, r25	; 0x04
    1546:	4d 83       	std	Y+5, r20	; 0x05
	SET_BIT(SREG , I_BIT) ;
    1548:	af e5       	ldi	r26, 0x5F	; 95
    154a:	b0 e0       	ldi	r27, 0x00	; 0
    154c:	ef e5       	ldi	r30, 0x5F	; 95
    154e:	f0 e0       	ldi	r31, 0x00	; 0
    1550:	80 81       	ld	r24, Z
    1552:	80 68       	ori	r24, 0x80	; 128
    1554:	8c 93       	st	X, r24
	G_Prescaller = Prescaller ;
    1556:	89 81       	ldd	r24, Y+1	; 0x01
    1558:	9a 81       	ldd	r25, Y+2	; 0x02
    155a:	ab 81       	ldd	r26, Y+3	; 0x03
    155c:	bc 81       	ldd	r27, Y+4	; 0x04
    155e:	80 93 10 04 	sts	0x0410, r24
    1562:	90 93 11 04 	sts	0x0411, r25
    1566:	a0 93 12 04 	sts	0x0412, r26
    156a:	b0 93 13 04 	sts	0x0413, r27
	switch (Prescaller)
    156e:	89 81       	ldd	r24, Y+1	; 0x01
    1570:	9a 81       	ldd	r25, Y+2	; 0x02
    1572:	ab 81       	ldd	r26, Y+3	; 0x03
    1574:	bc 81       	ldd	r27, Y+4	; 0x04
    1576:	88 87       	std	Y+8, r24	; 0x08
    1578:	99 87       	std	Y+9, r25	; 0x09
    157a:	aa 87       	std	Y+10, r26	; 0x0a
    157c:	bb 87       	std	Y+11, r27	; 0x0b
    157e:	88 85       	ldd	r24, Y+8	; 0x08
    1580:	99 85       	ldd	r25, Y+9	; 0x09
    1582:	aa 85       	ldd	r26, Y+10	; 0x0a
    1584:	bb 85       	ldd	r27, Y+11	; 0x0b
    1586:	80 34       	cpi	r24, 0x40	; 64
    1588:	91 05       	cpc	r25, r1
    158a:	a1 05       	cpc	r26, r1
    158c:	b1 05       	cpc	r27, r1
    158e:	09 f4       	brne	.+2      	; 0x1592 <Timer1_Init+0x68>
    1590:	63 c0       	rjmp	.+198    	; 0x1658 <Timer1_Init+0x12e>
    1592:	88 85       	ldd	r24, Y+8	; 0x08
    1594:	99 85       	ldd	r25, Y+9	; 0x09
    1596:	aa 85       	ldd	r26, Y+10	; 0x0a
    1598:	bb 85       	ldd	r27, Y+11	; 0x0b
    159a:	81 34       	cpi	r24, 0x41	; 65
    159c:	91 05       	cpc	r25, r1
    159e:	a1 05       	cpc	r26, r1
    15a0:	b1 05       	cpc	r27, r1
    15a2:	98 f4       	brcc	.+38     	; 0x15ca <Timer1_Init+0xa0>
    15a4:	88 85       	ldd	r24, Y+8	; 0x08
    15a6:	99 85       	ldd	r25, Y+9	; 0x09
    15a8:	aa 85       	ldd	r26, Y+10	; 0x0a
    15aa:	bb 85       	ldd	r27, Y+11	; 0x0b
    15ac:	81 30       	cpi	r24, 0x01	; 1
    15ae:	91 05       	cpc	r25, r1
    15b0:	a1 05       	cpc	r26, r1
    15b2:	b1 05       	cpc	r27, r1
    15b4:	29 f1       	breq	.+74     	; 0x1600 <Timer1_Init+0xd6>
    15b6:	88 85       	ldd	r24, Y+8	; 0x08
    15b8:	99 85       	ldd	r25, Y+9	; 0x09
    15ba:	aa 85       	ldd	r26, Y+10	; 0x0a
    15bc:	bb 85       	ldd	r27, Y+11	; 0x0b
    15be:	88 30       	cpi	r24, 0x08	; 8
    15c0:	91 05       	cpc	r25, r1
    15c2:	a1 05       	cpc	r26, r1
    15c4:	b1 05       	cpc	r27, r1
    15c6:	91 f1       	breq	.+100    	; 0x162c <Timer1_Init+0x102>
    15c8:	88 c0       	rjmp	.+272    	; 0x16da <Timer1_Init+0x1b0>
    15ca:	88 85       	ldd	r24, Y+8	; 0x08
    15cc:	99 85       	ldd	r25, Y+9	; 0x09
    15ce:	aa 85       	ldd	r26, Y+10	; 0x0a
    15d0:	bb 85       	ldd	r27, Y+11	; 0x0b
    15d2:	80 30       	cpi	r24, 0x00	; 0
    15d4:	21 e0       	ldi	r18, 0x01	; 1
    15d6:	92 07       	cpc	r25, r18
    15d8:	20 e0       	ldi	r18, 0x00	; 0
    15da:	a2 07       	cpc	r26, r18
    15dc:	20 e0       	ldi	r18, 0x00	; 0
    15de:	b2 07       	cpc	r27, r18
    15e0:	09 f4       	brne	.+2      	; 0x15e4 <Timer1_Init+0xba>
    15e2:	50 c0       	rjmp	.+160    	; 0x1684 <Timer1_Init+0x15a>
    15e4:	88 85       	ldd	r24, Y+8	; 0x08
    15e6:	99 85       	ldd	r25, Y+9	; 0x09
    15e8:	aa 85       	ldd	r26, Y+10	; 0x0a
    15ea:	bb 85       	ldd	r27, Y+11	; 0x0b
    15ec:	80 30       	cpi	r24, 0x00	; 0
    15ee:	24 e0       	ldi	r18, 0x04	; 4
    15f0:	92 07       	cpc	r25, r18
    15f2:	20 e0       	ldi	r18, 0x00	; 0
    15f4:	a2 07       	cpc	r26, r18
    15f6:	20 e0       	ldi	r18, 0x00	; 0
    15f8:	b2 07       	cpc	r27, r18
    15fa:	09 f4       	brne	.+2      	; 0x15fe <Timer1_Init+0xd4>
    15fc:	59 c0       	rjmp	.+178    	; 0x16b0 <Timer1_Init+0x186>
    15fe:	6d c0       	rjmp	.+218    	; 0x16da <Timer1_Init+0x1b0>
	{
	case TIMER1_NO_PRESCALLER  :
		CLR_BIT(TCCR1B , CS12) ;
    1600:	ae e4       	ldi	r26, 0x4E	; 78
    1602:	b0 e0       	ldi	r27, 0x00	; 0
    1604:	ee e4       	ldi	r30, 0x4E	; 78
    1606:	f0 e0       	ldi	r31, 0x00	; 0
    1608:	80 81       	ld	r24, Z
    160a:	8b 7f       	andi	r24, 0xFB	; 251
    160c:	8c 93       	st	X, r24
		CLR_BIT(TCCR1B , CS11) ;
    160e:	ae e4       	ldi	r26, 0x4E	; 78
    1610:	b0 e0       	ldi	r27, 0x00	; 0
    1612:	ee e4       	ldi	r30, 0x4E	; 78
    1614:	f0 e0       	ldi	r31, 0x00	; 0
    1616:	80 81       	ld	r24, Z
    1618:	8d 7f       	andi	r24, 0xFD	; 253
    161a:	8c 93       	st	X, r24
		SET_BIT(TCCR1B , CS10) ;
    161c:	ae e4       	ldi	r26, 0x4E	; 78
    161e:	b0 e0       	ldi	r27, 0x00	; 0
    1620:	ee e4       	ldi	r30, 0x4E	; 78
    1622:	f0 e0       	ldi	r31, 0x00	; 0
    1624:	80 81       	ld	r24, Z
    1626:	81 60       	ori	r24, 0x01	; 1
    1628:	8c 93       	st	X, r24
    162a:	57 c0       	rjmp	.+174    	; 0x16da <Timer1_Init+0x1b0>
		break ;
	case TIMER1_PRESCALLER8    :
		CLR_BIT(TCCR1B , CS12) ;
    162c:	ae e4       	ldi	r26, 0x4E	; 78
    162e:	b0 e0       	ldi	r27, 0x00	; 0
    1630:	ee e4       	ldi	r30, 0x4E	; 78
    1632:	f0 e0       	ldi	r31, 0x00	; 0
    1634:	80 81       	ld	r24, Z
    1636:	8b 7f       	andi	r24, 0xFB	; 251
    1638:	8c 93       	st	X, r24
		SET_BIT(TCCR1B , CS11) ;
    163a:	ae e4       	ldi	r26, 0x4E	; 78
    163c:	b0 e0       	ldi	r27, 0x00	; 0
    163e:	ee e4       	ldi	r30, 0x4E	; 78
    1640:	f0 e0       	ldi	r31, 0x00	; 0
    1642:	80 81       	ld	r24, Z
    1644:	82 60       	ori	r24, 0x02	; 2
    1646:	8c 93       	st	X, r24
		CLR_BIT(TCCR1B , CS10) ;
    1648:	ae e4       	ldi	r26, 0x4E	; 78
    164a:	b0 e0       	ldi	r27, 0x00	; 0
    164c:	ee e4       	ldi	r30, 0x4E	; 78
    164e:	f0 e0       	ldi	r31, 0x00	; 0
    1650:	80 81       	ld	r24, Z
    1652:	8e 7f       	andi	r24, 0xFE	; 254
    1654:	8c 93       	st	X, r24
    1656:	41 c0       	rjmp	.+130    	; 0x16da <Timer1_Init+0x1b0>
		break ;
	case TIMER1_PRESCALLER64   :
		CLR_BIT(TCCR1B , CS12) ;
    1658:	ae e4       	ldi	r26, 0x4E	; 78
    165a:	b0 e0       	ldi	r27, 0x00	; 0
    165c:	ee e4       	ldi	r30, 0x4E	; 78
    165e:	f0 e0       	ldi	r31, 0x00	; 0
    1660:	80 81       	ld	r24, Z
    1662:	8b 7f       	andi	r24, 0xFB	; 251
    1664:	8c 93       	st	X, r24
		SET_BIT(TCCR1B , CS11) ;
    1666:	ae e4       	ldi	r26, 0x4E	; 78
    1668:	b0 e0       	ldi	r27, 0x00	; 0
    166a:	ee e4       	ldi	r30, 0x4E	; 78
    166c:	f0 e0       	ldi	r31, 0x00	; 0
    166e:	80 81       	ld	r24, Z
    1670:	82 60       	ori	r24, 0x02	; 2
    1672:	8c 93       	st	X, r24
		SET_BIT(TCCR1B , CS10) ;
    1674:	ae e4       	ldi	r26, 0x4E	; 78
    1676:	b0 e0       	ldi	r27, 0x00	; 0
    1678:	ee e4       	ldi	r30, 0x4E	; 78
    167a:	f0 e0       	ldi	r31, 0x00	; 0
    167c:	80 81       	ld	r24, Z
    167e:	81 60       	ori	r24, 0x01	; 1
    1680:	8c 93       	st	X, r24
    1682:	2b c0       	rjmp	.+86     	; 0x16da <Timer1_Init+0x1b0>
		break ;
	case TIMER1_PRESCALLER256  :
		SET_BIT(TCCR1B , CS12) ;
    1684:	ae e4       	ldi	r26, 0x4E	; 78
    1686:	b0 e0       	ldi	r27, 0x00	; 0
    1688:	ee e4       	ldi	r30, 0x4E	; 78
    168a:	f0 e0       	ldi	r31, 0x00	; 0
    168c:	80 81       	ld	r24, Z
    168e:	84 60       	ori	r24, 0x04	; 4
    1690:	8c 93       	st	X, r24
		CLR_BIT(TCCR1B , CS11) ;
    1692:	ae e4       	ldi	r26, 0x4E	; 78
    1694:	b0 e0       	ldi	r27, 0x00	; 0
    1696:	ee e4       	ldi	r30, 0x4E	; 78
    1698:	f0 e0       	ldi	r31, 0x00	; 0
    169a:	80 81       	ld	r24, Z
    169c:	8d 7f       	andi	r24, 0xFD	; 253
    169e:	8c 93       	st	X, r24
		CLR_BIT(TCCR1B , CS10) ;
    16a0:	ae e4       	ldi	r26, 0x4E	; 78
    16a2:	b0 e0       	ldi	r27, 0x00	; 0
    16a4:	ee e4       	ldi	r30, 0x4E	; 78
    16a6:	f0 e0       	ldi	r31, 0x00	; 0
    16a8:	80 81       	ld	r24, Z
    16aa:	8e 7f       	andi	r24, 0xFE	; 254
    16ac:	8c 93       	st	X, r24
    16ae:	15 c0       	rjmp	.+42     	; 0x16da <Timer1_Init+0x1b0>
		break ;
	case TIMER1_PRESCALLER1024 :
		SET_BIT(TCCR1B , CS12) ;
    16b0:	ae e4       	ldi	r26, 0x4E	; 78
    16b2:	b0 e0       	ldi	r27, 0x00	; 0
    16b4:	ee e4       	ldi	r30, 0x4E	; 78
    16b6:	f0 e0       	ldi	r31, 0x00	; 0
    16b8:	80 81       	ld	r24, Z
    16ba:	84 60       	ori	r24, 0x04	; 4
    16bc:	8c 93       	st	X, r24
		CLR_BIT(TCCR1B , CS11) ;
    16be:	ae e4       	ldi	r26, 0x4E	; 78
    16c0:	b0 e0       	ldi	r27, 0x00	; 0
    16c2:	ee e4       	ldi	r30, 0x4E	; 78
    16c4:	f0 e0       	ldi	r31, 0x00	; 0
    16c6:	80 81       	ld	r24, Z
    16c8:	8d 7f       	andi	r24, 0xFD	; 253
    16ca:	8c 93       	st	X, r24
		SET_BIT(TCCR1B , CS10) ;
    16cc:	ae e4       	ldi	r26, 0x4E	; 78
    16ce:	b0 e0       	ldi	r27, 0x00	; 0
    16d0:	ee e4       	ldi	r30, 0x4E	; 78
    16d2:	f0 e0       	ldi	r31, 0x00	; 0
    16d4:	80 81       	ld	r24, Z
    16d6:	81 60       	ori	r24, 0x01	; 1
    16d8:	8c 93       	st	X, r24
		break ;
	}

	switch (Mode)
    16da:	8d 81       	ldd	r24, Y+5	; 0x05
    16dc:	a8 2f       	mov	r26, r24
    16de:	b0 e0       	ldi	r27, 0x00	; 0
    16e0:	bf 83       	std	Y+7, r27	; 0x07
    16e2:	ae 83       	std	Y+6, r26	; 0x06
    16e4:	2e 81       	ldd	r18, Y+6	; 0x06
    16e6:	3f 81       	ldd	r19, Y+7	; 0x07
    16e8:	28 30       	cpi	r18, 0x08	; 8
    16ea:	31 05       	cpc	r19, r1
    16ec:	09 f4       	brne	.+2      	; 0x16f0 <Timer1_Init+0x1c6>
    16ee:	fe c1       	rjmp	.+1020   	; 0x1aec <Timer1_Init+0x5c2>
    16f0:	8e 81       	ldd	r24, Y+6	; 0x06
    16f2:	9f 81       	ldd	r25, Y+7	; 0x07
    16f4:	89 30       	cpi	r24, 0x09	; 9
    16f6:	91 05       	cpc	r25, r1
    16f8:	54 f5       	brge	.+84     	; 0x174e <Timer1_Init+0x224>
    16fa:	ae 81       	ldd	r26, Y+6	; 0x06
    16fc:	bf 81       	ldd	r27, Y+7	; 0x07
    16fe:	a4 30       	cpi	r26, 0x04	; 4
    1700:	b1 05       	cpc	r27, r1
    1702:	09 f4       	brne	.+2      	; 0x1706 <Timer1_Init+0x1dc>
    1704:	00 c1       	rjmp	.+512    	; 0x1906 <Timer1_Init+0x3dc>
    1706:	2e 81       	ldd	r18, Y+6	; 0x06
    1708:	3f 81       	ldd	r19, Y+7	; 0x07
    170a:	25 30       	cpi	r18, 0x05	; 5
    170c:	31 05       	cpc	r19, r1
    170e:	94 f4       	brge	.+36     	; 0x1734 <Timer1_Init+0x20a>
    1710:	8e 81       	ldd	r24, Y+6	; 0x06
    1712:	9f 81       	ldd	r25, Y+7	; 0x07
    1714:	82 30       	cpi	r24, 0x02	; 2
    1716:	91 05       	cpc	r25, r1
    1718:	09 f4       	brne	.+2      	; 0x171c <Timer1_Init+0x1f2>
    171a:	6f c0       	rjmp	.+222    	; 0x17fa <Timer1_Init+0x2d0>
    171c:	ae 81       	ldd	r26, Y+6	; 0x06
    171e:	bf 81       	ldd	r27, Y+7	; 0x07
    1720:	a3 30       	cpi	r26, 0x03	; 3
    1722:	b1 05       	cpc	r27, r1
    1724:	0c f0       	brlt	.+2      	; 0x1728 <Timer1_Init+0x1fe>
    1726:	ac c0       	rjmp	.+344    	; 0x1880 <Timer1_Init+0x356>
    1728:	2e 81       	ldd	r18, Y+6	; 0x06
    172a:	3f 81       	ldd	r19, Y+7	; 0x07
    172c:	21 30       	cpi	r18, 0x01	; 1
    172e:	31 05       	cpc	r19, r1
    1730:	c9 f1       	breq	.+114    	; 0x17a4 <Timer1_Init+0x27a>
    1732:	db c3       	rjmp	.+1974   	; 0x1eea <Timer1_Init+0x9c0>
    1734:	8e 81       	ldd	r24, Y+6	; 0x06
    1736:	9f 81       	ldd	r25, Y+7	; 0x07
    1738:	86 30       	cpi	r24, 0x06	; 6
    173a:	91 05       	cpc	r25, r1
    173c:	09 f4       	brne	.+2      	; 0x1740 <Timer1_Init+0x216>
    173e:	50 c1       	rjmp	.+672    	; 0x19e0 <Timer1_Init+0x4b6>
    1740:	ae 81       	ldd	r26, Y+6	; 0x06
    1742:	bf 81       	ldd	r27, Y+7	; 0x07
    1744:	a7 30       	cpi	r26, 0x07	; 7
    1746:	b1 05       	cpc	r27, r1
    1748:	0c f0       	brlt	.+2      	; 0x174c <Timer1_Init+0x222>
    174a:	8d c1       	rjmp	.+794    	; 0x1a66 <Timer1_Init+0x53c>
    174c:	1e c1       	rjmp	.+572    	; 0x198a <Timer1_Init+0x460>
    174e:	2e 81       	ldd	r18, Y+6	; 0x06
    1750:	3f 81       	ldd	r19, Y+7	; 0x07
    1752:	2c 30       	cpi	r18, 0x0C	; 12
    1754:	31 05       	cpc	r19, r1
    1756:	09 f4       	brne	.+2      	; 0x175a <Timer1_Init+0x230>
    1758:	d5 c2       	rjmp	.+1450   	; 0x1d04 <Timer1_Init+0x7da>
    175a:	8e 81       	ldd	r24, Y+6	; 0x06
    175c:	9f 81       	ldd	r25, Y+7	; 0x07
    175e:	8d 30       	cpi	r24, 0x0D	; 13
    1760:	91 05       	cpc	r25, r1
    1762:	6c f4       	brge	.+26     	; 0x177e <Timer1_Init+0x254>
    1764:	ae 81       	ldd	r26, Y+6	; 0x06
    1766:	bf 81       	ldd	r27, Y+7	; 0x07
    1768:	aa 30       	cpi	r26, 0x0A	; 10
    176a:	b1 05       	cpc	r27, r1
    176c:	09 f4       	brne	.+2      	; 0x1770 <Timer1_Init+0x246>
    176e:	44 c2       	rjmp	.+1160   	; 0x1bf8 <Timer1_Init+0x6ce>
    1770:	2e 81       	ldd	r18, Y+6	; 0x06
    1772:	3f 81       	ldd	r19, Y+7	; 0x07
    1774:	2b 30       	cpi	r18, 0x0B	; 11
    1776:	31 05       	cpc	r19, r1
    1778:	0c f0       	brlt	.+2      	; 0x177c <Timer1_Init+0x252>
    177a:	81 c2       	rjmp	.+1282   	; 0x1c7e <Timer1_Init+0x754>
    177c:	fa c1       	rjmp	.+1012   	; 0x1b72 <Timer1_Init+0x648>
    177e:	8e 81       	ldd	r24, Y+6	; 0x06
    1780:	9f 81       	ldd	r25, Y+7	; 0x07
    1782:	8e 30       	cpi	r24, 0x0E	; 14
    1784:	91 05       	cpc	r25, r1
    1786:	09 f4       	brne	.+2      	; 0x178a <Timer1_Init+0x260>
    1788:	2b c3       	rjmp	.+1622   	; 0x1de0 <Timer1_Init+0x8b6>
    178a:	ae 81       	ldd	r26, Y+6	; 0x06
    178c:	bf 81       	ldd	r27, Y+7	; 0x07
    178e:	ae 30       	cpi	r26, 0x0E	; 14
    1790:	b1 05       	cpc	r27, r1
    1792:	0c f4       	brge	.+2      	; 0x1796 <Timer1_Init+0x26c>
    1794:	fa c2       	rjmp	.+1524   	; 0x1d8a <Timer1_Init+0x860>
    1796:	2e 81       	ldd	r18, Y+6	; 0x06
    1798:	3f 81       	ldd	r19, Y+7	; 0x07
    179a:	2f 30       	cpi	r18, 0x0F	; 15
    179c:	31 05       	cpc	r19, r1
    179e:	09 f4       	brne	.+2      	; 0x17a2 <Timer1_Init+0x278>
    17a0:	62 c3       	rjmp	.+1732   	; 0x1e66 <Timer1_Init+0x93c>
    17a2:	a3 c3       	rjmp	.+1862   	; 0x1eea <Timer1_Init+0x9c0>
	{
	case TIMER1_NORMAL                  :
		CLR_BIT(TCCR1B , WGM13) ;
    17a4:	ae e4       	ldi	r26, 0x4E	; 78
    17a6:	b0 e0       	ldi	r27, 0x00	; 0
    17a8:	ee e4       	ldi	r30, 0x4E	; 78
    17aa:	f0 e0       	ldi	r31, 0x00	; 0
    17ac:	80 81       	ld	r24, Z
    17ae:	8f 7e       	andi	r24, 0xEF	; 239
    17b0:	8c 93       	st	X, r24
		CLR_BIT(TCCR1B , WGM12) ;
    17b2:	ae e4       	ldi	r26, 0x4E	; 78
    17b4:	b0 e0       	ldi	r27, 0x00	; 0
    17b6:	ee e4       	ldi	r30, 0x4E	; 78
    17b8:	f0 e0       	ldi	r31, 0x00	; 0
    17ba:	80 81       	ld	r24, Z
    17bc:	87 7f       	andi	r24, 0xF7	; 247
    17be:	8c 93       	st	X, r24
		CLR_BIT(TCCR1A , WGM11) ;
    17c0:	af e4       	ldi	r26, 0x4F	; 79
    17c2:	b0 e0       	ldi	r27, 0x00	; 0
    17c4:	ef e4       	ldi	r30, 0x4F	; 79
    17c6:	f0 e0       	ldi	r31, 0x00	; 0
    17c8:	80 81       	ld	r24, Z
    17ca:	8d 7f       	andi	r24, 0xFD	; 253
    17cc:	8c 93       	st	X, r24
		CLR_BIT(TCCR1A , WGM10) ;
    17ce:	af e4       	ldi	r26, 0x4F	; 79
    17d0:	b0 e0       	ldi	r27, 0x00	; 0
    17d2:	ef e4       	ldi	r30, 0x4F	; 79
    17d4:	f0 e0       	ldi	r31, 0x00	; 0
    17d6:	80 81       	ld	r24, Z
    17d8:	8e 7f       	andi	r24, 0xFE	; 254
    17da:	8c 93       	st	X, r24

		SET_BIT(TIMSK , TOIE1) ;
    17dc:	a9 e5       	ldi	r26, 0x59	; 89
    17de:	b0 e0       	ldi	r27, 0x00	; 0
    17e0:	e9 e5       	ldi	r30, 0x59	; 89
    17e2:	f0 e0       	ldi	r31, 0x00	; 0
    17e4:	80 81       	ld	r24, Z
    17e6:	84 60       	ori	r24, 0x04	; 4
    17e8:	8c 93       	st	X, r24
		SET_BIT(TCCR1B ,ICNC1) ;
    17ea:	ae e4       	ldi	r26, 0x4E	; 78
    17ec:	b0 e0       	ldi	r27, 0x00	; 0
    17ee:	ee e4       	ldi	r30, 0x4E	; 78
    17f0:	f0 e0       	ldi	r31, 0x00	; 0
    17f2:	80 81       	ld	r24, Z
    17f4:	80 68       	ori	r24, 0x80	; 128
    17f6:	8c 93       	st	X, r24
    17f8:	78 c3       	rjmp	.+1776   	; 0x1eea <Timer1_Init+0x9c0>
		break ;
	case TIMER1_PWM_PHASE_CORRECT_8BIT  :
		CLR_BIT(TCCR1B , WGM13) ;
    17fa:	ae e4       	ldi	r26, 0x4E	; 78
    17fc:	b0 e0       	ldi	r27, 0x00	; 0
    17fe:	ee e4       	ldi	r30, 0x4E	; 78
    1800:	f0 e0       	ldi	r31, 0x00	; 0
    1802:	80 81       	ld	r24, Z
    1804:	8f 7e       	andi	r24, 0xEF	; 239
    1806:	8c 93       	st	X, r24
		CLR_BIT(TCCR1B , WGM12) ;
    1808:	ae e4       	ldi	r26, 0x4E	; 78
    180a:	b0 e0       	ldi	r27, 0x00	; 0
    180c:	ee e4       	ldi	r30, 0x4E	; 78
    180e:	f0 e0       	ldi	r31, 0x00	; 0
    1810:	80 81       	ld	r24, Z
    1812:	87 7f       	andi	r24, 0xF7	; 247
    1814:	8c 93       	st	X, r24
		CLR_BIT(TCCR1A , WGM11) ;
    1816:	af e4       	ldi	r26, 0x4F	; 79
    1818:	b0 e0       	ldi	r27, 0x00	; 0
    181a:	ef e4       	ldi	r30, 0x4F	; 79
    181c:	f0 e0       	ldi	r31, 0x00	; 0
    181e:	80 81       	ld	r24, Z
    1820:	8d 7f       	andi	r24, 0xFD	; 253
    1822:	8c 93       	st	X, r24
		SET_BIT(TCCR1A , WGM10) ;
    1824:	af e4       	ldi	r26, 0x4F	; 79
    1826:	b0 e0       	ldi	r27, 0x00	; 0
    1828:	ef e4       	ldi	r30, 0x4F	; 79
    182a:	f0 e0       	ldi	r31, 0x00	; 0
    182c:	80 81       	ld	r24, Z
    182e:	81 60       	ori	r24, 0x01	; 1
    1830:	8c 93       	st	X, r24

		SET_BIT(TCCR1A , COM1A1) ;
    1832:	af e4       	ldi	r26, 0x4F	; 79
    1834:	b0 e0       	ldi	r27, 0x00	; 0
    1836:	ef e4       	ldi	r30, 0x4F	; 79
    1838:	f0 e0       	ldi	r31, 0x00	; 0
    183a:	80 81       	ld	r24, Z
    183c:	80 68       	ori	r24, 0x80	; 128
    183e:	8c 93       	st	X, r24
		CLR_BIT(TCCR1A , COM1A0) ;
    1840:	af e4       	ldi	r26, 0x4F	; 79
    1842:	b0 e0       	ldi	r27, 0x00	; 0
    1844:	ef e4       	ldi	r30, 0x4F	; 79
    1846:	f0 e0       	ldi	r31, 0x00	; 0
    1848:	80 81       	ld	r24, Z
    184a:	8f 7b       	andi	r24, 0xBF	; 191
    184c:	8c 93       	st	X, r24
		SET_BIT(TCCR1A , COM1B1) ;
    184e:	af e4       	ldi	r26, 0x4F	; 79
    1850:	b0 e0       	ldi	r27, 0x00	; 0
    1852:	ef e4       	ldi	r30, 0x4F	; 79
    1854:	f0 e0       	ldi	r31, 0x00	; 0
    1856:	80 81       	ld	r24, Z
    1858:	80 62       	ori	r24, 0x20	; 32
    185a:	8c 93       	st	X, r24
		CLR_BIT(TCCR1A , COM1B0) ;
    185c:	af e4       	ldi	r26, 0x4F	; 79
    185e:	b0 e0       	ldi	r27, 0x00	; 0
    1860:	ef e4       	ldi	r30, 0x4F	; 79
    1862:	f0 e0       	ldi	r31, 0x00	; 0
    1864:	80 81       	ld	r24, Z
    1866:	8f 7e       	andi	r24, 0xEF	; 239
    1868:	8c 93       	st	X, r24
		DIO_InitPin(DIO_PORTD, DIO_PIN4, DIO_OUTPUT) ;
    186a:	84 e0       	ldi	r24, 0x04	; 4
    186c:	64 e0       	ldi	r22, 0x04	; 4
    186e:	41 e0       	ldi	r20, 0x01	; 1
    1870:	0e 94 f0 12 	call	0x25e0	; 0x25e0 <DIO_InitPin>
		DIO_InitPin(DIO_PORTD, DIO_PIN5, DIO_OUTPUT) ;
    1874:	84 e0       	ldi	r24, 0x04	; 4
    1876:	65 e0       	ldi	r22, 0x05	; 5
    1878:	41 e0       	ldi	r20, 0x01	; 1
    187a:	0e 94 f0 12 	call	0x25e0	; 0x25e0 <DIO_InitPin>
    187e:	35 c3       	rjmp	.+1642   	; 0x1eea <Timer1_Init+0x9c0>
		break ;
	case TIMER1_PWM_PHASE_CORRECT_9BIT  :
		CLR_BIT(TCCR1B , WGM13) ;
    1880:	ae e4       	ldi	r26, 0x4E	; 78
    1882:	b0 e0       	ldi	r27, 0x00	; 0
    1884:	ee e4       	ldi	r30, 0x4E	; 78
    1886:	f0 e0       	ldi	r31, 0x00	; 0
    1888:	80 81       	ld	r24, Z
    188a:	8f 7e       	andi	r24, 0xEF	; 239
    188c:	8c 93       	st	X, r24
		CLR_BIT(TCCR1B , WGM12) ;
    188e:	ae e4       	ldi	r26, 0x4E	; 78
    1890:	b0 e0       	ldi	r27, 0x00	; 0
    1892:	ee e4       	ldi	r30, 0x4E	; 78
    1894:	f0 e0       	ldi	r31, 0x00	; 0
    1896:	80 81       	ld	r24, Z
    1898:	87 7f       	andi	r24, 0xF7	; 247
    189a:	8c 93       	st	X, r24
		SET_BIT(TCCR1A , WGM11) ;
    189c:	af e4       	ldi	r26, 0x4F	; 79
    189e:	b0 e0       	ldi	r27, 0x00	; 0
    18a0:	ef e4       	ldi	r30, 0x4F	; 79
    18a2:	f0 e0       	ldi	r31, 0x00	; 0
    18a4:	80 81       	ld	r24, Z
    18a6:	82 60       	ori	r24, 0x02	; 2
    18a8:	8c 93       	st	X, r24
		CLR_BIT(TCCR1A , WGM10) ;
    18aa:	af e4       	ldi	r26, 0x4F	; 79
    18ac:	b0 e0       	ldi	r27, 0x00	; 0
    18ae:	ef e4       	ldi	r30, 0x4F	; 79
    18b0:	f0 e0       	ldi	r31, 0x00	; 0
    18b2:	80 81       	ld	r24, Z
    18b4:	8e 7f       	andi	r24, 0xFE	; 254
    18b6:	8c 93       	st	X, r24
		SET_BIT(TCCR1A , COM1A1) ;
    18b8:	af e4       	ldi	r26, 0x4F	; 79
    18ba:	b0 e0       	ldi	r27, 0x00	; 0
    18bc:	ef e4       	ldi	r30, 0x4F	; 79
    18be:	f0 e0       	ldi	r31, 0x00	; 0
    18c0:	80 81       	ld	r24, Z
    18c2:	80 68       	ori	r24, 0x80	; 128
    18c4:	8c 93       	st	X, r24

		CLR_BIT(TCCR1A , COM1A0) ;
    18c6:	af e4       	ldi	r26, 0x4F	; 79
    18c8:	b0 e0       	ldi	r27, 0x00	; 0
    18ca:	ef e4       	ldi	r30, 0x4F	; 79
    18cc:	f0 e0       	ldi	r31, 0x00	; 0
    18ce:	80 81       	ld	r24, Z
    18d0:	8f 7b       	andi	r24, 0xBF	; 191
    18d2:	8c 93       	st	X, r24
		SET_BIT(TCCR1A , COM1B1) ;
    18d4:	af e4       	ldi	r26, 0x4F	; 79
    18d6:	b0 e0       	ldi	r27, 0x00	; 0
    18d8:	ef e4       	ldi	r30, 0x4F	; 79
    18da:	f0 e0       	ldi	r31, 0x00	; 0
    18dc:	80 81       	ld	r24, Z
    18de:	80 62       	ori	r24, 0x20	; 32
    18e0:	8c 93       	st	X, r24
		CLR_BIT(TCCR1A , COM1B0) ;
    18e2:	af e4       	ldi	r26, 0x4F	; 79
    18e4:	b0 e0       	ldi	r27, 0x00	; 0
    18e6:	ef e4       	ldi	r30, 0x4F	; 79
    18e8:	f0 e0       	ldi	r31, 0x00	; 0
    18ea:	80 81       	ld	r24, Z
    18ec:	8f 7e       	andi	r24, 0xEF	; 239
    18ee:	8c 93       	st	X, r24
		DIO_InitPin(DIO_PORTD, DIO_PIN4, DIO_OUTPUT) ;
    18f0:	84 e0       	ldi	r24, 0x04	; 4
    18f2:	64 e0       	ldi	r22, 0x04	; 4
    18f4:	41 e0       	ldi	r20, 0x01	; 1
    18f6:	0e 94 f0 12 	call	0x25e0	; 0x25e0 <DIO_InitPin>
		DIO_InitPin(DIO_PORTD, DIO_PIN5, DIO_OUTPUT) ;
    18fa:	84 e0       	ldi	r24, 0x04	; 4
    18fc:	65 e0       	ldi	r22, 0x05	; 5
    18fe:	41 e0       	ldi	r20, 0x01	; 1
    1900:	0e 94 f0 12 	call	0x25e0	; 0x25e0 <DIO_InitPin>
    1904:	f2 c2       	rjmp	.+1508   	; 0x1eea <Timer1_Init+0x9c0>
		break ;
	case TIMER1_PWM_PHASE_CORRECT_10BIT :
		CLR_BIT(TCCR1B , WGM13) ;
    1906:	ae e4       	ldi	r26, 0x4E	; 78
    1908:	b0 e0       	ldi	r27, 0x00	; 0
    190a:	ee e4       	ldi	r30, 0x4E	; 78
    190c:	f0 e0       	ldi	r31, 0x00	; 0
    190e:	80 81       	ld	r24, Z
    1910:	8f 7e       	andi	r24, 0xEF	; 239
    1912:	8c 93       	st	X, r24
		CLR_BIT(TCCR1B , WGM12) ;
    1914:	ae e4       	ldi	r26, 0x4E	; 78
    1916:	b0 e0       	ldi	r27, 0x00	; 0
    1918:	ee e4       	ldi	r30, 0x4E	; 78
    191a:	f0 e0       	ldi	r31, 0x00	; 0
    191c:	80 81       	ld	r24, Z
    191e:	87 7f       	andi	r24, 0xF7	; 247
    1920:	8c 93       	st	X, r24
		SET_BIT(TCCR1A , WGM11) ;
    1922:	af e4       	ldi	r26, 0x4F	; 79
    1924:	b0 e0       	ldi	r27, 0x00	; 0
    1926:	ef e4       	ldi	r30, 0x4F	; 79
    1928:	f0 e0       	ldi	r31, 0x00	; 0
    192a:	80 81       	ld	r24, Z
    192c:	82 60       	ori	r24, 0x02	; 2
    192e:	8c 93       	st	X, r24
		SET_BIT(TCCR1A , WGM10) ;
    1930:	af e4       	ldi	r26, 0x4F	; 79
    1932:	b0 e0       	ldi	r27, 0x00	; 0
    1934:	ef e4       	ldi	r30, 0x4F	; 79
    1936:	f0 e0       	ldi	r31, 0x00	; 0
    1938:	80 81       	ld	r24, Z
    193a:	81 60       	ori	r24, 0x01	; 1
    193c:	8c 93       	st	X, r24

		SET_BIT(TCCR1A , COM1A1) ;
    193e:	af e4       	ldi	r26, 0x4F	; 79
    1940:	b0 e0       	ldi	r27, 0x00	; 0
    1942:	ef e4       	ldi	r30, 0x4F	; 79
    1944:	f0 e0       	ldi	r31, 0x00	; 0
    1946:	80 81       	ld	r24, Z
    1948:	80 68       	ori	r24, 0x80	; 128
    194a:	8c 93       	st	X, r24
		CLR_BIT(TCCR1A , COM1A0) ;
    194c:	af e4       	ldi	r26, 0x4F	; 79
    194e:	b0 e0       	ldi	r27, 0x00	; 0
    1950:	ef e4       	ldi	r30, 0x4F	; 79
    1952:	f0 e0       	ldi	r31, 0x00	; 0
    1954:	80 81       	ld	r24, Z
    1956:	8f 7b       	andi	r24, 0xBF	; 191
    1958:	8c 93       	st	X, r24
		SET_BIT(TCCR1A , COM1B1) ;
    195a:	af e4       	ldi	r26, 0x4F	; 79
    195c:	b0 e0       	ldi	r27, 0x00	; 0
    195e:	ef e4       	ldi	r30, 0x4F	; 79
    1960:	f0 e0       	ldi	r31, 0x00	; 0
    1962:	80 81       	ld	r24, Z
    1964:	80 62       	ori	r24, 0x20	; 32
    1966:	8c 93       	st	X, r24
		CLR_BIT(TCCR1A , COM1B0) ;
    1968:	af e4       	ldi	r26, 0x4F	; 79
    196a:	b0 e0       	ldi	r27, 0x00	; 0
    196c:	ef e4       	ldi	r30, 0x4F	; 79
    196e:	f0 e0       	ldi	r31, 0x00	; 0
    1970:	80 81       	ld	r24, Z
    1972:	8f 7e       	andi	r24, 0xEF	; 239
    1974:	8c 93       	st	X, r24
		DIO_InitPin(DIO_PORTD, DIO_PIN4, DIO_OUTPUT) ;
    1976:	84 e0       	ldi	r24, 0x04	; 4
    1978:	64 e0       	ldi	r22, 0x04	; 4
    197a:	41 e0       	ldi	r20, 0x01	; 1
    197c:	0e 94 f0 12 	call	0x25e0	; 0x25e0 <DIO_InitPin>
		DIO_InitPin(DIO_PORTD, DIO_PIN5, DIO_OUTPUT) ;
    1980:	84 e0       	ldi	r24, 0x04	; 4
    1982:	65 e0       	ldi	r22, 0x05	; 5
    1984:	41 e0       	ldi	r20, 0x01	; 1
    1986:	0e 94 f0 12 	call	0x25e0	; 0x25e0 <DIO_InitPin>
	case TIMER1_CTC:
	    // This tells the hardware: "Reset to 0 when TCNT1 == OCR1A"
	    CLR_BIT(TCCR1B, WGM13);
    198a:	ae e4       	ldi	r26, 0x4E	; 78
    198c:	b0 e0       	ldi	r27, 0x00	; 0
    198e:	ee e4       	ldi	r30, 0x4E	; 78
    1990:	f0 e0       	ldi	r31, 0x00	; 0
    1992:	80 81       	ld	r24, Z
    1994:	8f 7e       	andi	r24, 0xEF	; 239
    1996:	8c 93       	st	X, r24
	    SET_BIT(TCCR1B, WGM12);
    1998:	ae e4       	ldi	r26, 0x4E	; 78
    199a:	b0 e0       	ldi	r27, 0x00	; 0
    199c:	ee e4       	ldi	r30, 0x4E	; 78
    199e:	f0 e0       	ldi	r31, 0x00	; 0
    19a0:	80 81       	ld	r24, Z
    19a2:	88 60       	ori	r24, 0x08	; 8
    19a4:	8c 93       	st	X, r24
	    CLR_BIT(TCCR1A, WGM11);
    19a6:	af e4       	ldi	r26, 0x4F	; 79
    19a8:	b0 e0       	ldi	r27, 0x00	; 0
    19aa:	ef e4       	ldi	r30, 0x4F	; 79
    19ac:	f0 e0       	ldi	r31, 0x00	; 0
    19ae:	80 81       	ld	r24, Z
    19b0:	8d 7f       	andi	r24, 0xFD	; 253
    19b2:	8c 93       	st	X, r24
	    CLR_BIT(TCCR1A, WGM10);
    19b4:	af e4       	ldi	r26, 0x4F	; 79
    19b6:	b0 e0       	ldi	r27, 0x00	; 0
    19b8:	ef e4       	ldi	r30, 0x4F	; 79
    19ba:	f0 e0       	ldi	r31, 0x00	; 0
    19bc:	80 81       	ld	r24, Z
    19be:	8e 7f       	andi	r24, 0xFE	; 254
    19c0:	8c 93       	st	X, r24

	    // Only enable the interrupt for 'A' (which we set to 249 in main)
	    SET_BIT(TIMSK, OCIE1A);
    19c2:	a9 e5       	ldi	r26, 0x59	; 89
    19c4:	b0 e0       	ldi	r27, 0x00	; 0
    19c6:	e9 e5       	ldi	r30, 0x59	; 89
    19c8:	f0 e0       	ldi	r31, 0x00	; 0
    19ca:	80 81       	ld	r24, Z
    19cc:	80 61       	ori	r24, 0x10	; 16
    19ce:	8c 93       	st	X, r24
	    CLR_BIT(TIMSK, OCIE1B); // Disable 'B' to be safe
    19d0:	a9 e5       	ldi	r26, 0x59	; 89
    19d2:	b0 e0       	ldi	r27, 0x00	; 0
    19d4:	e9 e5       	ldi	r30, 0x59	; 89
    19d6:	f0 e0       	ldi	r31, 0x00	; 0
    19d8:	80 81       	ld	r24, Z
    19da:	87 7f       	andi	r24, 0xF7	; 247
    19dc:	8c 93       	st	X, r24
    19de:	85 c2       	rjmp	.+1290   	; 0x1eea <Timer1_Init+0x9c0>
	    break;
	case TIMER1_PWM_FAST_8BIT           :
		CLR_BIT(TCCR1B , WGM13) ;
    19e0:	ae e4       	ldi	r26, 0x4E	; 78
    19e2:	b0 e0       	ldi	r27, 0x00	; 0
    19e4:	ee e4       	ldi	r30, 0x4E	; 78
    19e6:	f0 e0       	ldi	r31, 0x00	; 0
    19e8:	80 81       	ld	r24, Z
    19ea:	8f 7e       	andi	r24, 0xEF	; 239
    19ec:	8c 93       	st	X, r24
		SET_BIT(TCCR1B , WGM12) ;
    19ee:	ae e4       	ldi	r26, 0x4E	; 78
    19f0:	b0 e0       	ldi	r27, 0x00	; 0
    19f2:	ee e4       	ldi	r30, 0x4E	; 78
    19f4:	f0 e0       	ldi	r31, 0x00	; 0
    19f6:	80 81       	ld	r24, Z
    19f8:	88 60       	ori	r24, 0x08	; 8
    19fa:	8c 93       	st	X, r24
		CLR_BIT(TCCR1A , WGM11) ;
    19fc:	af e4       	ldi	r26, 0x4F	; 79
    19fe:	b0 e0       	ldi	r27, 0x00	; 0
    1a00:	ef e4       	ldi	r30, 0x4F	; 79
    1a02:	f0 e0       	ldi	r31, 0x00	; 0
    1a04:	80 81       	ld	r24, Z
    1a06:	8d 7f       	andi	r24, 0xFD	; 253
    1a08:	8c 93       	st	X, r24
		SET_BIT(TCCR1A , WGM10) ;
    1a0a:	af e4       	ldi	r26, 0x4F	; 79
    1a0c:	b0 e0       	ldi	r27, 0x00	; 0
    1a0e:	ef e4       	ldi	r30, 0x4F	; 79
    1a10:	f0 e0       	ldi	r31, 0x00	; 0
    1a12:	80 81       	ld	r24, Z
    1a14:	81 60       	ori	r24, 0x01	; 1
    1a16:	8c 93       	st	X, r24

		SET_BIT(TCCR1A , COM1A1) ;
    1a18:	af e4       	ldi	r26, 0x4F	; 79
    1a1a:	b0 e0       	ldi	r27, 0x00	; 0
    1a1c:	ef e4       	ldi	r30, 0x4F	; 79
    1a1e:	f0 e0       	ldi	r31, 0x00	; 0
    1a20:	80 81       	ld	r24, Z
    1a22:	80 68       	ori	r24, 0x80	; 128
    1a24:	8c 93       	st	X, r24
		CLR_BIT(TCCR1A , COM1A0) ;
    1a26:	af e4       	ldi	r26, 0x4F	; 79
    1a28:	b0 e0       	ldi	r27, 0x00	; 0
    1a2a:	ef e4       	ldi	r30, 0x4F	; 79
    1a2c:	f0 e0       	ldi	r31, 0x00	; 0
    1a2e:	80 81       	ld	r24, Z
    1a30:	8f 7b       	andi	r24, 0xBF	; 191
    1a32:	8c 93       	st	X, r24
		SET_BIT(TCCR1A , COM1B1) ;
    1a34:	af e4       	ldi	r26, 0x4F	; 79
    1a36:	b0 e0       	ldi	r27, 0x00	; 0
    1a38:	ef e4       	ldi	r30, 0x4F	; 79
    1a3a:	f0 e0       	ldi	r31, 0x00	; 0
    1a3c:	80 81       	ld	r24, Z
    1a3e:	80 62       	ori	r24, 0x20	; 32
    1a40:	8c 93       	st	X, r24
		CLR_BIT(TCCR1A , COM1B0) ;
    1a42:	af e4       	ldi	r26, 0x4F	; 79
    1a44:	b0 e0       	ldi	r27, 0x00	; 0
    1a46:	ef e4       	ldi	r30, 0x4F	; 79
    1a48:	f0 e0       	ldi	r31, 0x00	; 0
    1a4a:	80 81       	ld	r24, Z
    1a4c:	8f 7e       	andi	r24, 0xEF	; 239
    1a4e:	8c 93       	st	X, r24
		DIO_InitPin(DIO_PORTD, DIO_PIN4, DIO_OUTPUT) ;
    1a50:	84 e0       	ldi	r24, 0x04	; 4
    1a52:	64 e0       	ldi	r22, 0x04	; 4
    1a54:	41 e0       	ldi	r20, 0x01	; 1
    1a56:	0e 94 f0 12 	call	0x25e0	; 0x25e0 <DIO_InitPin>
		DIO_InitPin(DIO_PORTD, DIO_PIN5, DIO_OUTPUT) ;
    1a5a:	84 e0       	ldi	r24, 0x04	; 4
    1a5c:	65 e0       	ldi	r22, 0x05	; 5
    1a5e:	41 e0       	ldi	r20, 0x01	; 1
    1a60:	0e 94 f0 12 	call	0x25e0	; 0x25e0 <DIO_InitPin>
    1a64:	42 c2       	rjmp	.+1156   	; 0x1eea <Timer1_Init+0x9c0>
		break ;
	case TIMER1_PWM_FAST_9BIT           :
		CLR_BIT(TCCR1B , WGM13) ;
    1a66:	ae e4       	ldi	r26, 0x4E	; 78
    1a68:	b0 e0       	ldi	r27, 0x00	; 0
    1a6a:	ee e4       	ldi	r30, 0x4E	; 78
    1a6c:	f0 e0       	ldi	r31, 0x00	; 0
    1a6e:	80 81       	ld	r24, Z
    1a70:	8f 7e       	andi	r24, 0xEF	; 239
    1a72:	8c 93       	st	X, r24
		SET_BIT(TCCR1B , WGM12) ;
    1a74:	ae e4       	ldi	r26, 0x4E	; 78
    1a76:	b0 e0       	ldi	r27, 0x00	; 0
    1a78:	ee e4       	ldi	r30, 0x4E	; 78
    1a7a:	f0 e0       	ldi	r31, 0x00	; 0
    1a7c:	80 81       	ld	r24, Z
    1a7e:	88 60       	ori	r24, 0x08	; 8
    1a80:	8c 93       	st	X, r24
		SET_BIT(TCCR1A , WGM11) ;
    1a82:	af e4       	ldi	r26, 0x4F	; 79
    1a84:	b0 e0       	ldi	r27, 0x00	; 0
    1a86:	ef e4       	ldi	r30, 0x4F	; 79
    1a88:	f0 e0       	ldi	r31, 0x00	; 0
    1a8a:	80 81       	ld	r24, Z
    1a8c:	82 60       	ori	r24, 0x02	; 2
    1a8e:	8c 93       	st	X, r24
		CLR_BIT(TCCR1A , WGM10) ;
    1a90:	af e4       	ldi	r26, 0x4F	; 79
    1a92:	b0 e0       	ldi	r27, 0x00	; 0
    1a94:	ef e4       	ldi	r30, 0x4F	; 79
    1a96:	f0 e0       	ldi	r31, 0x00	; 0
    1a98:	80 81       	ld	r24, Z
    1a9a:	8e 7f       	andi	r24, 0xFE	; 254
    1a9c:	8c 93       	st	X, r24

		SET_BIT(TCCR1A , COM1A1) ;
    1a9e:	af e4       	ldi	r26, 0x4F	; 79
    1aa0:	b0 e0       	ldi	r27, 0x00	; 0
    1aa2:	ef e4       	ldi	r30, 0x4F	; 79
    1aa4:	f0 e0       	ldi	r31, 0x00	; 0
    1aa6:	80 81       	ld	r24, Z
    1aa8:	80 68       	ori	r24, 0x80	; 128
    1aaa:	8c 93       	st	X, r24
		CLR_BIT(TCCR1A , COM1A0) ;
    1aac:	af e4       	ldi	r26, 0x4F	; 79
    1aae:	b0 e0       	ldi	r27, 0x00	; 0
    1ab0:	ef e4       	ldi	r30, 0x4F	; 79
    1ab2:	f0 e0       	ldi	r31, 0x00	; 0
    1ab4:	80 81       	ld	r24, Z
    1ab6:	8f 7b       	andi	r24, 0xBF	; 191
    1ab8:	8c 93       	st	X, r24
		SET_BIT(TCCR1A , COM1B1) ;
    1aba:	af e4       	ldi	r26, 0x4F	; 79
    1abc:	b0 e0       	ldi	r27, 0x00	; 0
    1abe:	ef e4       	ldi	r30, 0x4F	; 79
    1ac0:	f0 e0       	ldi	r31, 0x00	; 0
    1ac2:	80 81       	ld	r24, Z
    1ac4:	80 62       	ori	r24, 0x20	; 32
    1ac6:	8c 93       	st	X, r24
		CLR_BIT(TCCR1A , COM1B0) ;
    1ac8:	af e4       	ldi	r26, 0x4F	; 79
    1aca:	b0 e0       	ldi	r27, 0x00	; 0
    1acc:	ef e4       	ldi	r30, 0x4F	; 79
    1ace:	f0 e0       	ldi	r31, 0x00	; 0
    1ad0:	80 81       	ld	r24, Z
    1ad2:	8f 7e       	andi	r24, 0xEF	; 239
    1ad4:	8c 93       	st	X, r24
		DIO_InitPin(DIO_PORTD, DIO_PIN4, DIO_OUTPUT) ;
    1ad6:	84 e0       	ldi	r24, 0x04	; 4
    1ad8:	64 e0       	ldi	r22, 0x04	; 4
    1ada:	41 e0       	ldi	r20, 0x01	; 1
    1adc:	0e 94 f0 12 	call	0x25e0	; 0x25e0 <DIO_InitPin>
		DIO_InitPin(DIO_PORTD, DIO_PIN5, DIO_OUTPUT) ;
    1ae0:	84 e0       	ldi	r24, 0x04	; 4
    1ae2:	65 e0       	ldi	r22, 0x05	; 5
    1ae4:	41 e0       	ldi	r20, 0x01	; 1
    1ae6:	0e 94 f0 12 	call	0x25e0	; 0x25e0 <DIO_InitPin>
    1aea:	ff c1       	rjmp	.+1022   	; 0x1eea <Timer1_Init+0x9c0>
		break ;
	case TIMER1_PWM_FAST_10BIT          :
		CLR_BIT(TCCR1B , WGM13) ;
    1aec:	ae e4       	ldi	r26, 0x4E	; 78
    1aee:	b0 e0       	ldi	r27, 0x00	; 0
    1af0:	ee e4       	ldi	r30, 0x4E	; 78
    1af2:	f0 e0       	ldi	r31, 0x00	; 0
    1af4:	80 81       	ld	r24, Z
    1af6:	8f 7e       	andi	r24, 0xEF	; 239
    1af8:	8c 93       	st	X, r24
		SET_BIT(TCCR1B , WGM12) ;
    1afa:	ae e4       	ldi	r26, 0x4E	; 78
    1afc:	b0 e0       	ldi	r27, 0x00	; 0
    1afe:	ee e4       	ldi	r30, 0x4E	; 78
    1b00:	f0 e0       	ldi	r31, 0x00	; 0
    1b02:	80 81       	ld	r24, Z
    1b04:	88 60       	ori	r24, 0x08	; 8
    1b06:	8c 93       	st	X, r24
		SET_BIT(TCCR1A , WGM11) ;
    1b08:	af e4       	ldi	r26, 0x4F	; 79
    1b0a:	b0 e0       	ldi	r27, 0x00	; 0
    1b0c:	ef e4       	ldi	r30, 0x4F	; 79
    1b0e:	f0 e0       	ldi	r31, 0x00	; 0
    1b10:	80 81       	ld	r24, Z
    1b12:	82 60       	ori	r24, 0x02	; 2
    1b14:	8c 93       	st	X, r24
		SET_BIT(TCCR1A , WGM10) ;
    1b16:	af e4       	ldi	r26, 0x4F	; 79
    1b18:	b0 e0       	ldi	r27, 0x00	; 0
    1b1a:	ef e4       	ldi	r30, 0x4F	; 79
    1b1c:	f0 e0       	ldi	r31, 0x00	; 0
    1b1e:	80 81       	ld	r24, Z
    1b20:	81 60       	ori	r24, 0x01	; 1
    1b22:	8c 93       	st	X, r24

		SET_BIT(TCCR1A , COM1A1) ;
    1b24:	af e4       	ldi	r26, 0x4F	; 79
    1b26:	b0 e0       	ldi	r27, 0x00	; 0
    1b28:	ef e4       	ldi	r30, 0x4F	; 79
    1b2a:	f0 e0       	ldi	r31, 0x00	; 0
    1b2c:	80 81       	ld	r24, Z
    1b2e:	80 68       	ori	r24, 0x80	; 128
    1b30:	8c 93       	st	X, r24
		CLR_BIT(TCCR1A , COM1A0) ;
    1b32:	af e4       	ldi	r26, 0x4F	; 79
    1b34:	b0 e0       	ldi	r27, 0x00	; 0
    1b36:	ef e4       	ldi	r30, 0x4F	; 79
    1b38:	f0 e0       	ldi	r31, 0x00	; 0
    1b3a:	80 81       	ld	r24, Z
    1b3c:	8f 7b       	andi	r24, 0xBF	; 191
    1b3e:	8c 93       	st	X, r24
		SET_BIT(TCCR1A , COM1B1) ;
    1b40:	af e4       	ldi	r26, 0x4F	; 79
    1b42:	b0 e0       	ldi	r27, 0x00	; 0
    1b44:	ef e4       	ldi	r30, 0x4F	; 79
    1b46:	f0 e0       	ldi	r31, 0x00	; 0
    1b48:	80 81       	ld	r24, Z
    1b4a:	80 62       	ori	r24, 0x20	; 32
    1b4c:	8c 93       	st	X, r24
		CLR_BIT(TCCR1A , COM1B0) ;
    1b4e:	af e4       	ldi	r26, 0x4F	; 79
    1b50:	b0 e0       	ldi	r27, 0x00	; 0
    1b52:	ef e4       	ldi	r30, 0x4F	; 79
    1b54:	f0 e0       	ldi	r31, 0x00	; 0
    1b56:	80 81       	ld	r24, Z
    1b58:	8f 7e       	andi	r24, 0xEF	; 239
    1b5a:	8c 93       	st	X, r24
		DIO_InitPin(DIO_PORTD, DIO_PIN4, DIO_OUTPUT) ;
    1b5c:	84 e0       	ldi	r24, 0x04	; 4
    1b5e:	64 e0       	ldi	r22, 0x04	; 4
    1b60:	41 e0       	ldi	r20, 0x01	; 1
    1b62:	0e 94 f0 12 	call	0x25e0	; 0x25e0 <DIO_InitPin>
		DIO_InitPin(DIO_PORTD, DIO_PIN5, DIO_OUTPUT) ;
    1b66:	84 e0       	ldi	r24, 0x04	; 4
    1b68:	65 e0       	ldi	r22, 0x05	; 5
    1b6a:	41 e0       	ldi	r20, 0x01	; 1
    1b6c:	0e 94 f0 12 	call	0x25e0	; 0x25e0 <DIO_InitPin>
    1b70:	bc c1       	rjmp	.+888    	; 0x1eea <Timer1_Init+0x9c0>
		break ;
	case TIMER1_FREQ_CORRECT_ICR1_TOP   :
		SET_BIT(TCCR1B , WGM13) ;
    1b72:	ae e4       	ldi	r26, 0x4E	; 78
    1b74:	b0 e0       	ldi	r27, 0x00	; 0
    1b76:	ee e4       	ldi	r30, 0x4E	; 78
    1b78:	f0 e0       	ldi	r31, 0x00	; 0
    1b7a:	80 81       	ld	r24, Z
    1b7c:	80 61       	ori	r24, 0x10	; 16
    1b7e:	8c 93       	st	X, r24
		CLR_BIT(TCCR1B , WGM12) ;
    1b80:	ae e4       	ldi	r26, 0x4E	; 78
    1b82:	b0 e0       	ldi	r27, 0x00	; 0
    1b84:	ee e4       	ldi	r30, 0x4E	; 78
    1b86:	f0 e0       	ldi	r31, 0x00	; 0
    1b88:	80 81       	ld	r24, Z
    1b8a:	87 7f       	andi	r24, 0xF7	; 247
    1b8c:	8c 93       	st	X, r24
		CLR_BIT(TCCR1A , WGM11) ;
    1b8e:	af e4       	ldi	r26, 0x4F	; 79
    1b90:	b0 e0       	ldi	r27, 0x00	; 0
    1b92:	ef e4       	ldi	r30, 0x4F	; 79
    1b94:	f0 e0       	ldi	r31, 0x00	; 0
    1b96:	80 81       	ld	r24, Z
    1b98:	8d 7f       	andi	r24, 0xFD	; 253
    1b9a:	8c 93       	st	X, r24
		CLR_BIT(TCCR1A , WGM10) ;
    1b9c:	af e4       	ldi	r26, 0x4F	; 79
    1b9e:	b0 e0       	ldi	r27, 0x00	; 0
    1ba0:	ef e4       	ldi	r30, 0x4F	; 79
    1ba2:	f0 e0       	ldi	r31, 0x00	; 0
    1ba4:	80 81       	ld	r24, Z
    1ba6:	8e 7f       	andi	r24, 0xFE	; 254
    1ba8:	8c 93       	st	X, r24

		SET_BIT(TCCR1A , COM1A1) ;
    1baa:	af e4       	ldi	r26, 0x4F	; 79
    1bac:	b0 e0       	ldi	r27, 0x00	; 0
    1bae:	ef e4       	ldi	r30, 0x4F	; 79
    1bb0:	f0 e0       	ldi	r31, 0x00	; 0
    1bb2:	80 81       	ld	r24, Z
    1bb4:	80 68       	ori	r24, 0x80	; 128
    1bb6:	8c 93       	st	X, r24
		CLR_BIT(TCCR1A , COM1A0) ;
    1bb8:	af e4       	ldi	r26, 0x4F	; 79
    1bba:	b0 e0       	ldi	r27, 0x00	; 0
    1bbc:	ef e4       	ldi	r30, 0x4F	; 79
    1bbe:	f0 e0       	ldi	r31, 0x00	; 0
    1bc0:	80 81       	ld	r24, Z
    1bc2:	8f 7b       	andi	r24, 0xBF	; 191
    1bc4:	8c 93       	st	X, r24
		SET_BIT(TCCR1A , COM1B1) ;
    1bc6:	af e4       	ldi	r26, 0x4F	; 79
    1bc8:	b0 e0       	ldi	r27, 0x00	; 0
    1bca:	ef e4       	ldi	r30, 0x4F	; 79
    1bcc:	f0 e0       	ldi	r31, 0x00	; 0
    1bce:	80 81       	ld	r24, Z
    1bd0:	80 62       	ori	r24, 0x20	; 32
    1bd2:	8c 93       	st	X, r24
		CLR_BIT(TCCR1A , COM1B0) ;
    1bd4:	af e4       	ldi	r26, 0x4F	; 79
    1bd6:	b0 e0       	ldi	r27, 0x00	; 0
    1bd8:	ef e4       	ldi	r30, 0x4F	; 79
    1bda:	f0 e0       	ldi	r31, 0x00	; 0
    1bdc:	80 81       	ld	r24, Z
    1bde:	8f 7e       	andi	r24, 0xEF	; 239
    1be0:	8c 93       	st	X, r24
		DIO_InitPin(DIO_PORTD, DIO_PIN4, DIO_OUTPUT) ;
    1be2:	84 e0       	ldi	r24, 0x04	; 4
    1be4:	64 e0       	ldi	r22, 0x04	; 4
    1be6:	41 e0       	ldi	r20, 0x01	; 1
    1be8:	0e 94 f0 12 	call	0x25e0	; 0x25e0 <DIO_InitPin>
		DIO_InitPin(DIO_PORTD, DIO_PIN5, DIO_OUTPUT) ;
    1bec:	84 e0       	ldi	r24, 0x04	; 4
    1bee:	65 e0       	ldi	r22, 0x05	; 5
    1bf0:	41 e0       	ldi	r20, 0x01	; 1
    1bf2:	0e 94 f0 12 	call	0x25e0	; 0x25e0 <DIO_InitPin>
    1bf6:	79 c1       	rjmp	.+754    	; 0x1eea <Timer1_Init+0x9c0>
		break ;
	case TIMER1_FREQ_CORRECT_OCR1A_TOP  :
		SET_BIT(TCCR1B , WGM13) ;
    1bf8:	ae e4       	ldi	r26, 0x4E	; 78
    1bfa:	b0 e0       	ldi	r27, 0x00	; 0
    1bfc:	ee e4       	ldi	r30, 0x4E	; 78
    1bfe:	f0 e0       	ldi	r31, 0x00	; 0
    1c00:	80 81       	ld	r24, Z
    1c02:	80 61       	ori	r24, 0x10	; 16
    1c04:	8c 93       	st	X, r24
		CLR_BIT(TCCR1B , WGM12) ;
    1c06:	ae e4       	ldi	r26, 0x4E	; 78
    1c08:	b0 e0       	ldi	r27, 0x00	; 0
    1c0a:	ee e4       	ldi	r30, 0x4E	; 78
    1c0c:	f0 e0       	ldi	r31, 0x00	; 0
    1c0e:	80 81       	ld	r24, Z
    1c10:	87 7f       	andi	r24, 0xF7	; 247
    1c12:	8c 93       	st	X, r24
		CLR_BIT(TCCR1A , WGM11) ;
    1c14:	af e4       	ldi	r26, 0x4F	; 79
    1c16:	b0 e0       	ldi	r27, 0x00	; 0
    1c18:	ef e4       	ldi	r30, 0x4F	; 79
    1c1a:	f0 e0       	ldi	r31, 0x00	; 0
    1c1c:	80 81       	ld	r24, Z
    1c1e:	8d 7f       	andi	r24, 0xFD	; 253
    1c20:	8c 93       	st	X, r24
		SET_BIT(TCCR1A , WGM10) ;
    1c22:	af e4       	ldi	r26, 0x4F	; 79
    1c24:	b0 e0       	ldi	r27, 0x00	; 0
    1c26:	ef e4       	ldi	r30, 0x4F	; 79
    1c28:	f0 e0       	ldi	r31, 0x00	; 0
    1c2a:	80 81       	ld	r24, Z
    1c2c:	81 60       	ori	r24, 0x01	; 1
    1c2e:	8c 93       	st	X, r24

		SET_BIT(TCCR1A , COM1A1) ;
    1c30:	af e4       	ldi	r26, 0x4F	; 79
    1c32:	b0 e0       	ldi	r27, 0x00	; 0
    1c34:	ef e4       	ldi	r30, 0x4F	; 79
    1c36:	f0 e0       	ldi	r31, 0x00	; 0
    1c38:	80 81       	ld	r24, Z
    1c3a:	80 68       	ori	r24, 0x80	; 128
    1c3c:	8c 93       	st	X, r24
		CLR_BIT(TCCR1A , COM1A0) ;
    1c3e:	af e4       	ldi	r26, 0x4F	; 79
    1c40:	b0 e0       	ldi	r27, 0x00	; 0
    1c42:	ef e4       	ldi	r30, 0x4F	; 79
    1c44:	f0 e0       	ldi	r31, 0x00	; 0
    1c46:	80 81       	ld	r24, Z
    1c48:	8f 7b       	andi	r24, 0xBF	; 191
    1c4a:	8c 93       	st	X, r24
		SET_BIT(TCCR1A , COM1B1) ;
    1c4c:	af e4       	ldi	r26, 0x4F	; 79
    1c4e:	b0 e0       	ldi	r27, 0x00	; 0
    1c50:	ef e4       	ldi	r30, 0x4F	; 79
    1c52:	f0 e0       	ldi	r31, 0x00	; 0
    1c54:	80 81       	ld	r24, Z
    1c56:	80 62       	ori	r24, 0x20	; 32
    1c58:	8c 93       	st	X, r24
		CLR_BIT(TCCR1A , COM1B0) ;
    1c5a:	af e4       	ldi	r26, 0x4F	; 79
    1c5c:	b0 e0       	ldi	r27, 0x00	; 0
    1c5e:	ef e4       	ldi	r30, 0x4F	; 79
    1c60:	f0 e0       	ldi	r31, 0x00	; 0
    1c62:	80 81       	ld	r24, Z
    1c64:	8f 7e       	andi	r24, 0xEF	; 239
    1c66:	8c 93       	st	X, r24
		DIO_InitPin(DIO_PORTD, DIO_PIN4, DIO_OUTPUT) ;
    1c68:	84 e0       	ldi	r24, 0x04	; 4
    1c6a:	64 e0       	ldi	r22, 0x04	; 4
    1c6c:	41 e0       	ldi	r20, 0x01	; 1
    1c6e:	0e 94 f0 12 	call	0x25e0	; 0x25e0 <DIO_InitPin>
		DIO_InitPin(DIO_PORTD, DIO_PIN5, DIO_OUTPUT) ;
    1c72:	84 e0       	ldi	r24, 0x04	; 4
    1c74:	65 e0       	ldi	r22, 0x05	; 5
    1c76:	41 e0       	ldi	r20, 0x01	; 1
    1c78:	0e 94 f0 12 	call	0x25e0	; 0x25e0 <DIO_InitPin>
    1c7c:	36 c1       	rjmp	.+620    	; 0x1eea <Timer1_Init+0x9c0>
		break ;
	case TIMER1_PHASE_CORRECT_ICR1_TOP  :
		SET_BIT(TCCR1B , WGM13) ;
    1c7e:	ae e4       	ldi	r26, 0x4E	; 78
    1c80:	b0 e0       	ldi	r27, 0x00	; 0
    1c82:	ee e4       	ldi	r30, 0x4E	; 78
    1c84:	f0 e0       	ldi	r31, 0x00	; 0
    1c86:	80 81       	ld	r24, Z
    1c88:	80 61       	ori	r24, 0x10	; 16
    1c8a:	8c 93       	st	X, r24
		CLR_BIT(TCCR1B , WGM12) ;
    1c8c:	ae e4       	ldi	r26, 0x4E	; 78
    1c8e:	b0 e0       	ldi	r27, 0x00	; 0
    1c90:	ee e4       	ldi	r30, 0x4E	; 78
    1c92:	f0 e0       	ldi	r31, 0x00	; 0
    1c94:	80 81       	ld	r24, Z
    1c96:	87 7f       	andi	r24, 0xF7	; 247
    1c98:	8c 93       	st	X, r24
		SET_BIT(TCCR1A , WGM11) ;
    1c9a:	af e4       	ldi	r26, 0x4F	; 79
    1c9c:	b0 e0       	ldi	r27, 0x00	; 0
    1c9e:	ef e4       	ldi	r30, 0x4F	; 79
    1ca0:	f0 e0       	ldi	r31, 0x00	; 0
    1ca2:	80 81       	ld	r24, Z
    1ca4:	82 60       	ori	r24, 0x02	; 2
    1ca6:	8c 93       	st	X, r24
		CLR_BIT(TCCR1A , WGM10) ;
    1ca8:	af e4       	ldi	r26, 0x4F	; 79
    1caa:	b0 e0       	ldi	r27, 0x00	; 0
    1cac:	ef e4       	ldi	r30, 0x4F	; 79
    1cae:	f0 e0       	ldi	r31, 0x00	; 0
    1cb0:	80 81       	ld	r24, Z
    1cb2:	8e 7f       	andi	r24, 0xFE	; 254
    1cb4:	8c 93       	st	X, r24

		SET_BIT(TCCR1A , COM1A1) ;
    1cb6:	af e4       	ldi	r26, 0x4F	; 79
    1cb8:	b0 e0       	ldi	r27, 0x00	; 0
    1cba:	ef e4       	ldi	r30, 0x4F	; 79
    1cbc:	f0 e0       	ldi	r31, 0x00	; 0
    1cbe:	80 81       	ld	r24, Z
    1cc0:	80 68       	ori	r24, 0x80	; 128
    1cc2:	8c 93       	st	X, r24
		CLR_BIT(TCCR1A , COM1A0) ;
    1cc4:	af e4       	ldi	r26, 0x4F	; 79
    1cc6:	b0 e0       	ldi	r27, 0x00	; 0
    1cc8:	ef e4       	ldi	r30, 0x4F	; 79
    1cca:	f0 e0       	ldi	r31, 0x00	; 0
    1ccc:	80 81       	ld	r24, Z
    1cce:	8f 7b       	andi	r24, 0xBF	; 191
    1cd0:	8c 93       	st	X, r24
		SET_BIT(TCCR1A , COM1B1) ;
    1cd2:	af e4       	ldi	r26, 0x4F	; 79
    1cd4:	b0 e0       	ldi	r27, 0x00	; 0
    1cd6:	ef e4       	ldi	r30, 0x4F	; 79
    1cd8:	f0 e0       	ldi	r31, 0x00	; 0
    1cda:	80 81       	ld	r24, Z
    1cdc:	80 62       	ori	r24, 0x20	; 32
    1cde:	8c 93       	st	X, r24
		CLR_BIT(TCCR1A , COM1B0) ;
    1ce0:	af e4       	ldi	r26, 0x4F	; 79
    1ce2:	b0 e0       	ldi	r27, 0x00	; 0
    1ce4:	ef e4       	ldi	r30, 0x4F	; 79
    1ce6:	f0 e0       	ldi	r31, 0x00	; 0
    1ce8:	80 81       	ld	r24, Z
    1cea:	8f 7e       	andi	r24, 0xEF	; 239
    1cec:	8c 93       	st	X, r24
		DIO_InitPin(DIO_PORTD, DIO_PIN4, DIO_OUTPUT) ;
    1cee:	84 e0       	ldi	r24, 0x04	; 4
    1cf0:	64 e0       	ldi	r22, 0x04	; 4
    1cf2:	41 e0       	ldi	r20, 0x01	; 1
    1cf4:	0e 94 f0 12 	call	0x25e0	; 0x25e0 <DIO_InitPin>
		DIO_InitPin(DIO_PORTD, DIO_PIN5, DIO_OUTPUT) ;
    1cf8:	84 e0       	ldi	r24, 0x04	; 4
    1cfa:	65 e0       	ldi	r22, 0x05	; 5
    1cfc:	41 e0       	ldi	r20, 0x01	; 1
    1cfe:	0e 94 f0 12 	call	0x25e0	; 0x25e0 <DIO_InitPin>
    1d02:	f3 c0       	rjmp	.+486    	; 0x1eea <Timer1_Init+0x9c0>
		break ;
	case TIMER1_PHASE_CORRECT_OCR1A_TOP :
		SET_BIT(TCCR1B , WGM13) ;
    1d04:	ae e4       	ldi	r26, 0x4E	; 78
    1d06:	b0 e0       	ldi	r27, 0x00	; 0
    1d08:	ee e4       	ldi	r30, 0x4E	; 78
    1d0a:	f0 e0       	ldi	r31, 0x00	; 0
    1d0c:	80 81       	ld	r24, Z
    1d0e:	80 61       	ori	r24, 0x10	; 16
    1d10:	8c 93       	st	X, r24
		CLR_BIT(TCCR1B , WGM12) ;
    1d12:	ae e4       	ldi	r26, 0x4E	; 78
    1d14:	b0 e0       	ldi	r27, 0x00	; 0
    1d16:	ee e4       	ldi	r30, 0x4E	; 78
    1d18:	f0 e0       	ldi	r31, 0x00	; 0
    1d1a:	80 81       	ld	r24, Z
    1d1c:	87 7f       	andi	r24, 0xF7	; 247
    1d1e:	8c 93       	st	X, r24
		SET_BIT(TCCR1A , WGM11) ;
    1d20:	af e4       	ldi	r26, 0x4F	; 79
    1d22:	b0 e0       	ldi	r27, 0x00	; 0
    1d24:	ef e4       	ldi	r30, 0x4F	; 79
    1d26:	f0 e0       	ldi	r31, 0x00	; 0
    1d28:	80 81       	ld	r24, Z
    1d2a:	82 60       	ori	r24, 0x02	; 2
    1d2c:	8c 93       	st	X, r24
		SET_BIT(TCCR1A , WGM10) ;
    1d2e:	af e4       	ldi	r26, 0x4F	; 79
    1d30:	b0 e0       	ldi	r27, 0x00	; 0
    1d32:	ef e4       	ldi	r30, 0x4F	; 79
    1d34:	f0 e0       	ldi	r31, 0x00	; 0
    1d36:	80 81       	ld	r24, Z
    1d38:	81 60       	ori	r24, 0x01	; 1
    1d3a:	8c 93       	st	X, r24

		SET_BIT(TCCR1A , COM1A1) ;
    1d3c:	af e4       	ldi	r26, 0x4F	; 79
    1d3e:	b0 e0       	ldi	r27, 0x00	; 0
    1d40:	ef e4       	ldi	r30, 0x4F	; 79
    1d42:	f0 e0       	ldi	r31, 0x00	; 0
    1d44:	80 81       	ld	r24, Z
    1d46:	80 68       	ori	r24, 0x80	; 128
    1d48:	8c 93       	st	X, r24
		CLR_BIT(TCCR1A , COM1A0) ;
    1d4a:	af e4       	ldi	r26, 0x4F	; 79
    1d4c:	b0 e0       	ldi	r27, 0x00	; 0
    1d4e:	ef e4       	ldi	r30, 0x4F	; 79
    1d50:	f0 e0       	ldi	r31, 0x00	; 0
    1d52:	80 81       	ld	r24, Z
    1d54:	8f 7b       	andi	r24, 0xBF	; 191
    1d56:	8c 93       	st	X, r24
		SET_BIT(TCCR1A , COM1B1) ;
    1d58:	af e4       	ldi	r26, 0x4F	; 79
    1d5a:	b0 e0       	ldi	r27, 0x00	; 0
    1d5c:	ef e4       	ldi	r30, 0x4F	; 79
    1d5e:	f0 e0       	ldi	r31, 0x00	; 0
    1d60:	80 81       	ld	r24, Z
    1d62:	80 62       	ori	r24, 0x20	; 32
    1d64:	8c 93       	st	X, r24
		CLR_BIT(TCCR1A , COM1B0) ;
    1d66:	af e4       	ldi	r26, 0x4F	; 79
    1d68:	b0 e0       	ldi	r27, 0x00	; 0
    1d6a:	ef e4       	ldi	r30, 0x4F	; 79
    1d6c:	f0 e0       	ldi	r31, 0x00	; 0
    1d6e:	80 81       	ld	r24, Z
    1d70:	8f 7e       	andi	r24, 0xEF	; 239
    1d72:	8c 93       	st	X, r24
		DIO_InitPin(DIO_PORTD, DIO_PIN4, DIO_OUTPUT) ;
    1d74:	84 e0       	ldi	r24, 0x04	; 4
    1d76:	64 e0       	ldi	r22, 0x04	; 4
    1d78:	41 e0       	ldi	r20, 0x01	; 1
    1d7a:	0e 94 f0 12 	call	0x25e0	; 0x25e0 <DIO_InitPin>
		DIO_InitPin(DIO_PORTD, DIO_PIN5, DIO_OUTPUT) ;
    1d7e:	84 e0       	ldi	r24, 0x04	; 4
    1d80:	65 e0       	ldi	r22, 0x05	; 5
    1d82:	41 e0       	ldi	r20, 0x01	; 1
    1d84:	0e 94 f0 12 	call	0x25e0	; 0x25e0 <DIO_InitPin>
    1d88:	b0 c0       	rjmp	.+352    	; 0x1eea <Timer1_Init+0x9c0>
		break ;
	case TIMER1_CTC_ICR1_TOP            :
		SET_BIT(TCCR1B , WGM13) ;
    1d8a:	ae e4       	ldi	r26, 0x4E	; 78
    1d8c:	b0 e0       	ldi	r27, 0x00	; 0
    1d8e:	ee e4       	ldi	r30, 0x4E	; 78
    1d90:	f0 e0       	ldi	r31, 0x00	; 0
    1d92:	80 81       	ld	r24, Z
    1d94:	80 61       	ori	r24, 0x10	; 16
    1d96:	8c 93       	st	X, r24
		SET_BIT(TCCR1B , WGM12) ;
    1d98:	ae e4       	ldi	r26, 0x4E	; 78
    1d9a:	b0 e0       	ldi	r27, 0x00	; 0
    1d9c:	ee e4       	ldi	r30, 0x4E	; 78
    1d9e:	f0 e0       	ldi	r31, 0x00	; 0
    1da0:	80 81       	ld	r24, Z
    1da2:	88 60       	ori	r24, 0x08	; 8
    1da4:	8c 93       	st	X, r24
		CLR_BIT(TCCR1A , WGM11) ;
    1da6:	af e4       	ldi	r26, 0x4F	; 79
    1da8:	b0 e0       	ldi	r27, 0x00	; 0
    1daa:	ef e4       	ldi	r30, 0x4F	; 79
    1dac:	f0 e0       	ldi	r31, 0x00	; 0
    1dae:	80 81       	ld	r24, Z
    1db0:	8d 7f       	andi	r24, 0xFD	; 253
    1db2:	8c 93       	st	X, r24
		CLR_BIT(TCCR1A , WGM10) ;
    1db4:	af e4       	ldi	r26, 0x4F	; 79
    1db6:	b0 e0       	ldi	r27, 0x00	; 0
    1db8:	ef e4       	ldi	r30, 0x4F	; 79
    1dba:	f0 e0       	ldi	r31, 0x00	; 0
    1dbc:	80 81       	ld	r24, Z
    1dbe:	8e 7f       	andi	r24, 0xFE	; 254
    1dc0:	8c 93       	st	X, r24

		SET_BIT(TIMSK , OCIE1A) ;
    1dc2:	a9 e5       	ldi	r26, 0x59	; 89
    1dc4:	b0 e0       	ldi	r27, 0x00	; 0
    1dc6:	e9 e5       	ldi	r30, 0x59	; 89
    1dc8:	f0 e0       	ldi	r31, 0x00	; 0
    1dca:	80 81       	ld	r24, Z
    1dcc:	80 61       	ori	r24, 0x10	; 16
    1dce:	8c 93       	st	X, r24
		SET_BIT(TIMSK , OCIE1B) ;
    1dd0:	a9 e5       	ldi	r26, 0x59	; 89
    1dd2:	b0 e0       	ldi	r27, 0x00	; 0
    1dd4:	e9 e5       	ldi	r30, 0x59	; 89
    1dd6:	f0 e0       	ldi	r31, 0x00	; 0
    1dd8:	80 81       	ld	r24, Z
    1dda:	88 60       	ori	r24, 0x08	; 8
    1ddc:	8c 93       	st	X, r24
    1dde:	85 c0       	rjmp	.+266    	; 0x1eea <Timer1_Init+0x9c0>
		break ;
	case TIMER1_FAST_PWM_ICR1_TOP       :
		SET_BIT(TCCR1B , WGM13) ;
    1de0:	ae e4       	ldi	r26, 0x4E	; 78
    1de2:	b0 e0       	ldi	r27, 0x00	; 0
    1de4:	ee e4       	ldi	r30, 0x4E	; 78
    1de6:	f0 e0       	ldi	r31, 0x00	; 0
    1de8:	80 81       	ld	r24, Z
    1dea:	80 61       	ori	r24, 0x10	; 16
    1dec:	8c 93       	st	X, r24
		SET_BIT(TCCR1B , WGM12) ;
    1dee:	ae e4       	ldi	r26, 0x4E	; 78
    1df0:	b0 e0       	ldi	r27, 0x00	; 0
    1df2:	ee e4       	ldi	r30, 0x4E	; 78
    1df4:	f0 e0       	ldi	r31, 0x00	; 0
    1df6:	80 81       	ld	r24, Z
    1df8:	88 60       	ori	r24, 0x08	; 8
    1dfa:	8c 93       	st	X, r24
		SET_BIT(TCCR1A , WGM11) ;
    1dfc:	af e4       	ldi	r26, 0x4F	; 79
    1dfe:	b0 e0       	ldi	r27, 0x00	; 0
    1e00:	ef e4       	ldi	r30, 0x4F	; 79
    1e02:	f0 e0       	ldi	r31, 0x00	; 0
    1e04:	80 81       	ld	r24, Z
    1e06:	82 60       	ori	r24, 0x02	; 2
    1e08:	8c 93       	st	X, r24
		CLR_BIT(TCCR1A , WGM10) ;
    1e0a:	af e4       	ldi	r26, 0x4F	; 79
    1e0c:	b0 e0       	ldi	r27, 0x00	; 0
    1e0e:	ef e4       	ldi	r30, 0x4F	; 79
    1e10:	f0 e0       	ldi	r31, 0x00	; 0
    1e12:	80 81       	ld	r24, Z
    1e14:	8e 7f       	andi	r24, 0xFE	; 254
    1e16:	8c 93       	st	X, r24

		SET_BIT(TCCR1A , COM1A1) ;
    1e18:	af e4       	ldi	r26, 0x4F	; 79
    1e1a:	b0 e0       	ldi	r27, 0x00	; 0
    1e1c:	ef e4       	ldi	r30, 0x4F	; 79
    1e1e:	f0 e0       	ldi	r31, 0x00	; 0
    1e20:	80 81       	ld	r24, Z
    1e22:	80 68       	ori	r24, 0x80	; 128
    1e24:	8c 93       	st	X, r24
		CLR_BIT(TCCR1A , COM1A0) ;
    1e26:	af e4       	ldi	r26, 0x4F	; 79
    1e28:	b0 e0       	ldi	r27, 0x00	; 0
    1e2a:	ef e4       	ldi	r30, 0x4F	; 79
    1e2c:	f0 e0       	ldi	r31, 0x00	; 0
    1e2e:	80 81       	ld	r24, Z
    1e30:	8f 7b       	andi	r24, 0xBF	; 191
    1e32:	8c 93       	st	X, r24
		SET_BIT(TCCR1A , COM1B1) ;
    1e34:	af e4       	ldi	r26, 0x4F	; 79
    1e36:	b0 e0       	ldi	r27, 0x00	; 0
    1e38:	ef e4       	ldi	r30, 0x4F	; 79
    1e3a:	f0 e0       	ldi	r31, 0x00	; 0
    1e3c:	80 81       	ld	r24, Z
    1e3e:	80 62       	ori	r24, 0x20	; 32
    1e40:	8c 93       	st	X, r24
		CLR_BIT(TCCR1A , COM1B0) ;
    1e42:	af e4       	ldi	r26, 0x4F	; 79
    1e44:	b0 e0       	ldi	r27, 0x00	; 0
    1e46:	ef e4       	ldi	r30, 0x4F	; 79
    1e48:	f0 e0       	ldi	r31, 0x00	; 0
    1e4a:	80 81       	ld	r24, Z
    1e4c:	8f 7e       	andi	r24, 0xEF	; 239
    1e4e:	8c 93       	st	X, r24
		DIO_InitPin(DIO_PORTD, DIO_PIN4, DIO_OUTPUT) ;
    1e50:	84 e0       	ldi	r24, 0x04	; 4
    1e52:	64 e0       	ldi	r22, 0x04	; 4
    1e54:	41 e0       	ldi	r20, 0x01	; 1
    1e56:	0e 94 f0 12 	call	0x25e0	; 0x25e0 <DIO_InitPin>
		DIO_InitPin(DIO_PORTD, DIO_PIN5, DIO_OUTPUT) ;
    1e5a:	84 e0       	ldi	r24, 0x04	; 4
    1e5c:	65 e0       	ldi	r22, 0x05	; 5
    1e5e:	41 e0       	ldi	r20, 0x01	; 1
    1e60:	0e 94 f0 12 	call	0x25e0	; 0x25e0 <DIO_InitPin>
    1e64:	42 c0       	rjmp	.+132    	; 0x1eea <Timer1_Init+0x9c0>
		break ;
	case TIMER1_FAST_PWM_OCR1A_TOP      :
		SET_BIT(TCCR1B , WGM13) ;
    1e66:	ae e4       	ldi	r26, 0x4E	; 78
    1e68:	b0 e0       	ldi	r27, 0x00	; 0
    1e6a:	ee e4       	ldi	r30, 0x4E	; 78
    1e6c:	f0 e0       	ldi	r31, 0x00	; 0
    1e6e:	80 81       	ld	r24, Z
    1e70:	80 61       	ori	r24, 0x10	; 16
    1e72:	8c 93       	st	X, r24
		SET_BIT(TCCR1B , WGM12) ;
    1e74:	ae e4       	ldi	r26, 0x4E	; 78
    1e76:	b0 e0       	ldi	r27, 0x00	; 0
    1e78:	ee e4       	ldi	r30, 0x4E	; 78
    1e7a:	f0 e0       	ldi	r31, 0x00	; 0
    1e7c:	80 81       	ld	r24, Z
    1e7e:	88 60       	ori	r24, 0x08	; 8
    1e80:	8c 93       	st	X, r24
		SET_BIT(TCCR1A , WGM11) ;
    1e82:	af e4       	ldi	r26, 0x4F	; 79
    1e84:	b0 e0       	ldi	r27, 0x00	; 0
    1e86:	ef e4       	ldi	r30, 0x4F	; 79
    1e88:	f0 e0       	ldi	r31, 0x00	; 0
    1e8a:	80 81       	ld	r24, Z
    1e8c:	82 60       	ori	r24, 0x02	; 2
    1e8e:	8c 93       	st	X, r24
		SET_BIT(TCCR1A , WGM10) ;
    1e90:	af e4       	ldi	r26, 0x4F	; 79
    1e92:	b0 e0       	ldi	r27, 0x00	; 0
    1e94:	ef e4       	ldi	r30, 0x4F	; 79
    1e96:	f0 e0       	ldi	r31, 0x00	; 0
    1e98:	80 81       	ld	r24, Z
    1e9a:	81 60       	ori	r24, 0x01	; 1
    1e9c:	8c 93       	st	X, r24

		SET_BIT(TCCR1A , COM1A1) ;
    1e9e:	af e4       	ldi	r26, 0x4F	; 79
    1ea0:	b0 e0       	ldi	r27, 0x00	; 0
    1ea2:	ef e4       	ldi	r30, 0x4F	; 79
    1ea4:	f0 e0       	ldi	r31, 0x00	; 0
    1ea6:	80 81       	ld	r24, Z
    1ea8:	80 68       	ori	r24, 0x80	; 128
    1eaa:	8c 93       	st	X, r24
		CLR_BIT(TCCR1A , COM1A0) ;
    1eac:	af e4       	ldi	r26, 0x4F	; 79
    1eae:	b0 e0       	ldi	r27, 0x00	; 0
    1eb0:	ef e4       	ldi	r30, 0x4F	; 79
    1eb2:	f0 e0       	ldi	r31, 0x00	; 0
    1eb4:	80 81       	ld	r24, Z
    1eb6:	8f 7b       	andi	r24, 0xBF	; 191
    1eb8:	8c 93       	st	X, r24
		SET_BIT(TCCR1A , COM1B1) ;
    1eba:	af e4       	ldi	r26, 0x4F	; 79
    1ebc:	b0 e0       	ldi	r27, 0x00	; 0
    1ebe:	ef e4       	ldi	r30, 0x4F	; 79
    1ec0:	f0 e0       	ldi	r31, 0x00	; 0
    1ec2:	80 81       	ld	r24, Z
    1ec4:	80 62       	ori	r24, 0x20	; 32
    1ec6:	8c 93       	st	X, r24
		CLR_BIT(TCCR1A , COM1B0) ;
    1ec8:	af e4       	ldi	r26, 0x4F	; 79
    1eca:	b0 e0       	ldi	r27, 0x00	; 0
    1ecc:	ef e4       	ldi	r30, 0x4F	; 79
    1ece:	f0 e0       	ldi	r31, 0x00	; 0
    1ed0:	80 81       	ld	r24, Z
    1ed2:	8f 7e       	andi	r24, 0xEF	; 239
    1ed4:	8c 93       	st	X, r24
		DIO_InitPin(DIO_PORTD, DIO_PIN4, DIO_OUTPUT) ;
    1ed6:	84 e0       	ldi	r24, 0x04	; 4
    1ed8:	64 e0       	ldi	r22, 0x04	; 4
    1eda:	41 e0       	ldi	r20, 0x01	; 1
    1edc:	0e 94 f0 12 	call	0x25e0	; 0x25e0 <DIO_InitPin>
		DIO_InitPin(DIO_PORTD, DIO_PIN5, DIO_OUTPUT) ;
    1ee0:	84 e0       	ldi	r24, 0x04	; 4
    1ee2:	65 e0       	ldi	r22, 0x05	; 5
    1ee4:	41 e0       	ldi	r20, 0x01	; 1
    1ee6:	0e 94 f0 12 	call	0x25e0	; 0x25e0 <DIO_InitPin>
		break ;
	}
}
    1eea:	2b 96       	adiw	r28, 0x0b	; 11
    1eec:	0f b6       	in	r0, 0x3f	; 63
    1eee:	f8 94       	cli
    1ef0:	de bf       	out	0x3e, r29	; 62
    1ef2:	0f be       	out	0x3f, r0	; 63
    1ef4:	cd bf       	out	0x3d, r28	; 61
    1ef6:	cf 91       	pop	r28
    1ef8:	df 91       	pop	r29
    1efa:	08 95       	ret

00001efc <Timer1_SetPWMA>:

void Timer1_SetPWMA (u16 CompareValue)
{
    1efc:	df 93       	push	r29
    1efe:	cf 93       	push	r28
    1f00:	00 d0       	rcall	.+0      	; 0x1f02 <Timer1_SetPWMA+0x6>
    1f02:	cd b7       	in	r28, 0x3d	; 61
    1f04:	de b7       	in	r29, 0x3e	; 62
    1f06:	9a 83       	std	Y+2, r25	; 0x02
    1f08:	89 83       	std	Y+1, r24	; 0x01
	OCR1A = CompareValue ;
    1f0a:	ea e4       	ldi	r30, 0x4A	; 74
    1f0c:	f0 e0       	ldi	r31, 0x00	; 0
    1f0e:	89 81       	ldd	r24, Y+1	; 0x01
    1f10:	9a 81       	ldd	r25, Y+2	; 0x02
    1f12:	91 83       	std	Z+1, r25	; 0x01
    1f14:	80 83       	st	Z, r24
}
    1f16:	0f 90       	pop	r0
    1f18:	0f 90       	pop	r0
    1f1a:	cf 91       	pop	r28
    1f1c:	df 91       	pop	r29
    1f1e:	08 95       	ret

00001f20 <Timer1_SetPWMB>:
void Timer1_SetPWMB (u16 CompareValue)
{
    1f20:	df 93       	push	r29
    1f22:	cf 93       	push	r28
    1f24:	00 d0       	rcall	.+0      	; 0x1f26 <Timer1_SetPWMB+0x6>
    1f26:	cd b7       	in	r28, 0x3d	; 61
    1f28:	de b7       	in	r29, 0x3e	; 62
    1f2a:	9a 83       	std	Y+2, r25	; 0x02
    1f2c:	89 83       	std	Y+1, r24	; 0x01
	OCR1B = CompareValue ;
    1f2e:	e8 e4       	ldi	r30, 0x48	; 72
    1f30:	f0 e0       	ldi	r31, 0x00	; 0
    1f32:	89 81       	ldd	r24, Y+1	; 0x01
    1f34:	9a 81       	ldd	r25, Y+2	; 0x02
    1f36:	91 83       	std	Z+1, r25	; 0x01
    1f38:	80 83       	st	Z, r24
}
    1f3a:	0f 90       	pop	r0
    1f3c:	0f 90       	pop	r0
    1f3e:	cf 91       	pop	r28
    1f40:	df 91       	pop	r29
    1f42:	08 95       	ret

00001f44 <Timer1_SetDesiredTime>:

void Timer1_SetDesiredTime (u32 TimeInMicro , void (*fptr)(void))
{
    1f44:	ef 92       	push	r14
    1f46:	ff 92       	push	r15
    1f48:	0f 93       	push	r16
    1f4a:	1f 93       	push	r17
    1f4c:	df 93       	push	r29
    1f4e:	cf 93       	push	r28
    1f50:	cd b7       	in	r28, 0x3d	; 61
    1f52:	de b7       	in	r29, 0x3e	; 62
    1f54:	62 97       	sbiw	r28, 0x12	; 18
    1f56:	0f b6       	in	r0, 0x3f	; 63
    1f58:	f8 94       	cli
    1f5a:	de bf       	out	0x3e, r29	; 62
    1f5c:	0f be       	out	0x3f, r0	; 63
    1f5e:	cd bf       	out	0x3d, r28	; 61
    1f60:	6d 87       	std	Y+13, r22	; 0x0d
    1f62:	7e 87       	std	Y+14, r23	; 0x0e
    1f64:	8f 87       	std	Y+15, r24	; 0x0f
    1f66:	98 8b       	std	Y+16, r25	; 0x10
    1f68:	5a 8b       	std	Y+18, r21	; 0x12
    1f6a:	49 8b       	std	Y+17, r20	; 0x11
	u32 OverFlowTimeInMicro = 8192 * G_Prescaller ;
    1f6c:	80 91 10 04 	lds	r24, 0x0410
    1f70:	90 91 11 04 	lds	r25, 0x0411
    1f74:	a0 91 12 04 	lds	r26, 0x0412
    1f78:	b0 91 13 04 	lds	r27, 0x0413
    1f7c:	07 2e       	mov	r0, r23
    1f7e:	7d e0       	ldi	r23, 0x0D	; 13
    1f80:	88 0f       	add	r24, r24
    1f82:	99 1f       	adc	r25, r25
    1f84:	aa 1f       	adc	r26, r26
    1f86:	bb 1f       	adc	r27, r27
    1f88:	7a 95       	dec	r23
    1f8a:	d1 f7       	brne	.-12     	; 0x1f80 <Timer1_SetDesiredTime+0x3c>
    1f8c:	70 2d       	mov	r23, r0
    1f8e:	89 87       	std	Y+9, r24	; 0x09
    1f90:	9a 87       	std	Y+10, r25	; 0x0a
    1f92:	ab 87       	std	Y+11, r26	; 0x0b
    1f94:	bc 87       	std	Y+12, r27	; 0x0c
	f32 OverFlowCounts = (f32)TimeInMicro/OverFlowTimeInMicro ;
    1f96:	6d 85       	ldd	r22, Y+13	; 0x0d
    1f98:	7e 85       	ldd	r23, Y+14	; 0x0e
    1f9a:	8f 85       	ldd	r24, Y+15	; 0x0f
    1f9c:	98 89       	ldd	r25, Y+16	; 0x10
    1f9e:	0e 94 e4 05 	call	0xbc8	; 0xbc8 <__floatunsisf>
    1fa2:	7b 01       	movw	r14, r22
    1fa4:	8c 01       	movw	r16, r24
    1fa6:	69 85       	ldd	r22, Y+9	; 0x09
    1fa8:	7a 85       	ldd	r23, Y+10	; 0x0a
    1faa:	8b 85       	ldd	r24, Y+11	; 0x0b
    1fac:	9c 85       	ldd	r25, Y+12	; 0x0c
    1fae:	0e 94 e4 05 	call	0xbc8	; 0xbc8 <__floatunsisf>
    1fb2:	9b 01       	movw	r18, r22
    1fb4:	ac 01       	movw	r20, r24
    1fb6:	c8 01       	movw	r24, r16
    1fb8:	b7 01       	movw	r22, r14
    1fba:	0e 94 96 03 	call	0x72c	; 0x72c <__divsf3>
    1fbe:	dc 01       	movw	r26, r24
    1fc0:	cb 01       	movw	r24, r22
    1fc2:	8d 83       	std	Y+5, r24	; 0x05
    1fc4:	9e 83       	std	Y+6, r25	; 0x06
    1fc6:	af 83       	std	Y+7, r26	; 0x07
    1fc8:	b8 87       	std	Y+8, r27	; 0x08
	u32 PreLoadValue ;
	Timer1_ptr = fptr ;
    1fca:	89 89       	ldd	r24, Y+17	; 0x11
    1fcc:	9a 89       	ldd	r25, Y+18	; 0x12
    1fce:	90 93 19 04 	sts	0x0419, r25
    1fd2:	80 93 18 04 	sts	0x0418, r24

	if (OverFlowCounts < 1.0)
    1fd6:	6d 81       	ldd	r22, Y+5	; 0x05
    1fd8:	7e 81       	ldd	r23, Y+6	; 0x06
    1fda:	8f 81       	ldd	r24, Y+7	; 0x07
    1fdc:	98 85       	ldd	r25, Y+8	; 0x08
    1fde:	20 e0       	ldi	r18, 0x00	; 0
    1fe0:	30 e0       	ldi	r19, 0x00	; 0
    1fe2:	40 e8       	ldi	r20, 0x80	; 128
    1fe4:	5f e3       	ldi	r21, 0x3F	; 63
    1fe6:	0e 94 02 05 	call	0xa04	; 0xa04 <__ltsf2>
    1fea:	88 23       	and	r24, r24
    1fec:	9c f5       	brge	.+102    	; 0x2054 <Timer1_SetDesiredTime+0x110>
	{
		G_OverFlowCounts = 1 ;
    1fee:	81 e0       	ldi	r24, 0x01	; 1
    1ff0:	90 e0       	ldi	r25, 0x00	; 0
    1ff2:	a0 e0       	ldi	r26, 0x00	; 0
    1ff4:	b0 e0       	ldi	r27, 0x00	; 0
    1ff6:	80 93 14 04 	sts	0x0414, r24
    1ffa:	90 93 15 04 	sts	0x0415, r25
    1ffe:	a0 93 16 04 	sts	0x0416, r26
    2002:	b0 93 17 04 	sts	0x0417, r27
		PreLoadValue = 65536-65536*OverFlowCounts ;
    2006:	6d 81       	ldd	r22, Y+5	; 0x05
    2008:	7e 81       	ldd	r23, Y+6	; 0x06
    200a:	8f 81       	ldd	r24, Y+7	; 0x07
    200c:	98 85       	ldd	r25, Y+8	; 0x08
    200e:	20 e0       	ldi	r18, 0x00	; 0
    2010:	30 e0       	ldi	r19, 0x00	; 0
    2012:	40 e8       	ldi	r20, 0x80	; 128
    2014:	57 ec       	ldi	r21, 0xC7	; 199
    2016:	0e 94 9c 02 	call	0x538	; 0x538 <__mulsf3>
    201a:	dc 01       	movw	r26, r24
    201c:	cb 01       	movw	r24, r22
    201e:	bc 01       	movw	r22, r24
    2020:	cd 01       	movw	r24, r26
    2022:	20 e0       	ldi	r18, 0x00	; 0
    2024:	30 e0       	ldi	r19, 0x00	; 0
    2026:	40 e8       	ldi	r20, 0x80	; 128
    2028:	57 e4       	ldi	r21, 0x47	; 71
    202a:	0e 94 6f 02 	call	0x4de	; 0x4de <__addsf3>
    202e:	dc 01       	movw	r26, r24
    2030:	cb 01       	movw	r24, r22
    2032:	bc 01       	movw	r22, r24
    2034:	cd 01       	movw	r24, r26
    2036:	0e 94 c6 00 	call	0x18c	; 0x18c <__fixunssfsi>
    203a:	dc 01       	movw	r26, r24
    203c:	cb 01       	movw	r24, r22
    203e:	89 83       	std	Y+1, r24	; 0x01
    2040:	9a 83       	std	Y+2, r25	; 0x02
    2042:	ab 83       	std	Y+3, r26	; 0x03
    2044:	bc 83       	std	Y+4, r27	; 0x04
		TCNT1 = PreLoadValue ;
    2046:	ec e4       	ldi	r30, 0x4C	; 76
    2048:	f0 e0       	ldi	r31, 0x00	; 0
    204a:	89 81       	ldd	r24, Y+1	; 0x01
    204c:	9a 81       	ldd	r25, Y+2	; 0x02
    204e:	91 83       	std	Z+1, r25	; 0x01
    2050:	80 83       	st	Z, r24
    2052:	a4 c0       	rjmp	.+328    	; 0x219c <Timer1_SetDesiredTime+0x258>
	}
	else if (OverFlowCounts == 1.0)
    2054:	6d 81       	ldd	r22, Y+5	; 0x05
    2056:	7e 81       	ldd	r23, Y+6	; 0x06
    2058:	8f 81       	ldd	r24, Y+7	; 0x07
    205a:	98 85       	ldd	r25, Y+8	; 0x08
    205c:	20 e0       	ldi	r18, 0x00	; 0
    205e:	30 e0       	ldi	r19, 0x00	; 0
    2060:	40 e8       	ldi	r20, 0x80	; 128
    2062:	5f e3       	ldi	r21, 0x3F	; 63
    2064:	0e 94 42 04 	call	0x884	; 0x884 <__eqsf2>
    2068:	88 23       	and	r24, r24
    206a:	69 f4       	brne	.+26     	; 0x2086 <Timer1_SetDesiredTime+0x142>
	{
		G_OverFlowCounts = 1 ;
    206c:	81 e0       	ldi	r24, 0x01	; 1
    206e:	90 e0       	ldi	r25, 0x00	; 0
    2070:	a0 e0       	ldi	r26, 0x00	; 0
    2072:	b0 e0       	ldi	r27, 0x00	; 0
    2074:	80 93 14 04 	sts	0x0414, r24
    2078:	90 93 15 04 	sts	0x0415, r25
    207c:	a0 93 16 04 	sts	0x0416, r26
    2080:	b0 93 17 04 	sts	0x0417, r27
    2084:	8b c0       	rjmp	.+278    	; 0x219c <Timer1_SetDesiredTime+0x258>
	}
	else if (OverFlowCounts > 1.0)
    2086:	6d 81       	ldd	r22, Y+5	; 0x05
    2088:	7e 81       	ldd	r23, Y+6	; 0x06
    208a:	8f 81       	ldd	r24, Y+7	; 0x07
    208c:	98 85       	ldd	r25, Y+8	; 0x08
    208e:	20 e0       	ldi	r18, 0x00	; 0
    2090:	30 e0       	ldi	r19, 0x00	; 0
    2092:	40 e8       	ldi	r20, 0x80	; 128
    2094:	5f e3       	ldi	r21, 0x3F	; 63
    2096:	0e 94 a2 04 	call	0x944	; 0x944 <__gtsf2>
    209a:	18 16       	cp	r1, r24
    209c:	0c f0       	brlt	.+2      	; 0x20a0 <Timer1_SetDesiredTime+0x15c>
    209e:	7e c0       	rjmp	.+252    	; 0x219c <Timer1_SetDesiredTime+0x258>
	{
		G_OverFlowCounts = OverFlowCounts ;
    20a0:	6d 81       	ldd	r22, Y+5	; 0x05
    20a2:	7e 81       	ldd	r23, Y+6	; 0x06
    20a4:	8f 81       	ldd	r24, Y+7	; 0x07
    20a6:	98 85       	ldd	r25, Y+8	; 0x08
    20a8:	0e 94 c6 00 	call	0x18c	; 0x18c <__fixunssfsi>
    20ac:	dc 01       	movw	r26, r24
    20ae:	cb 01       	movw	r24, r22
    20b0:	80 93 14 04 	sts	0x0414, r24
    20b4:	90 93 15 04 	sts	0x0415, r25
    20b8:	a0 93 16 04 	sts	0x0416, r26
    20bc:	b0 93 17 04 	sts	0x0417, r27
		if (OverFlowCounts-(u32)OverFlowCounts != 0.0)
    20c0:	6d 81       	ldd	r22, Y+5	; 0x05
    20c2:	7e 81       	ldd	r23, Y+6	; 0x06
    20c4:	8f 81       	ldd	r24, Y+7	; 0x07
    20c6:	98 85       	ldd	r25, Y+8	; 0x08
    20c8:	0e 94 c6 00 	call	0x18c	; 0x18c <__fixunssfsi>
    20cc:	dc 01       	movw	r26, r24
    20ce:	cb 01       	movw	r24, r22
    20d0:	bc 01       	movw	r22, r24
    20d2:	cd 01       	movw	r24, r26
    20d4:	0e 94 e4 05 	call	0xbc8	; 0xbc8 <__floatunsisf>
    20d8:	9b 01       	movw	r18, r22
    20da:	ac 01       	movw	r20, r24
    20dc:	6d 81       	ldd	r22, Y+5	; 0x05
    20de:	7e 81       	ldd	r23, Y+6	; 0x06
    20e0:	8f 81       	ldd	r24, Y+7	; 0x07
    20e2:	98 85       	ldd	r25, Y+8	; 0x08
    20e4:	0e 94 3e 02 	call	0x47c	; 0x47c <__subsf3>
    20e8:	dc 01       	movw	r26, r24
    20ea:	cb 01       	movw	r24, r22
    20ec:	bc 01       	movw	r22, r24
    20ee:	cd 01       	movw	r24, r26
    20f0:	20 e0       	ldi	r18, 0x00	; 0
    20f2:	30 e0       	ldi	r19, 0x00	; 0
    20f4:	40 e0       	ldi	r20, 0x00	; 0
    20f6:	50 e0       	ldi	r21, 0x00	; 0
    20f8:	0e 94 72 04 	call	0x8e4	; 0x8e4 <__nesf2>
    20fc:	88 23       	and	r24, r24
    20fe:	09 f4       	brne	.+2      	; 0x2102 <Timer1_SetDesiredTime+0x1be>
    2100:	4d c0       	rjmp	.+154    	; 0x219c <Timer1_SetDesiredTime+0x258>
		{
			PreLoadValue = 65536-(65536*(OverFlowCounts-(u32)OverFlowCounts)) ;
    2102:	6d 81       	ldd	r22, Y+5	; 0x05
    2104:	7e 81       	ldd	r23, Y+6	; 0x06
    2106:	8f 81       	ldd	r24, Y+7	; 0x07
    2108:	98 85       	ldd	r25, Y+8	; 0x08
    210a:	0e 94 c6 00 	call	0x18c	; 0x18c <__fixunssfsi>
    210e:	dc 01       	movw	r26, r24
    2110:	cb 01       	movw	r24, r22
    2112:	bc 01       	movw	r22, r24
    2114:	cd 01       	movw	r24, r26
    2116:	0e 94 e4 05 	call	0xbc8	; 0xbc8 <__floatunsisf>
    211a:	9b 01       	movw	r18, r22
    211c:	ac 01       	movw	r20, r24
    211e:	6d 81       	ldd	r22, Y+5	; 0x05
    2120:	7e 81       	ldd	r23, Y+6	; 0x06
    2122:	8f 81       	ldd	r24, Y+7	; 0x07
    2124:	98 85       	ldd	r25, Y+8	; 0x08
    2126:	0e 94 3e 02 	call	0x47c	; 0x47c <__subsf3>
    212a:	dc 01       	movw	r26, r24
    212c:	cb 01       	movw	r24, r22
    212e:	bc 01       	movw	r22, r24
    2130:	cd 01       	movw	r24, r26
    2132:	20 e0       	ldi	r18, 0x00	; 0
    2134:	30 e0       	ldi	r19, 0x00	; 0
    2136:	40 e8       	ldi	r20, 0x80	; 128
    2138:	57 ec       	ldi	r21, 0xC7	; 199
    213a:	0e 94 9c 02 	call	0x538	; 0x538 <__mulsf3>
    213e:	dc 01       	movw	r26, r24
    2140:	cb 01       	movw	r24, r22
    2142:	bc 01       	movw	r22, r24
    2144:	cd 01       	movw	r24, r26
    2146:	20 e0       	ldi	r18, 0x00	; 0
    2148:	30 e0       	ldi	r19, 0x00	; 0
    214a:	40 e8       	ldi	r20, 0x80	; 128
    214c:	57 e4       	ldi	r21, 0x47	; 71
    214e:	0e 94 6f 02 	call	0x4de	; 0x4de <__addsf3>
    2152:	dc 01       	movw	r26, r24
    2154:	cb 01       	movw	r24, r22
    2156:	bc 01       	movw	r22, r24
    2158:	cd 01       	movw	r24, r26
    215a:	0e 94 c6 00 	call	0x18c	; 0x18c <__fixunssfsi>
    215e:	dc 01       	movw	r26, r24
    2160:	cb 01       	movw	r24, r22
    2162:	89 83       	std	Y+1, r24	; 0x01
    2164:	9a 83       	std	Y+2, r25	; 0x02
    2166:	ab 83       	std	Y+3, r26	; 0x03
    2168:	bc 83       	std	Y+4, r27	; 0x04
			G_OverFlowCounts ++ ;
    216a:	80 91 14 04 	lds	r24, 0x0414
    216e:	90 91 15 04 	lds	r25, 0x0415
    2172:	a0 91 16 04 	lds	r26, 0x0416
    2176:	b0 91 17 04 	lds	r27, 0x0417
    217a:	01 96       	adiw	r24, 0x01	; 1
    217c:	a1 1d       	adc	r26, r1
    217e:	b1 1d       	adc	r27, r1
    2180:	80 93 14 04 	sts	0x0414, r24
    2184:	90 93 15 04 	sts	0x0415, r25
    2188:	a0 93 16 04 	sts	0x0416, r26
    218c:	b0 93 17 04 	sts	0x0417, r27
			TCNT1 = PreLoadValue ;
    2190:	ec e4       	ldi	r30, 0x4C	; 76
    2192:	f0 e0       	ldi	r31, 0x00	; 0
    2194:	89 81       	ldd	r24, Y+1	; 0x01
    2196:	9a 81       	ldd	r25, Y+2	; 0x02
    2198:	91 83       	std	Z+1, r25	; 0x01
    219a:	80 83       	st	Z, r24
		}
	}
}
    219c:	62 96       	adiw	r28, 0x12	; 18
    219e:	0f b6       	in	r0, 0x3f	; 63
    21a0:	f8 94       	cli
    21a2:	de bf       	out	0x3e, r29	; 62
    21a4:	0f be       	out	0x3f, r0	; 63
    21a6:	cd bf       	out	0x3d, r28	; 61
    21a8:	cf 91       	pop	r28
    21aa:	df 91       	pop	r29
    21ac:	1f 91       	pop	r17
    21ae:	0f 91       	pop	r16
    21b0:	ff 90       	pop	r15
    21b2:	ef 90       	pop	r14
    21b4:	08 95       	ret

000021b6 <Timer1_CalcFreqAtTon>:

u32  Timer1_CalcFreqAtTon (void)
{
    21b6:	ef 92       	push	r14
    21b8:	ff 92       	push	r15
    21ba:	0f 93       	push	r16
    21bc:	1f 93       	push	r17
    21be:	df 93       	push	r29
    21c0:	cf 93       	push	r28
    21c2:	cd b7       	in	r28, 0x3d	; 61
    21c4:	de b7       	in	r29, 0x3e	; 62
    21c6:	60 97       	sbiw	r28, 0x10	; 16
    21c8:	0f b6       	in	r0, 0x3f	; 63
    21ca:	f8 94       	cli
    21cc:	de bf       	out	0x3e, r29	; 62
    21ce:	0f be       	out	0x3f, r0	; 63
    21d0:	cd bf       	out	0x3d, r28	; 61
	u32 CountsForFistRising = 0 ;
    21d2:	1d 86       	std	Y+13, r1	; 0x0d
    21d4:	1e 86       	std	Y+14, r1	; 0x0e
    21d6:	1f 86       	std	Y+15, r1	; 0x0f
    21d8:	18 8a       	std	Y+16, r1	; 0x10
	u32 CountsForFistFailling = 0 ;
    21da:	19 86       	std	Y+9, r1	; 0x09
    21dc:	1a 86       	std	Y+10, r1	; 0x0a
    21de:	1b 86       	std	Y+11, r1	; 0x0b
    21e0:	1c 86       	std	Y+12, r1	; 0x0c
	u32 Counts ;
	u32 Freq ;
	/*detect first rising*/
	SET_BIT(TIFR , ICF1) ;
    21e2:	a8 e5       	ldi	r26, 0x58	; 88
    21e4:	b0 e0       	ldi	r27, 0x00	; 0
    21e6:	e8 e5       	ldi	r30, 0x58	; 88
    21e8:	f0 e0       	ldi	r31, 0x00	; 0
    21ea:	80 81       	ld	r24, Z
    21ec:	80 62       	ori	r24, 0x20	; 32
    21ee:	8c 93       	st	X, r24
	SET_BIT(TCCR1B , ICES1) ;
    21f0:	ae e4       	ldi	r26, 0x4E	; 78
    21f2:	b0 e0       	ldi	r27, 0x00	; 0
    21f4:	ee e4       	ldi	r30, 0x4E	; 78
    21f6:	f0 e0       	ldi	r31, 0x00	; 0
    21f8:	80 81       	ld	r24, Z
    21fa:	80 64       	ori	r24, 0x40	; 64
    21fc:	8c 93       	st	X, r24
	while (READ_BIT(TIFR , ICF1) == 0 );
    21fe:	e8 e5       	ldi	r30, 0x58	; 88
    2200:	f0 e0       	ldi	r31, 0x00	; 0
    2202:	80 81       	ld	r24, Z
    2204:	88 2f       	mov	r24, r24
    2206:	90 e0       	ldi	r25, 0x00	; 0
    2208:	80 72       	andi	r24, 0x20	; 32
    220a:	90 70       	andi	r25, 0x00	; 0
    220c:	95 95       	asr	r25
    220e:	87 95       	ror	r24
    2210:	95 95       	asr	r25
    2212:	87 95       	ror	r24
    2214:	95 95       	asr	r25
    2216:	87 95       	ror	r24
    2218:	95 95       	asr	r25
    221a:	87 95       	ror	r24
    221c:	95 95       	asr	r25
    221e:	87 95       	ror	r24
    2220:	00 97       	sbiw	r24, 0x00	; 0
    2222:	69 f3       	breq	.-38     	; 0x21fe <Timer1_CalcFreqAtTon+0x48>
	CountsForFistRising = ICR1 ;
    2224:	e6 e4       	ldi	r30, 0x46	; 70
    2226:	f0 e0       	ldi	r31, 0x00	; 0
    2228:	80 81       	ld	r24, Z
    222a:	91 81       	ldd	r25, Z+1	; 0x01
    222c:	cc 01       	movw	r24, r24
    222e:	a0 e0       	ldi	r26, 0x00	; 0
    2230:	b0 e0       	ldi	r27, 0x00	; 0
    2232:	8d 87       	std	Y+13, r24	; 0x0d
    2234:	9e 87       	std	Y+14, r25	; 0x0e
    2236:	af 87       	std	Y+15, r26	; 0x0f
    2238:	b8 8b       	std	Y+16, r27	; 0x10

	/*detect first failing*/
	SET_BIT(TIFR , ICF1) ;
    223a:	a8 e5       	ldi	r26, 0x58	; 88
    223c:	b0 e0       	ldi	r27, 0x00	; 0
    223e:	e8 e5       	ldi	r30, 0x58	; 88
    2240:	f0 e0       	ldi	r31, 0x00	; 0
    2242:	80 81       	ld	r24, Z
    2244:	80 62       	ori	r24, 0x20	; 32
    2246:	8c 93       	st	X, r24
	CLR_BIT(TCCR1B , ICES1) ;
    2248:	ae e4       	ldi	r26, 0x4E	; 78
    224a:	b0 e0       	ldi	r27, 0x00	; 0
    224c:	ee e4       	ldi	r30, 0x4E	; 78
    224e:	f0 e0       	ldi	r31, 0x00	; 0
    2250:	80 81       	ld	r24, Z
    2252:	8f 7b       	andi	r24, 0xBF	; 191
    2254:	8c 93       	st	X, r24
	while (READ_BIT(TIFR , ICF1) == 0 );
    2256:	e8 e5       	ldi	r30, 0x58	; 88
    2258:	f0 e0       	ldi	r31, 0x00	; 0
    225a:	80 81       	ld	r24, Z
    225c:	88 2f       	mov	r24, r24
    225e:	90 e0       	ldi	r25, 0x00	; 0
    2260:	80 72       	andi	r24, 0x20	; 32
    2262:	90 70       	andi	r25, 0x00	; 0
    2264:	95 95       	asr	r25
    2266:	87 95       	ror	r24
    2268:	95 95       	asr	r25
    226a:	87 95       	ror	r24
    226c:	95 95       	asr	r25
    226e:	87 95       	ror	r24
    2270:	95 95       	asr	r25
    2272:	87 95       	ror	r24
    2274:	95 95       	asr	r25
    2276:	87 95       	ror	r24
    2278:	00 97       	sbiw	r24, 0x00	; 0
    227a:	69 f3       	breq	.-38     	; 0x2256 <Timer1_CalcFreqAtTon+0xa0>
	CountsForFistFailling = ICR1 ;
    227c:	e6 e4       	ldi	r30, 0x46	; 70
    227e:	f0 e0       	ldi	r31, 0x00	; 0
    2280:	80 81       	ld	r24, Z
    2282:	91 81       	ldd	r25, Z+1	; 0x01
    2284:	cc 01       	movw	r24, r24
    2286:	a0 e0       	ldi	r26, 0x00	; 0
    2288:	b0 e0       	ldi	r27, 0x00	; 0
    228a:	89 87       	std	Y+9, r24	; 0x09
    228c:	9a 87       	std	Y+10, r25	; 0x0a
    228e:	ab 87       	std	Y+11, r26	; 0x0b
    2290:	bc 87       	std	Y+12, r27	; 0x0c
	Counts = CountsForFistFailling - CountsForFistRising ;
    2292:	29 85       	ldd	r18, Y+9	; 0x09
    2294:	3a 85       	ldd	r19, Y+10	; 0x0a
    2296:	4b 85       	ldd	r20, Y+11	; 0x0b
    2298:	5c 85       	ldd	r21, Y+12	; 0x0c
    229a:	8d 85       	ldd	r24, Y+13	; 0x0d
    229c:	9e 85       	ldd	r25, Y+14	; 0x0e
    229e:	af 85       	ldd	r26, Y+15	; 0x0f
    22a0:	b8 89       	ldd	r27, Y+16	; 0x10
    22a2:	79 01       	movw	r14, r18
    22a4:	8a 01       	movw	r16, r20
    22a6:	e8 1a       	sub	r14, r24
    22a8:	f9 0a       	sbc	r15, r25
    22aa:	0a 0b       	sbc	r16, r26
    22ac:	1b 0b       	sbc	r17, r27
    22ae:	d8 01       	movw	r26, r16
    22b0:	c7 01       	movw	r24, r14
    22b2:	8d 83       	std	Y+5, r24	; 0x05
    22b4:	9e 83       	std	Y+6, r25	; 0x06
    22b6:	af 83       	std	Y+7, r26	; 0x07
    22b8:	b8 87       	std	Y+8, r27	; 0x08

	Freq = 8000000/(Counts*G_Prescaller) ;
    22ba:	80 91 10 04 	lds	r24, 0x0410
    22be:	90 91 11 04 	lds	r25, 0x0411
    22c2:	a0 91 12 04 	lds	r26, 0x0412
    22c6:	b0 91 13 04 	lds	r27, 0x0413
    22ca:	2d 81       	ldd	r18, Y+5	; 0x05
    22cc:	3e 81       	ldd	r19, Y+6	; 0x06
    22ce:	4f 81       	ldd	r20, Y+7	; 0x07
    22d0:	58 85       	ldd	r21, Y+8	; 0x08
    22d2:	bc 01       	movw	r22, r24
    22d4:	cd 01       	movw	r24, r26
    22d6:	0e 94 e8 2d 	call	0x5bd0	; 0x5bd0 <__mulsi3>
    22da:	9b 01       	movw	r18, r22
    22dc:	ac 01       	movw	r20, r24
    22de:	80 e0       	ldi	r24, 0x00	; 0
    22e0:	92 e1       	ldi	r25, 0x12	; 18
    22e2:	aa e7       	ldi	r26, 0x7A	; 122
    22e4:	b0 e0       	ldi	r27, 0x00	; 0
    22e6:	bc 01       	movw	r22, r24
    22e8:	cd 01       	movw	r24, r26
    22ea:	0e 94 1b 2e 	call	0x5c36	; 0x5c36 <__udivmodsi4>
    22ee:	da 01       	movw	r26, r20
    22f0:	c9 01       	movw	r24, r18
    22f2:	89 83       	std	Y+1, r24	; 0x01
    22f4:	9a 83       	std	Y+2, r25	; 0x02
    22f6:	ab 83       	std	Y+3, r26	; 0x03
    22f8:	bc 83       	std	Y+4, r27	; 0x04
	return Freq ;
    22fa:	89 81       	ldd	r24, Y+1	; 0x01
    22fc:	9a 81       	ldd	r25, Y+2	; 0x02
    22fe:	ab 81       	ldd	r26, Y+3	; 0x03
    2300:	bc 81       	ldd	r27, Y+4	; 0x04

}
    2302:	bc 01       	movw	r22, r24
    2304:	cd 01       	movw	r24, r26
    2306:	60 96       	adiw	r28, 0x10	; 16
    2308:	0f b6       	in	r0, 0x3f	; 63
    230a:	f8 94       	cli
    230c:	de bf       	out	0x3e, r29	; 62
    230e:	0f be       	out	0x3f, r0	; 63
    2310:	cd bf       	out	0x3d, r28	; 61
    2312:	cf 91       	pop	r28
    2314:	df 91       	pop	r29
    2316:	1f 91       	pop	r17
    2318:	0f 91       	pop	r16
    231a:	ff 90       	pop	r15
    231c:	ef 90       	pop	r14
    231e:	08 95       	ret

00002320 <I2C_GetStatus>:
#include <util\delay.h>
#include "../USART_Online/USART_Online.h"


u8 I2C_GetStatus(void)
{
    2320:	df 93       	push	r29
    2322:	cf 93       	push	r28
    2324:	cd b7       	in	r28, 0x3d	; 61
    2326:	de b7       	in	r29, 0x3e	; 62
	return (TWSR & 0xF8);
    2328:	e1 e2       	ldi	r30, 0x21	; 33
    232a:	f0 e0       	ldi	r31, 0x00	; 0
    232c:	80 81       	ld	r24, Z
    232e:	88 7f       	andi	r24, 0xF8	; 248
}
    2330:	cf 91       	pop	r28
    2332:	df 91       	pop	r29
    2334:	08 95       	ret

00002336 <I2C_Masterinit>:


void I2C_Masterinit(u32 SCL){
    2336:	0f 93       	push	r16
    2338:	1f 93       	push	r17
    233a:	df 93       	push	r29
    233c:	cf 93       	push	r28
    233e:	00 d0       	rcall	.+0      	; 0x2340 <I2C_Masterinit+0xa>
    2340:	00 d0       	rcall	.+0      	; 0x2342 <I2C_Masterinit+0xc>
    2342:	cd b7       	in	r28, 0x3d	; 61
    2344:	de b7       	in	r29, 0x3e	; 62
    2346:	69 83       	std	Y+1, r22	; 0x01
    2348:	7a 83       	std	Y+2, r23	; 0x02
    234a:	8b 83       	std	Y+3, r24	; 0x03
    234c:	9c 83       	std	Y+4, r25	; 0x04
	TWBR = ((16000000UL/SCL) - 16) /(2*I2C_PRESCALER) ;
    234e:	00 e2       	ldi	r16, 0x20	; 32
    2350:	10 e0       	ldi	r17, 0x00	; 0
    2352:	80 e0       	ldi	r24, 0x00	; 0
    2354:	94 e2       	ldi	r25, 0x24	; 36
    2356:	a4 ef       	ldi	r26, 0xF4	; 244
    2358:	b0 e0       	ldi	r27, 0x00	; 0
    235a:	29 81       	ldd	r18, Y+1	; 0x01
    235c:	3a 81       	ldd	r19, Y+2	; 0x02
    235e:	4b 81       	ldd	r20, Y+3	; 0x03
    2360:	5c 81       	ldd	r21, Y+4	; 0x04
    2362:	bc 01       	movw	r22, r24
    2364:	cd 01       	movw	r24, r26
    2366:	0e 94 1b 2e 	call	0x5c36	; 0x5c36 <__udivmodsi4>
    236a:	da 01       	movw	r26, r20
    236c:	c9 01       	movw	r24, r18
    236e:	40 97       	sbiw	r24, 0x10	; 16
    2370:	a1 09       	sbc	r26, r1
    2372:	b1 09       	sbc	r27, r1
    2374:	68 94       	set
    2376:	12 f8       	bld	r1, 2
    2378:	b6 95       	lsr	r27
    237a:	a7 95       	ror	r26
    237c:	97 95       	ror	r25
    237e:	87 95       	ror	r24
    2380:	16 94       	lsr	r1
    2382:	d1 f7       	brne	.-12     	; 0x2378 <I2C_Masterinit+0x42>
    2384:	f8 01       	movw	r30, r16
    2386:	80 83       	st	Z, r24

	switch(I2C_PRESCALER)
	{
	case 1:  TWSR =0; break;
	case 4:  TWSR =1; break;
    2388:	e1 e2       	ldi	r30, 0x21	; 33
    238a:	f0 e0       	ldi	r31, 0x00	; 0
    238c:	81 e0       	ldi	r24, 0x01	; 1
    238e:	80 83       	st	Z, r24
	case 16: TWSR =2; break;
	case 64: TWSR =3; break;
	}

	 TWCR = (1<<TWEN);
    2390:	e6 e5       	ldi	r30, 0x56	; 86
    2392:	f0 e0       	ldi	r31, 0x00	; 0
    2394:	84 e0       	ldi	r24, 0x04	; 4
    2396:	80 83       	st	Z, r24
}
    2398:	0f 90       	pop	r0
    239a:	0f 90       	pop	r0
    239c:	0f 90       	pop	r0
    239e:	0f 90       	pop	r0
    23a0:	cf 91       	pop	r28
    23a2:	df 91       	pop	r29
    23a4:	1f 91       	pop	r17
    23a6:	0f 91       	pop	r16
    23a8:	08 95       	ret

000023aa <I2C_SendStartCond>:


void I2C_SendStartCond(void){
    23aa:	df 93       	push	r29
    23ac:	cf 93       	push	r28
    23ae:	cd b7       	in	r28, 0x3d	; 61
    23b0:	de b7       	in	r29, 0x3e	; 62
    TWCR = (1<<TWINT) | (1<<TWEN) | (1<<TWSTA);
    23b2:	e6 e5       	ldi	r30, 0x56	; 86
    23b4:	f0 e0       	ldi	r31, 0x00	; 0
    23b6:	84 ea       	ldi	r24, 0xA4	; 164
    23b8:	80 83       	st	Z, r24
    while(READ_BIT(TWCR, TWINT) == 0);
    23ba:	e6 e5       	ldi	r30, 0x56	; 86
    23bc:	f0 e0       	ldi	r31, 0x00	; 0
    23be:	80 81       	ld	r24, Z
    23c0:	88 1f       	adc	r24, r24
    23c2:	88 27       	eor	r24, r24
    23c4:	88 1f       	adc	r24, r24
    23c6:	88 2f       	mov	r24, r24
    23c8:	90 e0       	ldi	r25, 0x00	; 0
    23ca:	90 70       	andi	r25, 0x00	; 0
    23cc:	00 97       	sbiw	r24, 0x00	; 0
    23ce:	a9 f3       	breq	.-22     	; 0x23ba <I2C_SendStartCond+0x10>
    while( (I2C_GetStatus() != 0x08) &&
    23d0:	0e 94 90 11 	call	0x2320	; 0x2320 <I2C_GetStatus>
    23d4:	88 30       	cpi	r24, 0x08	; 8
    23d6:	21 f0       	breq	.+8      	; 0x23e0 <I2C_SendStartCond+0x36>
    23d8:	0e 94 90 11 	call	0x2320	; 0x2320 <I2C_GetStatus>
    23dc:	80 31       	cpi	r24, 0x10	; 16
    23de:	c1 f7       	brne	.-16     	; 0x23d0 <I2C_SendStartCond+0x26>
           (I2C_GetStatus() != 0x10) );
}
    23e0:	cf 91       	pop	r28
    23e2:	df 91       	pop	r29
    23e4:	08 95       	ret

000023e6 <I2C_SendAdd>:


void I2C_SendAdd(u8 Add){
    23e6:	df 93       	push	r29
    23e8:	cf 93       	push	r28
    23ea:	00 d0       	rcall	.+0      	; 0x23ec <I2C_SendAdd+0x6>
    23ec:	cd b7       	in	r28, 0x3d	; 61
    23ee:	de b7       	in	r29, 0x3e	; 62
    23f0:	8a 83       	std	Y+2, r24	; 0x02
    TWDR = Add;
    23f2:	e3 e2       	ldi	r30, 0x23	; 35
    23f4:	f0 e0       	ldi	r31, 0x00	; 0
    23f6:	8a 81       	ldd	r24, Y+2	; 0x02
    23f8:	80 83       	st	Z, r24
    TWCR = (1<<TWINT) | (1<<TWEN);
    23fa:	e6 e5       	ldi	r30, 0x56	; 86
    23fc:	f0 e0       	ldi	r31, 0x00	; 0
    23fe:	84 e8       	ldi	r24, 0x84	; 132
    2400:	80 83       	st	Z, r24
    while(READ_BIT(TWCR, TWINT) == 0);
    2402:	e6 e5       	ldi	r30, 0x56	; 86
    2404:	f0 e0       	ldi	r31, 0x00	; 0
    2406:	80 81       	ld	r24, Z
    2408:	88 1f       	adc	r24, r24
    240a:	88 27       	eor	r24, r24
    240c:	88 1f       	adc	r24, r24
    240e:	88 2f       	mov	r24, r24
    2410:	90 e0       	ldi	r25, 0x00	; 0
    2412:	90 70       	andi	r25, 0x00	; 0
    2414:	00 97       	sbiw	r24, 0x00	; 0
    2416:	a9 f3       	breq	.-22     	; 0x2402 <I2C_SendAdd+0x1c>
    u8 status = I2C_GetStatus();
    2418:	0e 94 90 11 	call	0x2320	; 0x2320 <I2C_GetStatus>
    241c:	89 83       	std	Y+1, r24	; 0x01
    /*if(status != 0x20)
    {
        USART_SendString("Address NACK\r\n");
    }*/
}
    241e:	0f 90       	pop	r0
    2420:	0f 90       	pop	r0
    2422:	cf 91       	pop	r28
    2424:	df 91       	pop	r29
    2426:	08 95       	ret

00002428 <I2C_SendData>:
      TWCR = (1<<TWINT) | (1<<TWEN);
      while(READ_BIT(TWCR, TWINT) == 0);
      //while((TWSR & 0xF8) != 0x28);
}*/

void I2C_SendData(u8 Data){
    2428:	df 93       	push	r29
    242a:	cf 93       	push	r28
    242c:	0f 92       	push	r0
    242e:	cd b7       	in	r28, 0x3d	; 61
    2430:	de b7       	in	r29, 0x3e	; 62
    2432:	89 83       	std	Y+1, r24	; 0x01
    TWDR = Data;
    2434:	e3 e2       	ldi	r30, 0x23	; 35
    2436:	f0 e0       	ldi	r31, 0x00	; 0
    2438:	89 81       	ldd	r24, Y+1	; 0x01
    243a:	80 83       	st	Z, r24
    TWCR = (1<<TWINT) | (1<<TWEN);
    243c:	e6 e5       	ldi	r30, 0x56	; 86
    243e:	f0 e0       	ldi	r31, 0x00	; 0
    2440:	84 e8       	ldi	r24, 0x84	; 132
    2442:	80 83       	st	Z, r24

    // Wait for hardware to finish
    while(READ_BIT(TWCR, TWINT) == 0);
    2444:	e6 e5       	ldi	r30, 0x56	; 86
    2446:	f0 e0       	ldi	r31, 0x00	; 0
    2448:	80 81       	ld	r24, Z
    244a:	88 1f       	adc	r24, r24
    244c:	88 27       	eor	r24, r24
    244e:	88 1f       	adc	r24, r24
    2450:	88 2f       	mov	r24, r24
    2452:	90 e0       	ldi	r25, 0x00	; 0
    2454:	90 70       	andi	r25, 0x00	; 0
    2456:	00 97       	sbiw	r24, 0x00	; 0
    2458:	a9 f3       	breq	.-22     	; 0x2444 <I2C_SendData+0x1c>
    /*if((TWSR & 0xF8) != 0x28) {
        USART_SendString("Data NACK! ");
    } else {
        USART_SendString("Data ACK! ");
    }*/
}
    245a:	0f 90       	pop	r0
    245c:	cf 91       	pop	r28
    245e:	df 91       	pop	r29
    2460:	08 95       	ret

00002462 <I2C_SendStopCond>:

void I2C_SendStopCond(void){
    2462:	df 93       	push	r29
    2464:	cf 93       	push	r28
    2466:	cd b7       	in	r28, 0x3d	; 61
    2468:	de b7       	in	r29, 0x3e	; 62
	TWCR = (1<<TWINT) | (1<<TWEN) | (1<<TWSTO);
    246a:	e6 e5       	ldi	r30, 0x56	; 86
    246c:	f0 e0       	ldi	r31, 0x00	; 0
    246e:	84 e9       	ldi	r24, 0x94	; 148
    2470:	80 83       	st	Z, r24
	//while(TWCR & (1<<TWSTO));
}
    2472:	cf 91       	pop	r28
    2474:	df 91       	pop	r29
    2476:	08 95       	ret

00002478 <I2C_SetAdd>:


void I2C_SetAdd(u8 Add){
    2478:	df 93       	push	r29
    247a:	cf 93       	push	r28
    247c:	0f 92       	push	r0
    247e:	cd b7       	in	r28, 0x3d	; 61
    2480:	de b7       	in	r29, 0x3e	; 62
    2482:	89 83       	std	Y+1, r24	; 0x01
    TWAR = Add << 1 ; //shift the address not put 1 in a bit
    2484:	e2 e2       	ldi	r30, 0x22	; 34
    2486:	f0 e0       	ldi	r31, 0x00	; 0
    2488:	89 81       	ldd	r24, Y+1	; 0x01
    248a:	88 0f       	add	r24, r24
    248c:	80 83       	st	Z, r24
}
    248e:	0f 90       	pop	r0
    2490:	cf 91       	pop	r28
    2492:	df 91       	pop	r29
    2494:	08 95       	ret

00002496 <I2C_SlaveRead>:

u8 I2C_SlaveRead(void){
    2496:	df 93       	push	r29
    2498:	cf 93       	push	r28
    249a:	0f 92       	push	r0
    249c:	cd b7       	in	r28, 0x3d	; 61
    249e:	de b7       	in	r29, 0x3e	; 62
    //one wait for slave address and another for data

	TWCR = (1<<TWINT) | (1<<TWEN) | (1<<TWEA);
    24a0:	e6 e5       	ldi	r30, 0x56	; 86
    24a2:	f0 e0       	ldi	r31, 0x00	; 0
    24a4:	84 ec       	ldi	r24, 0xC4	; 196
    24a6:	80 83       	st	Z, r24
	while(READ_BIT(TWCR, TWINT) == 0);
    24a8:	e6 e5       	ldi	r30, 0x56	; 86
    24aa:	f0 e0       	ldi	r31, 0x00	; 0
    24ac:	80 81       	ld	r24, Z
    24ae:	88 1f       	adc	r24, r24
    24b0:	88 27       	eor	r24, r24
    24b2:	88 1f       	adc	r24, r24
    24b4:	88 2f       	mov	r24, r24
    24b6:	90 e0       	ldi	r25, 0x00	; 0
    24b8:	90 70       	andi	r25, 0x00	; 0
    24ba:	00 97       	sbiw	r24, 0x00	; 0
    24bc:	a9 f3       	breq	.-22     	; 0x24a8 <I2C_SlaveRead+0x12>
	while((TWSR & 0xF8) != 0x60); //wait for address
    24be:	e1 e2       	ldi	r30, 0x21	; 33
    24c0:	f0 e0       	ldi	r31, 0x00	; 0
    24c2:	80 81       	ld	r24, Z
    24c4:	88 2f       	mov	r24, r24
    24c6:	90 e0       	ldi	r25, 0x00	; 0
    24c8:	88 7f       	andi	r24, 0xF8	; 248
    24ca:	90 70       	andi	r25, 0x00	; 0
    24cc:	80 36       	cpi	r24, 0x60	; 96
    24ce:	91 05       	cpc	r25, r1
    24d0:	b1 f7       	brne	.-20     	; 0x24be <I2C_SlaveRead+0x28>

	TWCR = (1<<TWINT) | (1<<TWEN) | (1<<TWEA);
    24d2:	e6 e5       	ldi	r30, 0x56	; 86
    24d4:	f0 e0       	ldi	r31, 0x00	; 0
    24d6:	84 ec       	ldi	r24, 0xC4	; 196
    24d8:	80 83       	st	Z, r24
	while(READ_BIT(TWCR, TWINT) == 0);
    24da:	e6 e5       	ldi	r30, 0x56	; 86
    24dc:	f0 e0       	ldi	r31, 0x00	; 0
    24de:	80 81       	ld	r24, Z
    24e0:	88 1f       	adc	r24, r24
    24e2:	88 27       	eor	r24, r24
    24e4:	88 1f       	adc	r24, r24
    24e6:	88 2f       	mov	r24, r24
    24e8:	90 e0       	ldi	r25, 0x00	; 0
    24ea:	90 70       	andi	r25, 0x00	; 0
    24ec:	00 97       	sbiw	r24, 0x00	; 0
    24ee:	a9 f3       	breq	.-22     	; 0x24da <I2C_SlaveRead+0x44>
	while((TWSR & 0xF8) != 0x81);
    24f0:	e1 e2       	ldi	r30, 0x21	; 33
    24f2:	f0 e0       	ldi	r31, 0x00	; 0
    24f4:	80 81       	ld	r24, Z
    24f6:	fc cf       	rjmp	.-8      	; 0x24f0 <I2C_SlaveRead+0x5a>

000024f8 <I2C_MasterReadAck_mpu>:
	return TWDR;

}


u8 I2C_MasterReadAck_mpu(void){
    24f8:	df 93       	push	r29
    24fa:	cf 93       	push	r28
    24fc:	cd b7       	in	r28, 0x3d	; 61
    24fe:	de b7       	in	r29, 0x3e	; 62
	TWCR = (1<<TWINT) | (1<<TWEN) | (1<<TWEA);
    2500:	e6 e5       	ldi	r30, 0x56	; 86
    2502:	f0 e0       	ldi	r31, 0x00	; 0
    2504:	84 ec       	ldi	r24, 0xC4	; 196
    2506:	80 83       	st	Z, r24
	while(READ_BIT(TWCR, TWINT) == 0);
    2508:	e6 e5       	ldi	r30, 0x56	; 86
    250a:	f0 e0       	ldi	r31, 0x00	; 0
    250c:	80 81       	ld	r24, Z
    250e:	88 1f       	adc	r24, r24
    2510:	88 27       	eor	r24, r24
    2512:	88 1f       	adc	r24, r24
    2514:	88 2f       	mov	r24, r24
    2516:	90 e0       	ldi	r25, 0x00	; 0
    2518:	90 70       	andi	r25, 0x00	; 0
    251a:	00 97       	sbiw	r24, 0x00	; 0
    251c:	a9 f3       	breq	.-22     	; 0x2508 <I2C_MasterReadAck_mpu+0x10>
	while(I2C_GetStatus() != 0x50);
    251e:	0e 94 90 11 	call	0x2320	; 0x2320 <I2C_GetStatus>
    2522:	80 35       	cpi	r24, 0x50	; 80
    2524:	e1 f7       	brne	.-8      	; 0x251e <I2C_MasterReadAck_mpu+0x26>
	return TWDR;
    2526:	e3 e2       	ldi	r30, 0x23	; 35
    2528:	f0 e0       	ldi	r31, 0x00	; 0
    252a:	80 81       	ld	r24, Z
}
    252c:	cf 91       	pop	r28
    252e:	df 91       	pop	r29
    2530:	08 95       	ret

00002532 <I2C_MasterReadAck_max>:


u8 I2C_MasterReadAck_max(void){
    2532:	df 93       	push	r29
    2534:	cf 93       	push	r28
    2536:	cd b7       	in	r28, 0x3d	; 61
    2538:	de b7       	in	r29, 0x3e	; 62
	TWCR = (1<<TWINT) | (1<<TWEN) | (1<<TWEA);
    253a:	e6 e5       	ldi	r30, 0x56	; 86
    253c:	f0 e0       	ldi	r31, 0x00	; 0
    253e:	84 ec       	ldi	r24, 0xC4	; 196
    2540:	80 83       	st	Z, r24
	while(READ_BIT(TWCR, TWINT) == 0);
    2542:	e6 e5       	ldi	r30, 0x56	; 86
    2544:	f0 e0       	ldi	r31, 0x00	; 0
    2546:	80 81       	ld	r24, Z
    2548:	88 1f       	adc	r24, r24
    254a:	88 27       	eor	r24, r24
    254c:	88 1f       	adc	r24, r24
    254e:	88 2f       	mov	r24, r24
    2550:	90 e0       	ldi	r25, 0x00	; 0
    2552:	90 70       	andi	r25, 0x00	; 0
    2554:	00 97       	sbiw	r24, 0x00	; 0
    2556:	a9 f3       	breq	.-22     	; 0x2542 <I2C_MasterReadAck_max+0x10>
	while(I2C_GetStatus() != 0x50);
    2558:	0e 94 90 11 	call	0x2320	; 0x2320 <I2C_GetStatus>
    255c:	80 35       	cpi	r24, 0x50	; 80
    255e:	e1 f7       	brne	.-8      	; 0x2558 <I2C_MasterReadAck_max+0x26>
	return TWDR;
    2560:	e3 e2       	ldi	r30, 0x23	; 35
    2562:	f0 e0       	ldi	r31, 0x00	; 0
    2564:	80 81       	ld	r24, Z
}
    2566:	cf 91       	pop	r28
    2568:	df 91       	pop	r29
    256a:	08 95       	ret

0000256c <I2C_MasterReadNack_mpu>:

u8 I2C_MasterReadNack_mpu(void){
    256c:	df 93       	push	r29
    256e:	cf 93       	push	r28
    2570:	cd b7       	in	r28, 0x3d	; 61
    2572:	de b7       	in	r29, 0x3e	; 62
	TWCR = (1<<TWINT) | (1<<TWEN);
    2574:	e6 e5       	ldi	r30, 0x56	; 86
    2576:	f0 e0       	ldi	r31, 0x00	; 0
    2578:	84 e8       	ldi	r24, 0x84	; 132
    257a:	80 83       	st	Z, r24
	while(READ_BIT(TWCR, TWINT) == 0);
    257c:	e6 e5       	ldi	r30, 0x56	; 86
    257e:	f0 e0       	ldi	r31, 0x00	; 0
    2580:	80 81       	ld	r24, Z
    2582:	88 1f       	adc	r24, r24
    2584:	88 27       	eor	r24, r24
    2586:	88 1f       	adc	r24, r24
    2588:	88 2f       	mov	r24, r24
    258a:	90 e0       	ldi	r25, 0x00	; 0
    258c:	90 70       	andi	r25, 0x00	; 0
    258e:	00 97       	sbiw	r24, 0x00	; 0
    2590:	a9 f3       	breq	.-22     	; 0x257c <I2C_MasterReadNack_mpu+0x10>
	while(I2C_GetStatus() != 0x58);
    2592:	0e 94 90 11 	call	0x2320	; 0x2320 <I2C_GetStatus>
    2596:	88 35       	cpi	r24, 0x58	; 88
    2598:	e1 f7       	brne	.-8      	; 0x2592 <I2C_MasterReadNack_mpu+0x26>
	return TWDR;
    259a:	e3 e2       	ldi	r30, 0x23	; 35
    259c:	f0 e0       	ldi	r31, 0x00	; 0
    259e:	80 81       	ld	r24, Z
}
    25a0:	cf 91       	pop	r28
    25a2:	df 91       	pop	r29
    25a4:	08 95       	ret

000025a6 <I2C_MasterReadNack_max>:

u8 I2C_MasterReadNack_max(void){
    25a6:	df 93       	push	r29
    25a8:	cf 93       	push	r28
    25aa:	cd b7       	in	r28, 0x3d	; 61
    25ac:	de b7       	in	r29, 0x3e	; 62
	TWCR = (1<<TWINT) | (1<<TWEN);
    25ae:	e6 e5       	ldi	r30, 0x56	; 86
    25b0:	f0 e0       	ldi	r31, 0x00	; 0
    25b2:	84 e8       	ldi	r24, 0x84	; 132
    25b4:	80 83       	st	Z, r24
	while(READ_BIT(TWCR, TWINT) == 0);
    25b6:	e6 e5       	ldi	r30, 0x56	; 86
    25b8:	f0 e0       	ldi	r31, 0x00	; 0
    25ba:	80 81       	ld	r24, Z
    25bc:	88 1f       	adc	r24, r24
    25be:	88 27       	eor	r24, r24
    25c0:	88 1f       	adc	r24, r24
    25c2:	88 2f       	mov	r24, r24
    25c4:	90 e0       	ldi	r25, 0x00	; 0
    25c6:	90 70       	andi	r25, 0x00	; 0
    25c8:	00 97       	sbiw	r24, 0x00	; 0
    25ca:	a9 f3       	breq	.-22     	; 0x25b6 <I2C_MasterReadNack_max+0x10>
	while(I2C_GetStatus() != 0x58);
    25cc:	0e 94 90 11 	call	0x2320	; 0x2320 <I2C_GetStatus>
    25d0:	88 35       	cpi	r24, 0x58	; 88
    25d2:	e1 f7       	brne	.-8      	; 0x25cc <I2C_MasterReadNack_max+0x26>
	return TWDR;
    25d4:	e3 e2       	ldi	r30, 0x23	; 35
    25d6:	f0 e0       	ldi	r31, 0x00	; 0
    25d8:	80 81       	ld	r24, Z
}
    25da:	cf 91       	pop	r28
    25dc:	df 91       	pop	r29
    25de:	08 95       	ret

000025e0 <DIO_InitPin>:
#include "../../LIB/STD_TYPES.h"

#include "DIO.h"

void DIO_InitPin       (u8 PortName , u8 PinNum , u8 Mode )
{
    25e0:	df 93       	push	r29
    25e2:	cf 93       	push	r28
    25e4:	00 d0       	rcall	.+0      	; 0x25e6 <DIO_InitPin+0x6>
    25e6:	00 d0       	rcall	.+0      	; 0x25e8 <DIO_InitPin+0x8>
    25e8:	0f 92       	push	r0
    25ea:	cd b7       	in	r28, 0x3d	; 61
    25ec:	de b7       	in	r29, 0x3e	; 62
    25ee:	89 83       	std	Y+1, r24	; 0x01
    25f0:	6a 83       	std	Y+2, r22	; 0x02
    25f2:	4b 83       	std	Y+3, r20	; 0x03
	if (PortName >= DIO_PORTA && PortName <= DIO_PORTD)
    25f4:	89 81       	ldd	r24, Y+1	; 0x01
    25f6:	88 23       	and	r24, r24
    25f8:	09 f4       	brne	.+2      	; 0x25fc <DIO_InitPin+0x1c>
    25fa:	e9 c0       	rjmp	.+466    	; 0x27ce <DIO_InitPin+0x1ee>
    25fc:	89 81       	ldd	r24, Y+1	; 0x01
    25fe:	85 30       	cpi	r24, 0x05	; 5
    2600:	08 f0       	brcs	.+2      	; 0x2604 <DIO_InitPin+0x24>
    2602:	e5 c0       	rjmp	.+458    	; 0x27ce <DIO_InitPin+0x1ee>
	{
		if (PinNum >= DIO_PIN0 && PinNum <= DIO_PIN7)
    2604:	8a 81       	ldd	r24, Y+2	; 0x02
    2606:	88 30       	cpi	r24, 0x08	; 8
    2608:	08 f0       	brcs	.+2      	; 0x260c <DIO_InitPin+0x2c>
    260a:	e1 c0       	rjmp	.+450    	; 0x27ce <DIO_InitPin+0x1ee>
		{
			switch (PortName)
    260c:	89 81       	ldd	r24, Y+1	; 0x01
    260e:	28 2f       	mov	r18, r24
    2610:	30 e0       	ldi	r19, 0x00	; 0
    2612:	3d 83       	std	Y+5, r19	; 0x05
    2614:	2c 83       	std	Y+4, r18	; 0x04
    2616:	8c 81       	ldd	r24, Y+4	; 0x04
    2618:	9d 81       	ldd	r25, Y+5	; 0x05
    261a:	82 30       	cpi	r24, 0x02	; 2
    261c:	91 05       	cpc	r25, r1
    261e:	09 f4       	brne	.+2      	; 0x2622 <DIO_InitPin+0x42>
    2620:	48 c0       	rjmp	.+144    	; 0x26b2 <DIO_InitPin+0xd2>
    2622:	2c 81       	ldd	r18, Y+4	; 0x04
    2624:	3d 81       	ldd	r19, Y+5	; 0x05
    2626:	23 30       	cpi	r18, 0x03	; 3
    2628:	31 05       	cpc	r19, r1
    262a:	34 f4       	brge	.+12     	; 0x2638 <DIO_InitPin+0x58>
    262c:	8c 81       	ldd	r24, Y+4	; 0x04
    262e:	9d 81       	ldd	r25, Y+5	; 0x05
    2630:	81 30       	cpi	r24, 0x01	; 1
    2632:	91 05       	cpc	r25, r1
    2634:	71 f0       	breq	.+28     	; 0x2652 <DIO_InitPin+0x72>
    2636:	cb c0       	rjmp	.+406    	; 0x27ce <DIO_InitPin+0x1ee>
    2638:	2c 81       	ldd	r18, Y+4	; 0x04
    263a:	3d 81       	ldd	r19, Y+5	; 0x05
    263c:	23 30       	cpi	r18, 0x03	; 3
    263e:	31 05       	cpc	r19, r1
    2640:	09 f4       	brne	.+2      	; 0x2644 <DIO_InitPin+0x64>
    2642:	67 c0       	rjmp	.+206    	; 0x2712 <DIO_InitPin+0x132>
    2644:	8c 81       	ldd	r24, Y+4	; 0x04
    2646:	9d 81       	ldd	r25, Y+5	; 0x05
    2648:	84 30       	cpi	r24, 0x04	; 4
    264a:	91 05       	cpc	r25, r1
    264c:	09 f4       	brne	.+2      	; 0x2650 <DIO_InitPin+0x70>
    264e:	91 c0       	rjmp	.+290    	; 0x2772 <DIO_InitPin+0x192>
    2650:	be c0       	rjmp	.+380    	; 0x27ce <DIO_InitPin+0x1ee>
			{
			case DIO_PORTA:
				if (Mode == DIO_INPUT)
    2652:	8b 81       	ldd	r24, Y+3	; 0x03
    2654:	88 23       	and	r24, r24
    2656:	a9 f4       	brne	.+42     	; 0x2682 <DIO_InitPin+0xa2>
				{
					CLR_BIT(DDRA , PinNum) ;
    2658:	aa e3       	ldi	r26, 0x3A	; 58
    265a:	b0 e0       	ldi	r27, 0x00	; 0
    265c:	ea e3       	ldi	r30, 0x3A	; 58
    265e:	f0 e0       	ldi	r31, 0x00	; 0
    2660:	80 81       	ld	r24, Z
    2662:	48 2f       	mov	r20, r24
    2664:	8a 81       	ldd	r24, Y+2	; 0x02
    2666:	28 2f       	mov	r18, r24
    2668:	30 e0       	ldi	r19, 0x00	; 0
    266a:	81 e0       	ldi	r24, 0x01	; 1
    266c:	90 e0       	ldi	r25, 0x00	; 0
    266e:	02 2e       	mov	r0, r18
    2670:	02 c0       	rjmp	.+4      	; 0x2676 <DIO_InitPin+0x96>
    2672:	88 0f       	add	r24, r24
    2674:	99 1f       	adc	r25, r25
    2676:	0a 94       	dec	r0
    2678:	e2 f7       	brpl	.-8      	; 0x2672 <DIO_InitPin+0x92>
    267a:	80 95       	com	r24
    267c:	84 23       	and	r24, r20
    267e:	8c 93       	st	X, r24
    2680:	a6 c0       	rjmp	.+332    	; 0x27ce <DIO_InitPin+0x1ee>
				}
				else if (Mode == DIO_OUTPUT)
    2682:	8b 81       	ldd	r24, Y+3	; 0x03
    2684:	81 30       	cpi	r24, 0x01	; 1
    2686:	09 f0       	breq	.+2      	; 0x268a <DIO_InitPin+0xaa>
    2688:	a2 c0       	rjmp	.+324    	; 0x27ce <DIO_InitPin+0x1ee>
				{
					SET_BIT(DDRA , PinNum) ;
    268a:	aa e3       	ldi	r26, 0x3A	; 58
    268c:	b0 e0       	ldi	r27, 0x00	; 0
    268e:	ea e3       	ldi	r30, 0x3A	; 58
    2690:	f0 e0       	ldi	r31, 0x00	; 0
    2692:	80 81       	ld	r24, Z
    2694:	48 2f       	mov	r20, r24
    2696:	8a 81       	ldd	r24, Y+2	; 0x02
    2698:	28 2f       	mov	r18, r24
    269a:	30 e0       	ldi	r19, 0x00	; 0
    269c:	81 e0       	ldi	r24, 0x01	; 1
    269e:	90 e0       	ldi	r25, 0x00	; 0
    26a0:	02 2e       	mov	r0, r18
    26a2:	02 c0       	rjmp	.+4      	; 0x26a8 <DIO_InitPin+0xc8>
    26a4:	88 0f       	add	r24, r24
    26a6:	99 1f       	adc	r25, r25
    26a8:	0a 94       	dec	r0
    26aa:	e2 f7       	brpl	.-8      	; 0x26a4 <DIO_InitPin+0xc4>
    26ac:	84 2b       	or	r24, r20
    26ae:	8c 93       	st	X, r24
    26b0:	8e c0       	rjmp	.+284    	; 0x27ce <DIO_InitPin+0x1ee>
				}
				break ;
			case DIO_PORTB:
				if (Mode == DIO_INPUT)
    26b2:	8b 81       	ldd	r24, Y+3	; 0x03
    26b4:	88 23       	and	r24, r24
    26b6:	a9 f4       	brne	.+42     	; 0x26e2 <DIO_InitPin+0x102>
				{
					CLR_BIT(DDRB , PinNum) ;
    26b8:	a7 e3       	ldi	r26, 0x37	; 55
    26ba:	b0 e0       	ldi	r27, 0x00	; 0
    26bc:	e7 e3       	ldi	r30, 0x37	; 55
    26be:	f0 e0       	ldi	r31, 0x00	; 0
    26c0:	80 81       	ld	r24, Z
    26c2:	48 2f       	mov	r20, r24
    26c4:	8a 81       	ldd	r24, Y+2	; 0x02
    26c6:	28 2f       	mov	r18, r24
    26c8:	30 e0       	ldi	r19, 0x00	; 0
    26ca:	81 e0       	ldi	r24, 0x01	; 1
    26cc:	90 e0       	ldi	r25, 0x00	; 0
    26ce:	02 2e       	mov	r0, r18
    26d0:	02 c0       	rjmp	.+4      	; 0x26d6 <DIO_InitPin+0xf6>
    26d2:	88 0f       	add	r24, r24
    26d4:	99 1f       	adc	r25, r25
    26d6:	0a 94       	dec	r0
    26d8:	e2 f7       	brpl	.-8      	; 0x26d2 <DIO_InitPin+0xf2>
    26da:	80 95       	com	r24
    26dc:	84 23       	and	r24, r20
    26de:	8c 93       	st	X, r24
    26e0:	76 c0       	rjmp	.+236    	; 0x27ce <DIO_InitPin+0x1ee>
				}
				else if (Mode == DIO_OUTPUT)
    26e2:	8b 81       	ldd	r24, Y+3	; 0x03
    26e4:	81 30       	cpi	r24, 0x01	; 1
    26e6:	09 f0       	breq	.+2      	; 0x26ea <DIO_InitPin+0x10a>
    26e8:	72 c0       	rjmp	.+228    	; 0x27ce <DIO_InitPin+0x1ee>
				{
					SET_BIT(DDRB , PinNum) ;
    26ea:	a7 e3       	ldi	r26, 0x37	; 55
    26ec:	b0 e0       	ldi	r27, 0x00	; 0
    26ee:	e7 e3       	ldi	r30, 0x37	; 55
    26f0:	f0 e0       	ldi	r31, 0x00	; 0
    26f2:	80 81       	ld	r24, Z
    26f4:	48 2f       	mov	r20, r24
    26f6:	8a 81       	ldd	r24, Y+2	; 0x02
    26f8:	28 2f       	mov	r18, r24
    26fa:	30 e0       	ldi	r19, 0x00	; 0
    26fc:	81 e0       	ldi	r24, 0x01	; 1
    26fe:	90 e0       	ldi	r25, 0x00	; 0
    2700:	02 2e       	mov	r0, r18
    2702:	02 c0       	rjmp	.+4      	; 0x2708 <DIO_InitPin+0x128>
    2704:	88 0f       	add	r24, r24
    2706:	99 1f       	adc	r25, r25
    2708:	0a 94       	dec	r0
    270a:	e2 f7       	brpl	.-8      	; 0x2704 <DIO_InitPin+0x124>
    270c:	84 2b       	or	r24, r20
    270e:	8c 93       	st	X, r24
    2710:	5e c0       	rjmp	.+188    	; 0x27ce <DIO_InitPin+0x1ee>
				}
				break ;
			case DIO_PORTC:
				if (Mode == DIO_INPUT)
    2712:	8b 81       	ldd	r24, Y+3	; 0x03
    2714:	88 23       	and	r24, r24
    2716:	a9 f4       	brne	.+42     	; 0x2742 <DIO_InitPin+0x162>
				{
					CLR_BIT(DDRC , PinNum) ;
    2718:	a4 e3       	ldi	r26, 0x34	; 52
    271a:	b0 e0       	ldi	r27, 0x00	; 0
    271c:	e4 e3       	ldi	r30, 0x34	; 52
    271e:	f0 e0       	ldi	r31, 0x00	; 0
    2720:	80 81       	ld	r24, Z
    2722:	48 2f       	mov	r20, r24
    2724:	8a 81       	ldd	r24, Y+2	; 0x02
    2726:	28 2f       	mov	r18, r24
    2728:	30 e0       	ldi	r19, 0x00	; 0
    272a:	81 e0       	ldi	r24, 0x01	; 1
    272c:	90 e0       	ldi	r25, 0x00	; 0
    272e:	02 2e       	mov	r0, r18
    2730:	02 c0       	rjmp	.+4      	; 0x2736 <DIO_InitPin+0x156>
    2732:	88 0f       	add	r24, r24
    2734:	99 1f       	adc	r25, r25
    2736:	0a 94       	dec	r0
    2738:	e2 f7       	brpl	.-8      	; 0x2732 <DIO_InitPin+0x152>
    273a:	80 95       	com	r24
    273c:	84 23       	and	r24, r20
    273e:	8c 93       	st	X, r24
    2740:	46 c0       	rjmp	.+140    	; 0x27ce <DIO_InitPin+0x1ee>
				}
				else if (Mode == DIO_OUTPUT)
    2742:	8b 81       	ldd	r24, Y+3	; 0x03
    2744:	81 30       	cpi	r24, 0x01	; 1
    2746:	09 f0       	breq	.+2      	; 0x274a <DIO_InitPin+0x16a>
    2748:	42 c0       	rjmp	.+132    	; 0x27ce <DIO_InitPin+0x1ee>
				{
					SET_BIT(DDRC , PinNum) ;
    274a:	a4 e3       	ldi	r26, 0x34	; 52
    274c:	b0 e0       	ldi	r27, 0x00	; 0
    274e:	e4 e3       	ldi	r30, 0x34	; 52
    2750:	f0 e0       	ldi	r31, 0x00	; 0
    2752:	80 81       	ld	r24, Z
    2754:	48 2f       	mov	r20, r24
    2756:	8a 81       	ldd	r24, Y+2	; 0x02
    2758:	28 2f       	mov	r18, r24
    275a:	30 e0       	ldi	r19, 0x00	; 0
    275c:	81 e0       	ldi	r24, 0x01	; 1
    275e:	90 e0       	ldi	r25, 0x00	; 0
    2760:	02 2e       	mov	r0, r18
    2762:	02 c0       	rjmp	.+4      	; 0x2768 <DIO_InitPin+0x188>
    2764:	88 0f       	add	r24, r24
    2766:	99 1f       	adc	r25, r25
    2768:	0a 94       	dec	r0
    276a:	e2 f7       	brpl	.-8      	; 0x2764 <DIO_InitPin+0x184>
    276c:	84 2b       	or	r24, r20
    276e:	8c 93       	st	X, r24
    2770:	2e c0       	rjmp	.+92     	; 0x27ce <DIO_InitPin+0x1ee>
				}
				break ;
			case DIO_PORTD:
				if (Mode == DIO_INPUT)
    2772:	8b 81       	ldd	r24, Y+3	; 0x03
    2774:	88 23       	and	r24, r24
    2776:	a9 f4       	brne	.+42     	; 0x27a2 <DIO_InitPin+0x1c2>
				{
					CLR_BIT(DDRD , PinNum) ;
    2778:	a1 e3       	ldi	r26, 0x31	; 49
    277a:	b0 e0       	ldi	r27, 0x00	; 0
    277c:	e1 e3       	ldi	r30, 0x31	; 49
    277e:	f0 e0       	ldi	r31, 0x00	; 0
    2780:	80 81       	ld	r24, Z
    2782:	48 2f       	mov	r20, r24
    2784:	8a 81       	ldd	r24, Y+2	; 0x02
    2786:	28 2f       	mov	r18, r24
    2788:	30 e0       	ldi	r19, 0x00	; 0
    278a:	81 e0       	ldi	r24, 0x01	; 1
    278c:	90 e0       	ldi	r25, 0x00	; 0
    278e:	02 2e       	mov	r0, r18
    2790:	02 c0       	rjmp	.+4      	; 0x2796 <DIO_InitPin+0x1b6>
    2792:	88 0f       	add	r24, r24
    2794:	99 1f       	adc	r25, r25
    2796:	0a 94       	dec	r0
    2798:	e2 f7       	brpl	.-8      	; 0x2792 <DIO_InitPin+0x1b2>
    279a:	80 95       	com	r24
    279c:	84 23       	and	r24, r20
    279e:	8c 93       	st	X, r24
    27a0:	16 c0       	rjmp	.+44     	; 0x27ce <DIO_InitPin+0x1ee>
				}
				else if (Mode == DIO_OUTPUT)
    27a2:	8b 81       	ldd	r24, Y+3	; 0x03
    27a4:	81 30       	cpi	r24, 0x01	; 1
    27a6:	99 f4       	brne	.+38     	; 0x27ce <DIO_InitPin+0x1ee>
				{
					SET_BIT(DDRD , PinNum) ;
    27a8:	a1 e3       	ldi	r26, 0x31	; 49
    27aa:	b0 e0       	ldi	r27, 0x00	; 0
    27ac:	e1 e3       	ldi	r30, 0x31	; 49
    27ae:	f0 e0       	ldi	r31, 0x00	; 0
    27b0:	80 81       	ld	r24, Z
    27b2:	48 2f       	mov	r20, r24
    27b4:	8a 81       	ldd	r24, Y+2	; 0x02
    27b6:	28 2f       	mov	r18, r24
    27b8:	30 e0       	ldi	r19, 0x00	; 0
    27ba:	81 e0       	ldi	r24, 0x01	; 1
    27bc:	90 e0       	ldi	r25, 0x00	; 0
    27be:	02 2e       	mov	r0, r18
    27c0:	02 c0       	rjmp	.+4      	; 0x27c6 <DIO_InitPin+0x1e6>
    27c2:	88 0f       	add	r24, r24
    27c4:	99 1f       	adc	r25, r25
    27c6:	0a 94       	dec	r0
    27c8:	e2 f7       	brpl	.-8      	; 0x27c2 <DIO_InitPin+0x1e2>
    27ca:	84 2b       	or	r24, r20
    27cc:	8c 93       	st	X, r24
				}
				break ;
			}
		}
	}
}
    27ce:	0f 90       	pop	r0
    27d0:	0f 90       	pop	r0
    27d2:	0f 90       	pop	r0
    27d4:	0f 90       	pop	r0
    27d6:	0f 90       	pop	r0
    27d8:	cf 91       	pop	r28
    27da:	df 91       	pop	r29
    27dc:	08 95       	ret

000027de <DIO_SetPinValue>:
void DIO_SetPinValue  (u8 PortName , u8 PinNum , u8 Value)
{
    27de:	df 93       	push	r29
    27e0:	cf 93       	push	r28
    27e2:	00 d0       	rcall	.+0      	; 0x27e4 <DIO_SetPinValue+0x6>
    27e4:	00 d0       	rcall	.+0      	; 0x27e6 <DIO_SetPinValue+0x8>
    27e6:	0f 92       	push	r0
    27e8:	cd b7       	in	r28, 0x3d	; 61
    27ea:	de b7       	in	r29, 0x3e	; 62
    27ec:	89 83       	std	Y+1, r24	; 0x01
    27ee:	6a 83       	std	Y+2, r22	; 0x02
    27f0:	4b 83       	std	Y+3, r20	; 0x03
	if (PortName >= DIO_PORTA && PortName <= DIO_PORTD)
    27f2:	89 81       	ldd	r24, Y+1	; 0x01
    27f4:	88 23       	and	r24, r24
    27f6:	09 f4       	brne	.+2      	; 0x27fa <DIO_SetPinValue+0x1c>
    27f8:	e9 c0       	rjmp	.+466    	; 0x29cc <DIO_SetPinValue+0x1ee>
    27fa:	89 81       	ldd	r24, Y+1	; 0x01
    27fc:	85 30       	cpi	r24, 0x05	; 5
    27fe:	08 f0       	brcs	.+2      	; 0x2802 <DIO_SetPinValue+0x24>
    2800:	e5 c0       	rjmp	.+458    	; 0x29cc <DIO_SetPinValue+0x1ee>
	{
		if (PinNum >= DIO_PIN0 && PinNum <= DIO_PIN7)
    2802:	8a 81       	ldd	r24, Y+2	; 0x02
    2804:	88 30       	cpi	r24, 0x08	; 8
    2806:	08 f0       	brcs	.+2      	; 0x280a <DIO_SetPinValue+0x2c>
    2808:	e1 c0       	rjmp	.+450    	; 0x29cc <DIO_SetPinValue+0x1ee>
		{
			switch (PortName)
    280a:	89 81       	ldd	r24, Y+1	; 0x01
    280c:	28 2f       	mov	r18, r24
    280e:	30 e0       	ldi	r19, 0x00	; 0
    2810:	3d 83       	std	Y+5, r19	; 0x05
    2812:	2c 83       	std	Y+4, r18	; 0x04
    2814:	8c 81       	ldd	r24, Y+4	; 0x04
    2816:	9d 81       	ldd	r25, Y+5	; 0x05
    2818:	82 30       	cpi	r24, 0x02	; 2
    281a:	91 05       	cpc	r25, r1
    281c:	09 f4       	brne	.+2      	; 0x2820 <DIO_SetPinValue+0x42>
    281e:	48 c0       	rjmp	.+144    	; 0x28b0 <DIO_SetPinValue+0xd2>
    2820:	2c 81       	ldd	r18, Y+4	; 0x04
    2822:	3d 81       	ldd	r19, Y+5	; 0x05
    2824:	23 30       	cpi	r18, 0x03	; 3
    2826:	31 05       	cpc	r19, r1
    2828:	34 f4       	brge	.+12     	; 0x2836 <DIO_SetPinValue+0x58>
    282a:	8c 81       	ldd	r24, Y+4	; 0x04
    282c:	9d 81       	ldd	r25, Y+5	; 0x05
    282e:	81 30       	cpi	r24, 0x01	; 1
    2830:	91 05       	cpc	r25, r1
    2832:	71 f0       	breq	.+28     	; 0x2850 <DIO_SetPinValue+0x72>
    2834:	cb c0       	rjmp	.+406    	; 0x29cc <DIO_SetPinValue+0x1ee>
    2836:	2c 81       	ldd	r18, Y+4	; 0x04
    2838:	3d 81       	ldd	r19, Y+5	; 0x05
    283a:	23 30       	cpi	r18, 0x03	; 3
    283c:	31 05       	cpc	r19, r1
    283e:	09 f4       	brne	.+2      	; 0x2842 <DIO_SetPinValue+0x64>
    2840:	67 c0       	rjmp	.+206    	; 0x2910 <DIO_SetPinValue+0x132>
    2842:	8c 81       	ldd	r24, Y+4	; 0x04
    2844:	9d 81       	ldd	r25, Y+5	; 0x05
    2846:	84 30       	cpi	r24, 0x04	; 4
    2848:	91 05       	cpc	r25, r1
    284a:	09 f4       	brne	.+2      	; 0x284e <DIO_SetPinValue+0x70>
    284c:	91 c0       	rjmp	.+290    	; 0x2970 <DIO_SetPinValue+0x192>
    284e:	be c0       	rjmp	.+380    	; 0x29cc <DIO_SetPinValue+0x1ee>
			{
			case DIO_PORTA:
				if (Value == DIO_LOW)
    2850:	8b 81       	ldd	r24, Y+3	; 0x03
    2852:	88 23       	and	r24, r24
    2854:	a9 f4       	brne	.+42     	; 0x2880 <DIO_SetPinValue+0xa2>
				{
					CLR_BIT(PORTA , PinNum) ;
    2856:	ab e3       	ldi	r26, 0x3B	; 59
    2858:	b0 e0       	ldi	r27, 0x00	; 0
    285a:	eb e3       	ldi	r30, 0x3B	; 59
    285c:	f0 e0       	ldi	r31, 0x00	; 0
    285e:	80 81       	ld	r24, Z
    2860:	48 2f       	mov	r20, r24
    2862:	8a 81       	ldd	r24, Y+2	; 0x02
    2864:	28 2f       	mov	r18, r24
    2866:	30 e0       	ldi	r19, 0x00	; 0
    2868:	81 e0       	ldi	r24, 0x01	; 1
    286a:	90 e0       	ldi	r25, 0x00	; 0
    286c:	02 2e       	mov	r0, r18
    286e:	02 c0       	rjmp	.+4      	; 0x2874 <DIO_SetPinValue+0x96>
    2870:	88 0f       	add	r24, r24
    2872:	99 1f       	adc	r25, r25
    2874:	0a 94       	dec	r0
    2876:	e2 f7       	brpl	.-8      	; 0x2870 <DIO_SetPinValue+0x92>
    2878:	80 95       	com	r24
    287a:	84 23       	and	r24, r20
    287c:	8c 93       	st	X, r24
    287e:	a6 c0       	rjmp	.+332    	; 0x29cc <DIO_SetPinValue+0x1ee>
				}
				else if (Value == DIO_HIGH)
    2880:	8b 81       	ldd	r24, Y+3	; 0x03
    2882:	81 30       	cpi	r24, 0x01	; 1
    2884:	09 f0       	breq	.+2      	; 0x2888 <DIO_SetPinValue+0xaa>
    2886:	a2 c0       	rjmp	.+324    	; 0x29cc <DIO_SetPinValue+0x1ee>
				{
					SET_BIT(PORTA , PinNum) ;
    2888:	ab e3       	ldi	r26, 0x3B	; 59
    288a:	b0 e0       	ldi	r27, 0x00	; 0
    288c:	eb e3       	ldi	r30, 0x3B	; 59
    288e:	f0 e0       	ldi	r31, 0x00	; 0
    2890:	80 81       	ld	r24, Z
    2892:	48 2f       	mov	r20, r24
    2894:	8a 81       	ldd	r24, Y+2	; 0x02
    2896:	28 2f       	mov	r18, r24
    2898:	30 e0       	ldi	r19, 0x00	; 0
    289a:	81 e0       	ldi	r24, 0x01	; 1
    289c:	90 e0       	ldi	r25, 0x00	; 0
    289e:	02 2e       	mov	r0, r18
    28a0:	02 c0       	rjmp	.+4      	; 0x28a6 <DIO_SetPinValue+0xc8>
    28a2:	88 0f       	add	r24, r24
    28a4:	99 1f       	adc	r25, r25
    28a6:	0a 94       	dec	r0
    28a8:	e2 f7       	brpl	.-8      	; 0x28a2 <DIO_SetPinValue+0xc4>
    28aa:	84 2b       	or	r24, r20
    28ac:	8c 93       	st	X, r24
    28ae:	8e c0       	rjmp	.+284    	; 0x29cc <DIO_SetPinValue+0x1ee>
				}
				break ;
			case DIO_PORTB:
				if (Value == DIO_LOW)
    28b0:	8b 81       	ldd	r24, Y+3	; 0x03
    28b2:	88 23       	and	r24, r24
    28b4:	a9 f4       	brne	.+42     	; 0x28e0 <DIO_SetPinValue+0x102>
				{
					CLR_BIT(PORTB , PinNum) ;
    28b6:	a8 e3       	ldi	r26, 0x38	; 56
    28b8:	b0 e0       	ldi	r27, 0x00	; 0
    28ba:	e8 e3       	ldi	r30, 0x38	; 56
    28bc:	f0 e0       	ldi	r31, 0x00	; 0
    28be:	80 81       	ld	r24, Z
    28c0:	48 2f       	mov	r20, r24
    28c2:	8a 81       	ldd	r24, Y+2	; 0x02
    28c4:	28 2f       	mov	r18, r24
    28c6:	30 e0       	ldi	r19, 0x00	; 0
    28c8:	81 e0       	ldi	r24, 0x01	; 1
    28ca:	90 e0       	ldi	r25, 0x00	; 0
    28cc:	02 2e       	mov	r0, r18
    28ce:	02 c0       	rjmp	.+4      	; 0x28d4 <DIO_SetPinValue+0xf6>
    28d0:	88 0f       	add	r24, r24
    28d2:	99 1f       	adc	r25, r25
    28d4:	0a 94       	dec	r0
    28d6:	e2 f7       	brpl	.-8      	; 0x28d0 <DIO_SetPinValue+0xf2>
    28d8:	80 95       	com	r24
    28da:	84 23       	and	r24, r20
    28dc:	8c 93       	st	X, r24
    28de:	76 c0       	rjmp	.+236    	; 0x29cc <DIO_SetPinValue+0x1ee>
				}
				else if (Value == DIO_HIGH)
    28e0:	8b 81       	ldd	r24, Y+3	; 0x03
    28e2:	81 30       	cpi	r24, 0x01	; 1
    28e4:	09 f0       	breq	.+2      	; 0x28e8 <DIO_SetPinValue+0x10a>
    28e6:	72 c0       	rjmp	.+228    	; 0x29cc <DIO_SetPinValue+0x1ee>
				{
					SET_BIT(PORTB , PinNum) ;
    28e8:	a8 e3       	ldi	r26, 0x38	; 56
    28ea:	b0 e0       	ldi	r27, 0x00	; 0
    28ec:	e8 e3       	ldi	r30, 0x38	; 56
    28ee:	f0 e0       	ldi	r31, 0x00	; 0
    28f0:	80 81       	ld	r24, Z
    28f2:	48 2f       	mov	r20, r24
    28f4:	8a 81       	ldd	r24, Y+2	; 0x02
    28f6:	28 2f       	mov	r18, r24
    28f8:	30 e0       	ldi	r19, 0x00	; 0
    28fa:	81 e0       	ldi	r24, 0x01	; 1
    28fc:	90 e0       	ldi	r25, 0x00	; 0
    28fe:	02 2e       	mov	r0, r18
    2900:	02 c0       	rjmp	.+4      	; 0x2906 <DIO_SetPinValue+0x128>
    2902:	88 0f       	add	r24, r24
    2904:	99 1f       	adc	r25, r25
    2906:	0a 94       	dec	r0
    2908:	e2 f7       	brpl	.-8      	; 0x2902 <DIO_SetPinValue+0x124>
    290a:	84 2b       	or	r24, r20
    290c:	8c 93       	st	X, r24
    290e:	5e c0       	rjmp	.+188    	; 0x29cc <DIO_SetPinValue+0x1ee>
				}
				break ;
			case DIO_PORTC:
				if (Value == DIO_LOW)
    2910:	8b 81       	ldd	r24, Y+3	; 0x03
    2912:	88 23       	and	r24, r24
    2914:	a9 f4       	brne	.+42     	; 0x2940 <DIO_SetPinValue+0x162>
				{
					CLR_BIT(PORTC , PinNum) ;
    2916:	a5 e3       	ldi	r26, 0x35	; 53
    2918:	b0 e0       	ldi	r27, 0x00	; 0
    291a:	e5 e3       	ldi	r30, 0x35	; 53
    291c:	f0 e0       	ldi	r31, 0x00	; 0
    291e:	80 81       	ld	r24, Z
    2920:	48 2f       	mov	r20, r24
    2922:	8a 81       	ldd	r24, Y+2	; 0x02
    2924:	28 2f       	mov	r18, r24
    2926:	30 e0       	ldi	r19, 0x00	; 0
    2928:	81 e0       	ldi	r24, 0x01	; 1
    292a:	90 e0       	ldi	r25, 0x00	; 0
    292c:	02 2e       	mov	r0, r18
    292e:	02 c0       	rjmp	.+4      	; 0x2934 <DIO_SetPinValue+0x156>
    2930:	88 0f       	add	r24, r24
    2932:	99 1f       	adc	r25, r25
    2934:	0a 94       	dec	r0
    2936:	e2 f7       	brpl	.-8      	; 0x2930 <DIO_SetPinValue+0x152>
    2938:	80 95       	com	r24
    293a:	84 23       	and	r24, r20
    293c:	8c 93       	st	X, r24
    293e:	46 c0       	rjmp	.+140    	; 0x29cc <DIO_SetPinValue+0x1ee>
				}
				else if (Value == DIO_HIGH)
    2940:	8b 81       	ldd	r24, Y+3	; 0x03
    2942:	81 30       	cpi	r24, 0x01	; 1
    2944:	09 f0       	breq	.+2      	; 0x2948 <DIO_SetPinValue+0x16a>
    2946:	42 c0       	rjmp	.+132    	; 0x29cc <DIO_SetPinValue+0x1ee>
				{
					SET_BIT(PORTC , PinNum) ;
    2948:	a5 e3       	ldi	r26, 0x35	; 53
    294a:	b0 e0       	ldi	r27, 0x00	; 0
    294c:	e5 e3       	ldi	r30, 0x35	; 53
    294e:	f0 e0       	ldi	r31, 0x00	; 0
    2950:	80 81       	ld	r24, Z
    2952:	48 2f       	mov	r20, r24
    2954:	8a 81       	ldd	r24, Y+2	; 0x02
    2956:	28 2f       	mov	r18, r24
    2958:	30 e0       	ldi	r19, 0x00	; 0
    295a:	81 e0       	ldi	r24, 0x01	; 1
    295c:	90 e0       	ldi	r25, 0x00	; 0
    295e:	02 2e       	mov	r0, r18
    2960:	02 c0       	rjmp	.+4      	; 0x2966 <DIO_SetPinValue+0x188>
    2962:	88 0f       	add	r24, r24
    2964:	99 1f       	adc	r25, r25
    2966:	0a 94       	dec	r0
    2968:	e2 f7       	brpl	.-8      	; 0x2962 <DIO_SetPinValue+0x184>
    296a:	84 2b       	or	r24, r20
    296c:	8c 93       	st	X, r24
    296e:	2e c0       	rjmp	.+92     	; 0x29cc <DIO_SetPinValue+0x1ee>
				}
				break ;
			case DIO_PORTD:
				if (Value == DIO_LOW)
    2970:	8b 81       	ldd	r24, Y+3	; 0x03
    2972:	88 23       	and	r24, r24
    2974:	a9 f4       	brne	.+42     	; 0x29a0 <DIO_SetPinValue+0x1c2>
				{
					CLR_BIT(PORTD , PinNum) ;
    2976:	a2 e3       	ldi	r26, 0x32	; 50
    2978:	b0 e0       	ldi	r27, 0x00	; 0
    297a:	e2 e3       	ldi	r30, 0x32	; 50
    297c:	f0 e0       	ldi	r31, 0x00	; 0
    297e:	80 81       	ld	r24, Z
    2980:	48 2f       	mov	r20, r24
    2982:	8a 81       	ldd	r24, Y+2	; 0x02
    2984:	28 2f       	mov	r18, r24
    2986:	30 e0       	ldi	r19, 0x00	; 0
    2988:	81 e0       	ldi	r24, 0x01	; 1
    298a:	90 e0       	ldi	r25, 0x00	; 0
    298c:	02 2e       	mov	r0, r18
    298e:	02 c0       	rjmp	.+4      	; 0x2994 <DIO_SetPinValue+0x1b6>
    2990:	88 0f       	add	r24, r24
    2992:	99 1f       	adc	r25, r25
    2994:	0a 94       	dec	r0
    2996:	e2 f7       	brpl	.-8      	; 0x2990 <DIO_SetPinValue+0x1b2>
    2998:	80 95       	com	r24
    299a:	84 23       	and	r24, r20
    299c:	8c 93       	st	X, r24
    299e:	16 c0       	rjmp	.+44     	; 0x29cc <DIO_SetPinValue+0x1ee>
				}
				else if (Value == DIO_HIGH)
    29a0:	8b 81       	ldd	r24, Y+3	; 0x03
    29a2:	81 30       	cpi	r24, 0x01	; 1
    29a4:	99 f4       	brne	.+38     	; 0x29cc <DIO_SetPinValue+0x1ee>
				{
					SET_BIT(PORTD , PinNum) ;
    29a6:	a2 e3       	ldi	r26, 0x32	; 50
    29a8:	b0 e0       	ldi	r27, 0x00	; 0
    29aa:	e2 e3       	ldi	r30, 0x32	; 50
    29ac:	f0 e0       	ldi	r31, 0x00	; 0
    29ae:	80 81       	ld	r24, Z
    29b0:	48 2f       	mov	r20, r24
    29b2:	8a 81       	ldd	r24, Y+2	; 0x02
    29b4:	28 2f       	mov	r18, r24
    29b6:	30 e0       	ldi	r19, 0x00	; 0
    29b8:	81 e0       	ldi	r24, 0x01	; 1
    29ba:	90 e0       	ldi	r25, 0x00	; 0
    29bc:	02 2e       	mov	r0, r18
    29be:	02 c0       	rjmp	.+4      	; 0x29c4 <DIO_SetPinValue+0x1e6>
    29c0:	88 0f       	add	r24, r24
    29c2:	99 1f       	adc	r25, r25
    29c4:	0a 94       	dec	r0
    29c6:	e2 f7       	brpl	.-8      	; 0x29c0 <DIO_SetPinValue+0x1e2>
    29c8:	84 2b       	or	r24, r20
    29ca:	8c 93       	st	X, r24
				}
				break ;
			}
		}
	}
}
    29cc:	0f 90       	pop	r0
    29ce:	0f 90       	pop	r0
    29d0:	0f 90       	pop	r0
    29d2:	0f 90       	pop	r0
    29d4:	0f 90       	pop	r0
    29d6:	cf 91       	pop	r28
    29d8:	df 91       	pop	r29
    29da:	08 95       	ret

000029dc <DIO_ReadPinValue>:
u8   DIO_ReadPinValue (u8 PortName , u8 PinNum)
{
    29dc:	df 93       	push	r29
    29de:	cf 93       	push	r28
    29e0:	00 d0       	rcall	.+0      	; 0x29e2 <DIO_ReadPinValue+0x6>
    29e2:	00 d0       	rcall	.+0      	; 0x29e4 <DIO_ReadPinValue+0x8>
    29e4:	0f 92       	push	r0
    29e6:	cd b7       	in	r28, 0x3d	; 61
    29e8:	de b7       	in	r29, 0x3e	; 62
    29ea:	8a 83       	std	Y+2, r24	; 0x02
    29ec:	6b 83       	std	Y+3, r22	; 0x03
	u8 PinStatues ;
	if (PortName >= DIO_PORTA && PortName <= DIO_PORTD)
    29ee:	8a 81       	ldd	r24, Y+2	; 0x02
    29f0:	88 23       	and	r24, r24
    29f2:	09 f4       	brne	.+2      	; 0x29f6 <DIO_ReadPinValue+0x1a>
    29f4:	a1 c0       	rjmp	.+322    	; 0x2b38 <DIO_ReadPinValue+0x15c>
    29f6:	8a 81       	ldd	r24, Y+2	; 0x02
    29f8:	85 30       	cpi	r24, 0x05	; 5
    29fa:	08 f0       	brcs	.+2      	; 0x29fe <DIO_ReadPinValue+0x22>
    29fc:	9d c0       	rjmp	.+314    	; 0x2b38 <DIO_ReadPinValue+0x15c>
	{
		if (PinNum >= DIO_PIN0 && PinNum <= DIO_PIN7)
    29fe:	8b 81       	ldd	r24, Y+3	; 0x03
    2a00:	88 30       	cpi	r24, 0x08	; 8
    2a02:	08 f0       	brcs	.+2      	; 0x2a06 <DIO_ReadPinValue+0x2a>
    2a04:	99 c0       	rjmp	.+306    	; 0x2b38 <DIO_ReadPinValue+0x15c>
		{
			switch (PortName)
    2a06:	8a 81       	ldd	r24, Y+2	; 0x02
    2a08:	28 2f       	mov	r18, r24
    2a0a:	30 e0       	ldi	r19, 0x00	; 0
    2a0c:	3d 83       	std	Y+5, r19	; 0x05
    2a0e:	2c 83       	std	Y+4, r18	; 0x04
    2a10:	4c 81       	ldd	r20, Y+4	; 0x04
    2a12:	5d 81       	ldd	r21, Y+5	; 0x05
    2a14:	42 30       	cpi	r20, 0x02	; 2
    2a16:	51 05       	cpc	r21, r1
    2a18:	b1 f1       	breq	.+108    	; 0x2a86 <DIO_ReadPinValue+0xaa>
    2a1a:	8c 81       	ldd	r24, Y+4	; 0x04
    2a1c:	9d 81       	ldd	r25, Y+5	; 0x05
    2a1e:	83 30       	cpi	r24, 0x03	; 3
    2a20:	91 05       	cpc	r25, r1
    2a22:	34 f4       	brge	.+12     	; 0x2a30 <DIO_ReadPinValue+0x54>
    2a24:	2c 81       	ldd	r18, Y+4	; 0x04
    2a26:	3d 81       	ldd	r19, Y+5	; 0x05
    2a28:	21 30       	cpi	r18, 0x01	; 1
    2a2a:	31 05       	cpc	r19, r1
    2a2c:	71 f0       	breq	.+28     	; 0x2a4a <DIO_ReadPinValue+0x6e>
    2a2e:	84 c0       	rjmp	.+264    	; 0x2b38 <DIO_ReadPinValue+0x15c>
    2a30:	4c 81       	ldd	r20, Y+4	; 0x04
    2a32:	5d 81       	ldd	r21, Y+5	; 0x05
    2a34:	43 30       	cpi	r20, 0x03	; 3
    2a36:	51 05       	cpc	r21, r1
    2a38:	09 f4       	brne	.+2      	; 0x2a3c <DIO_ReadPinValue+0x60>
    2a3a:	43 c0       	rjmp	.+134    	; 0x2ac2 <DIO_ReadPinValue+0xe6>
    2a3c:	8c 81       	ldd	r24, Y+4	; 0x04
    2a3e:	9d 81       	ldd	r25, Y+5	; 0x05
    2a40:	84 30       	cpi	r24, 0x04	; 4
    2a42:	91 05       	cpc	r25, r1
    2a44:	09 f4       	brne	.+2      	; 0x2a48 <DIO_ReadPinValue+0x6c>
    2a46:	5b c0       	rjmp	.+182    	; 0x2afe <DIO_ReadPinValue+0x122>
    2a48:	77 c0       	rjmp	.+238    	; 0x2b38 <DIO_ReadPinValue+0x15c>
			{
			case DIO_PORTA:
				PinStatues = READ_BIT(PINA , PinNum) ;
    2a4a:	e9 e3       	ldi	r30, 0x39	; 57
    2a4c:	f0 e0       	ldi	r31, 0x00	; 0
    2a4e:	80 81       	ld	r24, Z
    2a50:	48 2f       	mov	r20, r24
    2a52:	50 e0       	ldi	r21, 0x00	; 0
    2a54:	8b 81       	ldd	r24, Y+3	; 0x03
    2a56:	28 2f       	mov	r18, r24
    2a58:	30 e0       	ldi	r19, 0x00	; 0
    2a5a:	81 e0       	ldi	r24, 0x01	; 1
    2a5c:	90 e0       	ldi	r25, 0x00	; 0
    2a5e:	02 c0       	rjmp	.+4      	; 0x2a64 <DIO_ReadPinValue+0x88>
    2a60:	88 0f       	add	r24, r24
    2a62:	99 1f       	adc	r25, r25
    2a64:	2a 95       	dec	r18
    2a66:	e2 f7       	brpl	.-8      	; 0x2a60 <DIO_ReadPinValue+0x84>
    2a68:	9a 01       	movw	r18, r20
    2a6a:	28 23       	and	r18, r24
    2a6c:	39 23       	and	r19, r25
    2a6e:	8b 81       	ldd	r24, Y+3	; 0x03
    2a70:	88 2f       	mov	r24, r24
    2a72:	90 e0       	ldi	r25, 0x00	; 0
    2a74:	a9 01       	movw	r20, r18
    2a76:	02 c0       	rjmp	.+4      	; 0x2a7c <DIO_ReadPinValue+0xa0>
    2a78:	55 95       	asr	r21
    2a7a:	47 95       	ror	r20
    2a7c:	8a 95       	dec	r24
    2a7e:	e2 f7       	brpl	.-8      	; 0x2a78 <DIO_ReadPinValue+0x9c>
    2a80:	ca 01       	movw	r24, r20
    2a82:	89 83       	std	Y+1, r24	; 0x01
    2a84:	59 c0       	rjmp	.+178    	; 0x2b38 <DIO_ReadPinValue+0x15c>
				break ;
			case DIO_PORTB:
				PinStatues = READ_BIT(PINB , PinNum) ;
    2a86:	e6 e3       	ldi	r30, 0x36	; 54
    2a88:	f0 e0       	ldi	r31, 0x00	; 0
    2a8a:	80 81       	ld	r24, Z
    2a8c:	48 2f       	mov	r20, r24
    2a8e:	50 e0       	ldi	r21, 0x00	; 0
    2a90:	8b 81       	ldd	r24, Y+3	; 0x03
    2a92:	28 2f       	mov	r18, r24
    2a94:	30 e0       	ldi	r19, 0x00	; 0
    2a96:	81 e0       	ldi	r24, 0x01	; 1
    2a98:	90 e0       	ldi	r25, 0x00	; 0
    2a9a:	02 c0       	rjmp	.+4      	; 0x2aa0 <DIO_ReadPinValue+0xc4>
    2a9c:	88 0f       	add	r24, r24
    2a9e:	99 1f       	adc	r25, r25
    2aa0:	2a 95       	dec	r18
    2aa2:	e2 f7       	brpl	.-8      	; 0x2a9c <DIO_ReadPinValue+0xc0>
    2aa4:	9a 01       	movw	r18, r20
    2aa6:	28 23       	and	r18, r24
    2aa8:	39 23       	and	r19, r25
    2aaa:	8b 81       	ldd	r24, Y+3	; 0x03
    2aac:	88 2f       	mov	r24, r24
    2aae:	90 e0       	ldi	r25, 0x00	; 0
    2ab0:	a9 01       	movw	r20, r18
    2ab2:	02 c0       	rjmp	.+4      	; 0x2ab8 <DIO_ReadPinValue+0xdc>
    2ab4:	55 95       	asr	r21
    2ab6:	47 95       	ror	r20
    2ab8:	8a 95       	dec	r24
    2aba:	e2 f7       	brpl	.-8      	; 0x2ab4 <DIO_ReadPinValue+0xd8>
    2abc:	ca 01       	movw	r24, r20
    2abe:	89 83       	std	Y+1, r24	; 0x01
    2ac0:	3b c0       	rjmp	.+118    	; 0x2b38 <DIO_ReadPinValue+0x15c>
				break ;
			case DIO_PORTC:
				PinStatues = READ_BIT(PINC , PinNum) ;
    2ac2:	e3 e3       	ldi	r30, 0x33	; 51
    2ac4:	f0 e0       	ldi	r31, 0x00	; 0
    2ac6:	80 81       	ld	r24, Z
    2ac8:	48 2f       	mov	r20, r24
    2aca:	50 e0       	ldi	r21, 0x00	; 0
    2acc:	8b 81       	ldd	r24, Y+3	; 0x03
    2ace:	28 2f       	mov	r18, r24
    2ad0:	30 e0       	ldi	r19, 0x00	; 0
    2ad2:	81 e0       	ldi	r24, 0x01	; 1
    2ad4:	90 e0       	ldi	r25, 0x00	; 0
    2ad6:	02 c0       	rjmp	.+4      	; 0x2adc <DIO_ReadPinValue+0x100>
    2ad8:	88 0f       	add	r24, r24
    2ada:	99 1f       	adc	r25, r25
    2adc:	2a 95       	dec	r18
    2ade:	e2 f7       	brpl	.-8      	; 0x2ad8 <DIO_ReadPinValue+0xfc>
    2ae0:	9a 01       	movw	r18, r20
    2ae2:	28 23       	and	r18, r24
    2ae4:	39 23       	and	r19, r25
    2ae6:	8b 81       	ldd	r24, Y+3	; 0x03
    2ae8:	88 2f       	mov	r24, r24
    2aea:	90 e0       	ldi	r25, 0x00	; 0
    2aec:	a9 01       	movw	r20, r18
    2aee:	02 c0       	rjmp	.+4      	; 0x2af4 <DIO_ReadPinValue+0x118>
    2af0:	55 95       	asr	r21
    2af2:	47 95       	ror	r20
    2af4:	8a 95       	dec	r24
    2af6:	e2 f7       	brpl	.-8      	; 0x2af0 <DIO_ReadPinValue+0x114>
    2af8:	ca 01       	movw	r24, r20
    2afa:	89 83       	std	Y+1, r24	; 0x01
    2afc:	1d c0       	rjmp	.+58     	; 0x2b38 <DIO_ReadPinValue+0x15c>
				break ;
			case DIO_PORTD:
				PinStatues = READ_BIT(PIND , PinNum) ;
    2afe:	e0 e3       	ldi	r30, 0x30	; 48
    2b00:	f0 e0       	ldi	r31, 0x00	; 0
    2b02:	80 81       	ld	r24, Z
    2b04:	48 2f       	mov	r20, r24
    2b06:	50 e0       	ldi	r21, 0x00	; 0
    2b08:	8b 81       	ldd	r24, Y+3	; 0x03
    2b0a:	28 2f       	mov	r18, r24
    2b0c:	30 e0       	ldi	r19, 0x00	; 0
    2b0e:	81 e0       	ldi	r24, 0x01	; 1
    2b10:	90 e0       	ldi	r25, 0x00	; 0
    2b12:	02 c0       	rjmp	.+4      	; 0x2b18 <DIO_ReadPinValue+0x13c>
    2b14:	88 0f       	add	r24, r24
    2b16:	99 1f       	adc	r25, r25
    2b18:	2a 95       	dec	r18
    2b1a:	e2 f7       	brpl	.-8      	; 0x2b14 <DIO_ReadPinValue+0x138>
    2b1c:	9a 01       	movw	r18, r20
    2b1e:	28 23       	and	r18, r24
    2b20:	39 23       	and	r19, r25
    2b22:	8b 81       	ldd	r24, Y+3	; 0x03
    2b24:	88 2f       	mov	r24, r24
    2b26:	90 e0       	ldi	r25, 0x00	; 0
    2b28:	a9 01       	movw	r20, r18
    2b2a:	02 c0       	rjmp	.+4      	; 0x2b30 <DIO_ReadPinValue+0x154>
    2b2c:	55 95       	asr	r21
    2b2e:	47 95       	ror	r20
    2b30:	8a 95       	dec	r24
    2b32:	e2 f7       	brpl	.-8      	; 0x2b2c <DIO_ReadPinValue+0x150>
    2b34:	ca 01       	movw	r24, r20
    2b36:	89 83       	std	Y+1, r24	; 0x01
				break ;
			}
		}
	}
	return PinStatues ;
    2b38:	89 81       	ldd	r24, Y+1	; 0x01
}
    2b3a:	0f 90       	pop	r0
    2b3c:	0f 90       	pop	r0
    2b3e:	0f 90       	pop	r0
    2b40:	0f 90       	pop	r0
    2b42:	0f 90       	pop	r0
    2b44:	cf 91       	pop	r28
    2b46:	df 91       	pop	r29
    2b48:	08 95       	ret

00002b4a <DIO_TogPinValue>:
void DIO_TogPinValue  (u8 PortName , u8 PinNum           )
{
    2b4a:	df 93       	push	r29
    2b4c:	cf 93       	push	r28
    2b4e:	00 d0       	rcall	.+0      	; 0x2b50 <DIO_TogPinValue+0x6>
    2b50:	00 d0       	rcall	.+0      	; 0x2b52 <DIO_TogPinValue+0x8>
    2b52:	cd b7       	in	r28, 0x3d	; 61
    2b54:	de b7       	in	r29, 0x3e	; 62
    2b56:	89 83       	std	Y+1, r24	; 0x01
    2b58:	6a 83       	std	Y+2, r22	; 0x02
	if (PortName >= DIO_PORTA && PortName <= DIO_PORTD)
    2b5a:	89 81       	ldd	r24, Y+1	; 0x01
    2b5c:	88 23       	and	r24, r24
    2b5e:	09 f4       	brne	.+2      	; 0x2b62 <DIO_TogPinValue+0x18>
    2b60:	77 c0       	rjmp	.+238    	; 0x2c50 <DIO_TogPinValue+0x106>
    2b62:	89 81       	ldd	r24, Y+1	; 0x01
    2b64:	85 30       	cpi	r24, 0x05	; 5
    2b66:	08 f0       	brcs	.+2      	; 0x2b6a <DIO_TogPinValue+0x20>
    2b68:	73 c0       	rjmp	.+230    	; 0x2c50 <DIO_TogPinValue+0x106>
	{
		if (PinNum >= DIO_PIN0 && PinNum <= DIO_PIN7)
    2b6a:	8a 81       	ldd	r24, Y+2	; 0x02
    2b6c:	88 30       	cpi	r24, 0x08	; 8
    2b6e:	08 f0       	brcs	.+2      	; 0x2b72 <DIO_TogPinValue+0x28>
    2b70:	6f c0       	rjmp	.+222    	; 0x2c50 <DIO_TogPinValue+0x106>
		{
			switch (PortName)
    2b72:	89 81       	ldd	r24, Y+1	; 0x01
    2b74:	28 2f       	mov	r18, r24
    2b76:	30 e0       	ldi	r19, 0x00	; 0
    2b78:	3c 83       	std	Y+4, r19	; 0x04
    2b7a:	2b 83       	std	Y+3, r18	; 0x03
    2b7c:	8b 81       	ldd	r24, Y+3	; 0x03
    2b7e:	9c 81       	ldd	r25, Y+4	; 0x04
    2b80:	82 30       	cpi	r24, 0x02	; 2
    2b82:	91 05       	cpc	r25, r1
    2b84:	51 f1       	breq	.+84     	; 0x2bda <DIO_TogPinValue+0x90>
    2b86:	2b 81       	ldd	r18, Y+3	; 0x03
    2b88:	3c 81       	ldd	r19, Y+4	; 0x04
    2b8a:	23 30       	cpi	r18, 0x03	; 3
    2b8c:	31 05       	cpc	r19, r1
    2b8e:	34 f4       	brge	.+12     	; 0x2b9c <DIO_TogPinValue+0x52>
    2b90:	8b 81       	ldd	r24, Y+3	; 0x03
    2b92:	9c 81       	ldd	r25, Y+4	; 0x04
    2b94:	81 30       	cpi	r24, 0x01	; 1
    2b96:	91 05       	cpc	r25, r1
    2b98:	61 f0       	breq	.+24     	; 0x2bb2 <DIO_TogPinValue+0x68>
    2b9a:	5a c0       	rjmp	.+180    	; 0x2c50 <DIO_TogPinValue+0x106>
    2b9c:	2b 81       	ldd	r18, Y+3	; 0x03
    2b9e:	3c 81       	ldd	r19, Y+4	; 0x04
    2ba0:	23 30       	cpi	r18, 0x03	; 3
    2ba2:	31 05       	cpc	r19, r1
    2ba4:	71 f1       	breq	.+92     	; 0x2c02 <DIO_TogPinValue+0xb8>
    2ba6:	8b 81       	ldd	r24, Y+3	; 0x03
    2ba8:	9c 81       	ldd	r25, Y+4	; 0x04
    2baa:	84 30       	cpi	r24, 0x04	; 4
    2bac:	91 05       	cpc	r25, r1
    2bae:	e9 f1       	breq	.+122    	; 0x2c2a <DIO_TogPinValue+0xe0>
    2bb0:	4f c0       	rjmp	.+158    	; 0x2c50 <DIO_TogPinValue+0x106>
			{
			case DIO_PORTA:
				TOG_BIT(PORTA , PinNum) ;
    2bb2:	ab e3       	ldi	r26, 0x3B	; 59
    2bb4:	b0 e0       	ldi	r27, 0x00	; 0
    2bb6:	eb e3       	ldi	r30, 0x3B	; 59
    2bb8:	f0 e0       	ldi	r31, 0x00	; 0
    2bba:	80 81       	ld	r24, Z
    2bbc:	48 2f       	mov	r20, r24
    2bbe:	8a 81       	ldd	r24, Y+2	; 0x02
    2bc0:	28 2f       	mov	r18, r24
    2bc2:	30 e0       	ldi	r19, 0x00	; 0
    2bc4:	81 e0       	ldi	r24, 0x01	; 1
    2bc6:	90 e0       	ldi	r25, 0x00	; 0
    2bc8:	02 2e       	mov	r0, r18
    2bca:	02 c0       	rjmp	.+4      	; 0x2bd0 <DIO_TogPinValue+0x86>
    2bcc:	88 0f       	add	r24, r24
    2bce:	99 1f       	adc	r25, r25
    2bd0:	0a 94       	dec	r0
    2bd2:	e2 f7       	brpl	.-8      	; 0x2bcc <DIO_TogPinValue+0x82>
    2bd4:	84 27       	eor	r24, r20
    2bd6:	8c 93       	st	X, r24
    2bd8:	3b c0       	rjmp	.+118    	; 0x2c50 <DIO_TogPinValue+0x106>
				break ;
			case DIO_PORTB:
				TOG_BIT(PORTB , PinNum) ;
    2bda:	a8 e3       	ldi	r26, 0x38	; 56
    2bdc:	b0 e0       	ldi	r27, 0x00	; 0
    2bde:	e8 e3       	ldi	r30, 0x38	; 56
    2be0:	f0 e0       	ldi	r31, 0x00	; 0
    2be2:	80 81       	ld	r24, Z
    2be4:	48 2f       	mov	r20, r24
    2be6:	8a 81       	ldd	r24, Y+2	; 0x02
    2be8:	28 2f       	mov	r18, r24
    2bea:	30 e0       	ldi	r19, 0x00	; 0
    2bec:	81 e0       	ldi	r24, 0x01	; 1
    2bee:	90 e0       	ldi	r25, 0x00	; 0
    2bf0:	02 2e       	mov	r0, r18
    2bf2:	02 c0       	rjmp	.+4      	; 0x2bf8 <DIO_TogPinValue+0xae>
    2bf4:	88 0f       	add	r24, r24
    2bf6:	99 1f       	adc	r25, r25
    2bf8:	0a 94       	dec	r0
    2bfa:	e2 f7       	brpl	.-8      	; 0x2bf4 <DIO_TogPinValue+0xaa>
    2bfc:	84 27       	eor	r24, r20
    2bfe:	8c 93       	st	X, r24
    2c00:	27 c0       	rjmp	.+78     	; 0x2c50 <DIO_TogPinValue+0x106>
				break ;
			case DIO_PORTC:
				TOG_BIT(PORTC , PinNum) ;
    2c02:	a5 e3       	ldi	r26, 0x35	; 53
    2c04:	b0 e0       	ldi	r27, 0x00	; 0
    2c06:	e5 e3       	ldi	r30, 0x35	; 53
    2c08:	f0 e0       	ldi	r31, 0x00	; 0
    2c0a:	80 81       	ld	r24, Z
    2c0c:	48 2f       	mov	r20, r24
    2c0e:	8a 81       	ldd	r24, Y+2	; 0x02
    2c10:	28 2f       	mov	r18, r24
    2c12:	30 e0       	ldi	r19, 0x00	; 0
    2c14:	81 e0       	ldi	r24, 0x01	; 1
    2c16:	90 e0       	ldi	r25, 0x00	; 0
    2c18:	02 2e       	mov	r0, r18
    2c1a:	02 c0       	rjmp	.+4      	; 0x2c20 <DIO_TogPinValue+0xd6>
    2c1c:	88 0f       	add	r24, r24
    2c1e:	99 1f       	adc	r25, r25
    2c20:	0a 94       	dec	r0
    2c22:	e2 f7       	brpl	.-8      	; 0x2c1c <DIO_TogPinValue+0xd2>
    2c24:	84 27       	eor	r24, r20
    2c26:	8c 93       	st	X, r24
    2c28:	13 c0       	rjmp	.+38     	; 0x2c50 <DIO_TogPinValue+0x106>
				break ;
			case DIO_PORTD:
				TOG_BIT(PORTD , PinNum) ;
    2c2a:	a2 e3       	ldi	r26, 0x32	; 50
    2c2c:	b0 e0       	ldi	r27, 0x00	; 0
    2c2e:	e2 e3       	ldi	r30, 0x32	; 50
    2c30:	f0 e0       	ldi	r31, 0x00	; 0
    2c32:	80 81       	ld	r24, Z
    2c34:	48 2f       	mov	r20, r24
    2c36:	8a 81       	ldd	r24, Y+2	; 0x02
    2c38:	28 2f       	mov	r18, r24
    2c3a:	30 e0       	ldi	r19, 0x00	; 0
    2c3c:	81 e0       	ldi	r24, 0x01	; 1
    2c3e:	90 e0       	ldi	r25, 0x00	; 0
    2c40:	02 2e       	mov	r0, r18
    2c42:	02 c0       	rjmp	.+4      	; 0x2c48 <DIO_TogPinValue+0xfe>
    2c44:	88 0f       	add	r24, r24
    2c46:	99 1f       	adc	r25, r25
    2c48:	0a 94       	dec	r0
    2c4a:	e2 f7       	brpl	.-8      	; 0x2c44 <DIO_TogPinValue+0xfa>
    2c4c:	84 27       	eor	r24, r20
    2c4e:	8c 93       	st	X, r24
				break ;
			}
		}
	}
}
    2c50:	0f 90       	pop	r0
    2c52:	0f 90       	pop	r0
    2c54:	0f 90       	pop	r0
    2c56:	0f 90       	pop	r0
    2c58:	cf 91       	pop	r28
    2c5a:	df 91       	pop	r29
    2c5c:	08 95       	ret

00002c5e <DIO_InitPort>:
void DIO_InitPort      (u8 PortName , u8 Mode )
{
    2c5e:	df 93       	push	r29
    2c60:	cf 93       	push	r28
    2c62:	00 d0       	rcall	.+0      	; 0x2c64 <DIO_InitPort+0x6>
    2c64:	00 d0       	rcall	.+0      	; 0x2c66 <DIO_InitPort+0x8>
    2c66:	cd b7       	in	r28, 0x3d	; 61
    2c68:	de b7       	in	r29, 0x3e	; 62
    2c6a:	89 83       	std	Y+1, r24	; 0x01
    2c6c:	6a 83       	std	Y+2, r22	; 0x02
	if (PortName >= DIO_PORTA && PortName <= DIO_PORTD)
    2c6e:	89 81       	ldd	r24, Y+1	; 0x01
    2c70:	88 23       	and	r24, r24
    2c72:	b1 f1       	breq	.+108    	; 0x2ce0 <DIO_InitPort+0x82>
    2c74:	89 81       	ldd	r24, Y+1	; 0x01
    2c76:	85 30       	cpi	r24, 0x05	; 5
    2c78:	98 f5       	brcc	.+102    	; 0x2ce0 <DIO_InitPort+0x82>
	{
		switch (PortName)
    2c7a:	89 81       	ldd	r24, Y+1	; 0x01
    2c7c:	28 2f       	mov	r18, r24
    2c7e:	30 e0       	ldi	r19, 0x00	; 0
    2c80:	3c 83       	std	Y+4, r19	; 0x04
    2c82:	2b 83       	std	Y+3, r18	; 0x03
    2c84:	8b 81       	ldd	r24, Y+3	; 0x03
    2c86:	9c 81       	ldd	r25, Y+4	; 0x04
    2c88:	82 30       	cpi	r24, 0x02	; 2
    2c8a:	91 05       	cpc	r25, r1
    2c8c:	d9 f0       	breq	.+54     	; 0x2cc4 <DIO_InitPort+0x66>
    2c8e:	2b 81       	ldd	r18, Y+3	; 0x03
    2c90:	3c 81       	ldd	r19, Y+4	; 0x04
    2c92:	23 30       	cpi	r18, 0x03	; 3
    2c94:	31 05       	cpc	r19, r1
    2c96:	34 f4       	brge	.+12     	; 0x2ca4 <DIO_InitPort+0x46>
    2c98:	8b 81       	ldd	r24, Y+3	; 0x03
    2c9a:	9c 81       	ldd	r25, Y+4	; 0x04
    2c9c:	81 30       	cpi	r24, 0x01	; 1
    2c9e:	91 05       	cpc	r25, r1
    2ca0:	61 f0       	breq	.+24     	; 0x2cba <DIO_InitPort+0x5c>
    2ca2:	1e c0       	rjmp	.+60     	; 0x2ce0 <DIO_InitPort+0x82>
    2ca4:	2b 81       	ldd	r18, Y+3	; 0x03
    2ca6:	3c 81       	ldd	r19, Y+4	; 0x04
    2ca8:	23 30       	cpi	r18, 0x03	; 3
    2caa:	31 05       	cpc	r19, r1
    2cac:	81 f0       	breq	.+32     	; 0x2cce <DIO_InitPort+0x70>
    2cae:	8b 81       	ldd	r24, Y+3	; 0x03
    2cb0:	9c 81       	ldd	r25, Y+4	; 0x04
    2cb2:	84 30       	cpi	r24, 0x04	; 4
    2cb4:	91 05       	cpc	r25, r1
    2cb6:	81 f0       	breq	.+32     	; 0x2cd8 <DIO_InitPort+0x7a>
    2cb8:	13 c0       	rjmp	.+38     	; 0x2ce0 <DIO_InitPort+0x82>
		{
		case DIO_PORTA:
			DDRA = Mode ;
    2cba:	ea e3       	ldi	r30, 0x3A	; 58
    2cbc:	f0 e0       	ldi	r31, 0x00	; 0
    2cbe:	8a 81       	ldd	r24, Y+2	; 0x02
    2cc0:	80 83       	st	Z, r24
    2cc2:	0e c0       	rjmp	.+28     	; 0x2ce0 <DIO_InitPort+0x82>
			break ;
		case DIO_PORTB:
			DDRB = Mode ;
    2cc4:	e7 e3       	ldi	r30, 0x37	; 55
    2cc6:	f0 e0       	ldi	r31, 0x00	; 0
    2cc8:	8a 81       	ldd	r24, Y+2	; 0x02
    2cca:	80 83       	st	Z, r24
    2ccc:	09 c0       	rjmp	.+18     	; 0x2ce0 <DIO_InitPort+0x82>
			break ;
		case DIO_PORTC:
			DDRC = Mode ;
    2cce:	e4 e3       	ldi	r30, 0x34	; 52
    2cd0:	f0 e0       	ldi	r31, 0x00	; 0
    2cd2:	8a 81       	ldd	r24, Y+2	; 0x02
    2cd4:	80 83       	st	Z, r24
    2cd6:	04 c0       	rjmp	.+8      	; 0x2ce0 <DIO_InitPort+0x82>
			break ;
		case DIO_PORTD:
			DDRD = Mode ;
    2cd8:	e1 e3       	ldi	r30, 0x31	; 49
    2cda:	f0 e0       	ldi	r31, 0x00	; 0
    2cdc:	8a 81       	ldd	r24, Y+2	; 0x02
    2cde:	80 83       	st	Z, r24
			break ;
		}
	}
}
    2ce0:	0f 90       	pop	r0
    2ce2:	0f 90       	pop	r0
    2ce4:	0f 90       	pop	r0
    2ce6:	0f 90       	pop	r0
    2ce8:	cf 91       	pop	r28
    2cea:	df 91       	pop	r29
    2cec:	08 95       	ret

00002cee <DIO_SetPortValue>:
void DIO_SetPortValue  (u8 PortName , u8 Value)
{
    2cee:	df 93       	push	r29
    2cf0:	cf 93       	push	r28
    2cf2:	00 d0       	rcall	.+0      	; 0x2cf4 <DIO_SetPortValue+0x6>
    2cf4:	00 d0       	rcall	.+0      	; 0x2cf6 <DIO_SetPortValue+0x8>
    2cf6:	cd b7       	in	r28, 0x3d	; 61
    2cf8:	de b7       	in	r29, 0x3e	; 62
    2cfa:	89 83       	std	Y+1, r24	; 0x01
    2cfc:	6a 83       	std	Y+2, r22	; 0x02
	if (PortName >= DIO_PORTA && PortName <= DIO_PORTD)
    2cfe:	89 81       	ldd	r24, Y+1	; 0x01
    2d00:	88 23       	and	r24, r24
    2d02:	b1 f1       	breq	.+108    	; 0x2d70 <DIO_SetPortValue+0x82>
    2d04:	89 81       	ldd	r24, Y+1	; 0x01
    2d06:	85 30       	cpi	r24, 0x05	; 5
    2d08:	98 f5       	brcc	.+102    	; 0x2d70 <DIO_SetPortValue+0x82>
	{
		switch (PortName)
    2d0a:	89 81       	ldd	r24, Y+1	; 0x01
    2d0c:	28 2f       	mov	r18, r24
    2d0e:	30 e0       	ldi	r19, 0x00	; 0
    2d10:	3c 83       	std	Y+4, r19	; 0x04
    2d12:	2b 83       	std	Y+3, r18	; 0x03
    2d14:	8b 81       	ldd	r24, Y+3	; 0x03
    2d16:	9c 81       	ldd	r25, Y+4	; 0x04
    2d18:	82 30       	cpi	r24, 0x02	; 2
    2d1a:	91 05       	cpc	r25, r1
    2d1c:	d9 f0       	breq	.+54     	; 0x2d54 <DIO_SetPortValue+0x66>
    2d1e:	2b 81       	ldd	r18, Y+3	; 0x03
    2d20:	3c 81       	ldd	r19, Y+4	; 0x04
    2d22:	23 30       	cpi	r18, 0x03	; 3
    2d24:	31 05       	cpc	r19, r1
    2d26:	34 f4       	brge	.+12     	; 0x2d34 <DIO_SetPortValue+0x46>
    2d28:	8b 81       	ldd	r24, Y+3	; 0x03
    2d2a:	9c 81       	ldd	r25, Y+4	; 0x04
    2d2c:	81 30       	cpi	r24, 0x01	; 1
    2d2e:	91 05       	cpc	r25, r1
    2d30:	61 f0       	breq	.+24     	; 0x2d4a <DIO_SetPortValue+0x5c>
    2d32:	1e c0       	rjmp	.+60     	; 0x2d70 <DIO_SetPortValue+0x82>
    2d34:	2b 81       	ldd	r18, Y+3	; 0x03
    2d36:	3c 81       	ldd	r19, Y+4	; 0x04
    2d38:	23 30       	cpi	r18, 0x03	; 3
    2d3a:	31 05       	cpc	r19, r1
    2d3c:	81 f0       	breq	.+32     	; 0x2d5e <DIO_SetPortValue+0x70>
    2d3e:	8b 81       	ldd	r24, Y+3	; 0x03
    2d40:	9c 81       	ldd	r25, Y+4	; 0x04
    2d42:	84 30       	cpi	r24, 0x04	; 4
    2d44:	91 05       	cpc	r25, r1
    2d46:	81 f0       	breq	.+32     	; 0x2d68 <DIO_SetPortValue+0x7a>
    2d48:	13 c0       	rjmp	.+38     	; 0x2d70 <DIO_SetPortValue+0x82>
		{
		case DIO_PORTA:
			PORTA = Value ;
    2d4a:	eb e3       	ldi	r30, 0x3B	; 59
    2d4c:	f0 e0       	ldi	r31, 0x00	; 0
    2d4e:	8a 81       	ldd	r24, Y+2	; 0x02
    2d50:	80 83       	st	Z, r24
    2d52:	0e c0       	rjmp	.+28     	; 0x2d70 <DIO_SetPortValue+0x82>
			break ;
		case DIO_PORTB:
			PORTB = Value ;
    2d54:	e8 e3       	ldi	r30, 0x38	; 56
    2d56:	f0 e0       	ldi	r31, 0x00	; 0
    2d58:	8a 81       	ldd	r24, Y+2	; 0x02
    2d5a:	80 83       	st	Z, r24
    2d5c:	09 c0       	rjmp	.+18     	; 0x2d70 <DIO_SetPortValue+0x82>
			break ;
		case DIO_PORTC:
			PORTC = Value ;
    2d5e:	e5 e3       	ldi	r30, 0x35	; 53
    2d60:	f0 e0       	ldi	r31, 0x00	; 0
    2d62:	8a 81       	ldd	r24, Y+2	; 0x02
    2d64:	80 83       	st	Z, r24
    2d66:	04 c0       	rjmp	.+8      	; 0x2d70 <DIO_SetPortValue+0x82>
			break ;
		case DIO_PORTD:
			PORTD = Value ;
    2d68:	e2 e3       	ldi	r30, 0x32	; 50
    2d6a:	f0 e0       	ldi	r31, 0x00	; 0
    2d6c:	8a 81       	ldd	r24, Y+2	; 0x02
    2d6e:	80 83       	st	Z, r24
			break ;
		}
	}
}
    2d70:	0f 90       	pop	r0
    2d72:	0f 90       	pop	r0
    2d74:	0f 90       	pop	r0
    2d76:	0f 90       	pop	r0
    2d78:	cf 91       	pop	r28
    2d7a:	df 91       	pop	r29
    2d7c:	08 95       	ret

00002d7e <DIO_TogPortValue>:
void DIO_TogPortValue  (u8 PortName           )
{
    2d7e:	df 93       	push	r29
    2d80:	cf 93       	push	r28
    2d82:	00 d0       	rcall	.+0      	; 0x2d84 <DIO_TogPortValue+0x6>
    2d84:	0f 92       	push	r0
    2d86:	cd b7       	in	r28, 0x3d	; 61
    2d88:	de b7       	in	r29, 0x3e	; 62
    2d8a:	89 83       	std	Y+1, r24	; 0x01
	if (PortName >= DIO_PORTA && PortName <= DIO_PORTD)
    2d8c:	89 81       	ldd	r24, Y+1	; 0x01
    2d8e:	88 23       	and	r24, r24
    2d90:	09 f4       	brne	.+2      	; 0x2d94 <DIO_TogPortValue+0x16>
    2d92:	43 c0       	rjmp	.+134    	; 0x2e1a <DIO_TogPortValue+0x9c>
    2d94:	89 81       	ldd	r24, Y+1	; 0x01
    2d96:	85 30       	cpi	r24, 0x05	; 5
    2d98:	08 f0       	brcs	.+2      	; 0x2d9c <DIO_TogPortValue+0x1e>
    2d9a:	3f c0       	rjmp	.+126    	; 0x2e1a <DIO_TogPortValue+0x9c>
	{
		switch (PortName)
    2d9c:	89 81       	ldd	r24, Y+1	; 0x01
    2d9e:	28 2f       	mov	r18, r24
    2da0:	30 e0       	ldi	r19, 0x00	; 0
    2da2:	3b 83       	std	Y+3, r19	; 0x03
    2da4:	2a 83       	std	Y+2, r18	; 0x02
    2da6:	8a 81       	ldd	r24, Y+2	; 0x02
    2da8:	9b 81       	ldd	r25, Y+3	; 0x03
    2daa:	82 30       	cpi	r24, 0x02	; 2
    2dac:	91 05       	cpc	r25, r1
    2dae:	f1 f0       	breq	.+60     	; 0x2dec <DIO_TogPortValue+0x6e>
    2db0:	2a 81       	ldd	r18, Y+2	; 0x02
    2db2:	3b 81       	ldd	r19, Y+3	; 0x03
    2db4:	23 30       	cpi	r18, 0x03	; 3
    2db6:	31 05       	cpc	r19, r1
    2db8:	34 f4       	brge	.+12     	; 0x2dc6 <DIO_TogPortValue+0x48>
    2dba:	8a 81       	ldd	r24, Y+2	; 0x02
    2dbc:	9b 81       	ldd	r25, Y+3	; 0x03
    2dbe:	81 30       	cpi	r24, 0x01	; 1
    2dc0:	91 05       	cpc	r25, r1
    2dc2:	61 f0       	breq	.+24     	; 0x2ddc <DIO_TogPortValue+0x5e>
    2dc4:	2a c0       	rjmp	.+84     	; 0x2e1a <DIO_TogPortValue+0x9c>
    2dc6:	2a 81       	ldd	r18, Y+2	; 0x02
    2dc8:	3b 81       	ldd	r19, Y+3	; 0x03
    2dca:	23 30       	cpi	r18, 0x03	; 3
    2dcc:	31 05       	cpc	r19, r1
    2dce:	b1 f0       	breq	.+44     	; 0x2dfc <DIO_TogPortValue+0x7e>
    2dd0:	8a 81       	ldd	r24, Y+2	; 0x02
    2dd2:	9b 81       	ldd	r25, Y+3	; 0x03
    2dd4:	84 30       	cpi	r24, 0x04	; 4
    2dd6:	91 05       	cpc	r25, r1
    2dd8:	c9 f0       	breq	.+50     	; 0x2e0c <DIO_TogPortValue+0x8e>
    2dda:	1f c0       	rjmp	.+62     	; 0x2e1a <DIO_TogPortValue+0x9c>
		{
		case DIO_PORTA:
			PORTA = ~PORTA ;
    2ddc:	ab e3       	ldi	r26, 0x3B	; 59
    2dde:	b0 e0       	ldi	r27, 0x00	; 0
    2de0:	eb e3       	ldi	r30, 0x3B	; 59
    2de2:	f0 e0       	ldi	r31, 0x00	; 0
    2de4:	80 81       	ld	r24, Z
    2de6:	80 95       	com	r24
    2de8:	8c 93       	st	X, r24
    2dea:	17 c0       	rjmp	.+46     	; 0x2e1a <DIO_TogPortValue+0x9c>
			break ;
		case DIO_PORTB:
			PORTB = ~PORTB ;
    2dec:	a8 e3       	ldi	r26, 0x38	; 56
    2dee:	b0 e0       	ldi	r27, 0x00	; 0
    2df0:	e8 e3       	ldi	r30, 0x38	; 56
    2df2:	f0 e0       	ldi	r31, 0x00	; 0
    2df4:	80 81       	ld	r24, Z
    2df6:	80 95       	com	r24
    2df8:	8c 93       	st	X, r24
    2dfa:	0f c0       	rjmp	.+30     	; 0x2e1a <DIO_TogPortValue+0x9c>
			break ;
		case DIO_PORTC:
			PORTC = ~PORTC ;
    2dfc:	a5 e3       	ldi	r26, 0x35	; 53
    2dfe:	b0 e0       	ldi	r27, 0x00	; 0
    2e00:	e5 e3       	ldi	r30, 0x35	; 53
    2e02:	f0 e0       	ldi	r31, 0x00	; 0
    2e04:	80 81       	ld	r24, Z
    2e06:	80 95       	com	r24
    2e08:	8c 93       	st	X, r24
    2e0a:	07 c0       	rjmp	.+14     	; 0x2e1a <DIO_TogPortValue+0x9c>
			break ;
		case DIO_PORTD:
			PORTD = ~PORTD ;
    2e0c:	a2 e3       	ldi	r26, 0x32	; 50
    2e0e:	b0 e0       	ldi	r27, 0x00	; 0
    2e10:	e2 e3       	ldi	r30, 0x32	; 50
    2e12:	f0 e0       	ldi	r31, 0x00	; 0
    2e14:	80 81       	ld	r24, Z
    2e16:	80 95       	com	r24
    2e18:	8c 93       	st	X, r24
			break ;
		}
	}
}
    2e1a:	0f 90       	pop	r0
    2e1c:	0f 90       	pop	r0
    2e1e:	0f 90       	pop	r0
    2e20:	cf 91       	pop	r28
    2e22:	df 91       	pop	r29
    2e24:	08 95       	ret

00002e26 <DIO_ReadPortValue>:
u8   DIO_ReadPortValue (u8 PortName           )
{
    2e26:	df 93       	push	r29
    2e28:	cf 93       	push	r28
    2e2a:	00 d0       	rcall	.+0      	; 0x2e2c <DIO_ReadPortValue+0x6>
    2e2c:	00 d0       	rcall	.+0      	; 0x2e2e <DIO_ReadPortValue+0x8>
    2e2e:	cd b7       	in	r28, 0x3d	; 61
    2e30:	de b7       	in	r29, 0x3e	; 62
    2e32:	8a 83       	std	Y+2, r24	; 0x02
	u8 PortStatues ;
	if (PortName >= DIO_PORTA && PortName <= DIO_PORTD)
    2e34:	8a 81       	ldd	r24, Y+2	; 0x02
    2e36:	88 23       	and	r24, r24
    2e38:	b1 f1       	breq	.+108    	; 0x2ea6 <DIO_ReadPortValue+0x80>
    2e3a:	8a 81       	ldd	r24, Y+2	; 0x02
    2e3c:	85 30       	cpi	r24, 0x05	; 5
    2e3e:	98 f5       	brcc	.+102    	; 0x2ea6 <DIO_ReadPortValue+0x80>
	{
		switch (PortName)
    2e40:	8a 81       	ldd	r24, Y+2	; 0x02
    2e42:	28 2f       	mov	r18, r24
    2e44:	30 e0       	ldi	r19, 0x00	; 0
    2e46:	3c 83       	std	Y+4, r19	; 0x04
    2e48:	2b 83       	std	Y+3, r18	; 0x03
    2e4a:	8b 81       	ldd	r24, Y+3	; 0x03
    2e4c:	9c 81       	ldd	r25, Y+4	; 0x04
    2e4e:	82 30       	cpi	r24, 0x02	; 2
    2e50:	91 05       	cpc	r25, r1
    2e52:	d9 f0       	breq	.+54     	; 0x2e8a <DIO_ReadPortValue+0x64>
    2e54:	2b 81       	ldd	r18, Y+3	; 0x03
    2e56:	3c 81       	ldd	r19, Y+4	; 0x04
    2e58:	23 30       	cpi	r18, 0x03	; 3
    2e5a:	31 05       	cpc	r19, r1
    2e5c:	34 f4       	brge	.+12     	; 0x2e6a <DIO_ReadPortValue+0x44>
    2e5e:	8b 81       	ldd	r24, Y+3	; 0x03
    2e60:	9c 81       	ldd	r25, Y+4	; 0x04
    2e62:	81 30       	cpi	r24, 0x01	; 1
    2e64:	91 05       	cpc	r25, r1
    2e66:	61 f0       	breq	.+24     	; 0x2e80 <DIO_ReadPortValue+0x5a>
    2e68:	1e c0       	rjmp	.+60     	; 0x2ea6 <DIO_ReadPortValue+0x80>
    2e6a:	2b 81       	ldd	r18, Y+3	; 0x03
    2e6c:	3c 81       	ldd	r19, Y+4	; 0x04
    2e6e:	23 30       	cpi	r18, 0x03	; 3
    2e70:	31 05       	cpc	r19, r1
    2e72:	81 f0       	breq	.+32     	; 0x2e94 <DIO_ReadPortValue+0x6e>
    2e74:	8b 81       	ldd	r24, Y+3	; 0x03
    2e76:	9c 81       	ldd	r25, Y+4	; 0x04
    2e78:	84 30       	cpi	r24, 0x04	; 4
    2e7a:	91 05       	cpc	r25, r1
    2e7c:	81 f0       	breq	.+32     	; 0x2e9e <DIO_ReadPortValue+0x78>
    2e7e:	13 c0       	rjmp	.+38     	; 0x2ea6 <DIO_ReadPortValue+0x80>
		{
		case DIO_PORTA:
			PortStatues = PINA ;
    2e80:	e9 e3       	ldi	r30, 0x39	; 57
    2e82:	f0 e0       	ldi	r31, 0x00	; 0
    2e84:	80 81       	ld	r24, Z
    2e86:	89 83       	std	Y+1, r24	; 0x01
    2e88:	0e c0       	rjmp	.+28     	; 0x2ea6 <DIO_ReadPortValue+0x80>
			break ;
		case DIO_PORTB:
			PortStatues = PINB ;
    2e8a:	e6 e3       	ldi	r30, 0x36	; 54
    2e8c:	f0 e0       	ldi	r31, 0x00	; 0
    2e8e:	80 81       	ld	r24, Z
    2e90:	89 83       	std	Y+1, r24	; 0x01
    2e92:	09 c0       	rjmp	.+18     	; 0x2ea6 <DIO_ReadPortValue+0x80>
			break ;
		case DIO_PORTC:
			PortStatues = PINC ;
    2e94:	e3 e3       	ldi	r30, 0x33	; 51
    2e96:	f0 e0       	ldi	r31, 0x00	; 0
    2e98:	80 81       	ld	r24, Z
    2e9a:	89 83       	std	Y+1, r24	; 0x01
    2e9c:	04 c0       	rjmp	.+8      	; 0x2ea6 <DIO_ReadPortValue+0x80>
			break ;
		case DIO_PORTD:
			PortStatues = PIND ;
    2e9e:	e0 e3       	ldi	r30, 0x30	; 48
    2ea0:	f0 e0       	ldi	r31, 0x00	; 0
    2ea2:	80 81       	ld	r24, Z
    2ea4:	89 83       	std	Y+1, r24	; 0x01
			break ;
				}
			}
			return PortStatues ;
    2ea6:	89 81       	ldd	r24, Y+1	; 0x01
		}
    2ea8:	0f 90       	pop	r0
    2eaa:	0f 90       	pop	r0
    2eac:	0f 90       	pop	r0
    2eae:	0f 90       	pop	r0
    2eb0:	cf 91       	pop	r28
    2eb2:	df 91       	pop	r29
    2eb4:	08 95       	ret

00002eb6 <ADC_init>:
#include "ADC.h"

void (*ADC_fptr)(void);

void ADC_init (u8 ADC_ref)
{
    2eb6:	df 93       	push	r29
    2eb8:	cf 93       	push	r28
    2eba:	00 d0       	rcall	.+0      	; 0x2ebc <ADC_init+0x6>
    2ebc:	0f 92       	push	r0
    2ebe:	cd b7       	in	r28, 0x3d	; 61
    2ec0:	de b7       	in	r29, 0x3e	; 62
    2ec2:	89 83       	std	Y+1, r24	; 0x01
   switch (ADC_ref){
    2ec4:	89 81       	ldd	r24, Y+1	; 0x01
    2ec6:	28 2f       	mov	r18, r24
    2ec8:	30 e0       	ldi	r19, 0x00	; 0
    2eca:	3b 83       	std	Y+3, r19	; 0x03
    2ecc:	2a 83       	std	Y+2, r18	; 0x02
    2ece:	8a 81       	ldd	r24, Y+2	; 0x02
    2ed0:	9b 81       	ldd	r25, Y+3	; 0x03
    2ed2:	82 30       	cpi	r24, 0x02	; 2
    2ed4:	91 05       	cpc	r25, r1
    2ed6:	c9 f0       	breq	.+50     	; 0x2f0a <ADC_init+0x54>
    2ed8:	2a 81       	ldd	r18, Y+2	; 0x02
    2eda:	3b 81       	ldd	r19, Y+3	; 0x03
    2edc:	23 30       	cpi	r18, 0x03	; 3
    2ede:	31 05       	cpc	r19, r1
    2ee0:	19 f1       	breq	.+70     	; 0x2f28 <ADC_init+0x72>
    2ee2:	8a 81       	ldd	r24, Y+2	; 0x02
    2ee4:	9b 81       	ldd	r25, Y+3	; 0x03
    2ee6:	81 30       	cpi	r24, 0x01	; 1
    2ee8:	91 05       	cpc	r25, r1
    2eea:	61 f5       	brne	.+88     	; 0x2f44 <ADC_init+0x8e>
   case ADC_REFERENCE_INTERNAL:
	   CLR_BIT(ADMUX,REFS1);
    2eec:	a7 e2       	ldi	r26, 0x27	; 39
    2eee:	b0 e0       	ldi	r27, 0x00	; 0
    2ef0:	e7 e2       	ldi	r30, 0x27	; 39
    2ef2:	f0 e0       	ldi	r31, 0x00	; 0
    2ef4:	80 81       	ld	r24, Z
    2ef6:	8f 77       	andi	r24, 0x7F	; 127
    2ef8:	8c 93       	st	X, r24
	   CLR_BIT(ADMUX,REFS0);
    2efa:	a7 e2       	ldi	r26, 0x27	; 39
    2efc:	b0 e0       	ldi	r27, 0x00	; 0
    2efe:	e7 e2       	ldi	r30, 0x27	; 39
    2f00:	f0 e0       	ldi	r31, 0x00	; 0
    2f02:	80 81       	ld	r24, Z
    2f04:	8f 7b       	andi	r24, 0xBF	; 191
    2f06:	8c 93       	st	X, r24
    2f08:	1d c0       	rjmp	.+58     	; 0x2f44 <ADC_init+0x8e>
	   break;
   case ADC_REFERENCE_AVCC:
	   CLR_BIT(ADMUX,REFS1);
    2f0a:	a7 e2       	ldi	r26, 0x27	; 39
    2f0c:	b0 e0       	ldi	r27, 0x00	; 0
    2f0e:	e7 e2       	ldi	r30, 0x27	; 39
    2f10:	f0 e0       	ldi	r31, 0x00	; 0
    2f12:	80 81       	ld	r24, Z
    2f14:	8f 77       	andi	r24, 0x7F	; 127
    2f16:	8c 93       	st	X, r24
	   SET_BIT(ADMUX,REFS0);
    2f18:	a7 e2       	ldi	r26, 0x27	; 39
    2f1a:	b0 e0       	ldi	r27, 0x00	; 0
    2f1c:	e7 e2       	ldi	r30, 0x27	; 39
    2f1e:	f0 e0       	ldi	r31, 0x00	; 0
    2f20:	80 81       	ld	r24, Z
    2f22:	80 64       	ori	r24, 0x40	; 64
    2f24:	8c 93       	st	X, r24
    2f26:	0e c0       	rjmp	.+28     	; 0x2f44 <ADC_init+0x8e>
	   break;
   case ADC_REFERENCE_EXTERNAL:
	   SET_BIT(ADMUX,REFS1);
    2f28:	a7 e2       	ldi	r26, 0x27	; 39
    2f2a:	b0 e0       	ldi	r27, 0x00	; 0
    2f2c:	e7 e2       	ldi	r30, 0x27	; 39
    2f2e:	f0 e0       	ldi	r31, 0x00	; 0
    2f30:	80 81       	ld	r24, Z
    2f32:	80 68       	ori	r24, 0x80	; 128
    2f34:	8c 93       	st	X, r24
	   SET_BIT(ADMUX,REFS0);
    2f36:	a7 e2       	ldi	r26, 0x27	; 39
    2f38:	b0 e0       	ldi	r27, 0x00	; 0
    2f3a:	e7 e2       	ldi	r30, 0x27	; 39
    2f3c:	f0 e0       	ldi	r31, 0x00	; 0
    2f3e:	80 81       	ld	r24, Z
    2f40:	80 64       	ori	r24, 0x40	; 64
    2f42:	8c 93       	st	X, r24
	   break;
   }

   //Right adjust
   CLR_BIT(ADMUX, ADLAR);
    2f44:	a7 e2       	ldi	r26, 0x27	; 39
    2f46:	b0 e0       	ldi	r27, 0x00	; 0
    2f48:	e7 e2       	ldi	r30, 0x27	; 39
    2f4a:	f0 e0       	ldi	r31, 0x00	; 0
    2f4c:	80 81       	ld	r24, Z
    2f4e:	8f 7d       	andi	r24, 0xDF	; 223
    2f50:	8c 93       	st	X, r24

   //ADC enable
   SET_BIT(ADCSRA, ADEN);
    2f52:	a6 e2       	ldi	r26, 0x26	; 38
    2f54:	b0 e0       	ldi	r27, 0x00	; 0
    2f56:	e6 e2       	ldi	r30, 0x26	; 38
    2f58:	f0 e0       	ldi	r31, 0x00	; 0
    2f5a:	80 81       	ld	r24, Z
    2f5c:	80 68       	ori	r24, 0x80	; 128
    2f5e:	8c 93       	st	X, r24

   //Enable ADC DIE
   SET_BIT(ADCSRA, ADIE);
    2f60:	a6 e2       	ldi	r26, 0x26	; 38
    2f62:	b0 e0       	ldi	r27, 0x00	; 0
    2f64:	e6 e2       	ldi	r30, 0x26	; 38
    2f66:	f0 e0       	ldi	r31, 0x00	; 0
    2f68:	80 81       	ld	r24, Z
    2f6a:	88 60       	ori	r24, 0x08	; 8
    2f6c:	8c 93       	st	X, r24

   //Enable Prescaler /64
   SET_BIT(ADCSRA, ADPS2);
    2f6e:	a6 e2       	ldi	r26, 0x26	; 38
    2f70:	b0 e0       	ldi	r27, 0x00	; 0
    2f72:	e6 e2       	ldi	r30, 0x26	; 38
    2f74:	f0 e0       	ldi	r31, 0x00	; 0
    2f76:	80 81       	ld	r24, Z
    2f78:	84 60       	ori	r24, 0x04	; 4
    2f7a:	8c 93       	st	X, r24
   SET_BIT(ADCSRA, ADPS1);
    2f7c:	a6 e2       	ldi	r26, 0x26	; 38
    2f7e:	b0 e0       	ldi	r27, 0x00	; 0
    2f80:	e6 e2       	ldi	r30, 0x26	; 38
    2f82:	f0 e0       	ldi	r31, 0x00	; 0
    2f84:	80 81       	ld	r24, Z
    2f86:	82 60       	ori	r24, 0x02	; 2
    2f88:	8c 93       	st	X, r24
   SET_BIT(ADCSRA, ADPS0);
    2f8a:	a6 e2       	ldi	r26, 0x26	; 38
    2f8c:	b0 e0       	ldi	r27, 0x00	; 0
    2f8e:	e6 e2       	ldi	r30, 0x26	; 38
    2f90:	f0 e0       	ldi	r31, 0x00	; 0
    2f92:	80 81       	ld	r24, Z
    2f94:	81 60       	ori	r24, 0x01	; 1
    2f96:	8c 93       	st	X, r24

   //Disable auto trig
   CLR_BIT(ADCSRA, ADATE);
    2f98:	a6 e2       	ldi	r26, 0x26	; 38
    2f9a:	b0 e0       	ldi	r27, 0x00	; 0
    2f9c:	e6 e2       	ldi	r30, 0x26	; 38
    2f9e:	f0 e0       	ldi	r31, 0x00	; 0
    2fa0:	80 81       	ld	r24, Z
    2fa2:	8f 7d       	andi	r24, 0xDF	; 223
    2fa4:	8c 93       	st	X, r24

}
    2fa6:	0f 90       	pop	r0
    2fa8:	0f 90       	pop	r0
    2faa:	0f 90       	pop	r0
    2fac:	cf 91       	pop	r28
    2fae:	df 91       	pop	r29
    2fb0:	08 95       	ret

00002fb2 <ADC_startConv>:

void ADC_startConv(u8 channel)
{
    2fb2:	df 93       	push	r29
    2fb4:	cf 93       	push	r28
    2fb6:	00 d0       	rcall	.+0      	; 0x2fb8 <ADC_startConv+0x6>
    2fb8:	0f 92       	push	r0
    2fba:	cd b7       	in	r28, 0x3d	; 61
    2fbc:	de b7       	in	r29, 0x3e	; 62
    2fbe:	89 83       	std	Y+1, r24	; 0x01
   switch(channel){
    2fc0:	89 81       	ldd	r24, Y+1	; 0x01
    2fc2:	28 2f       	mov	r18, r24
    2fc4:	30 e0       	ldi	r19, 0x00	; 0
    2fc6:	3b 83       	std	Y+3, r19	; 0x03
    2fc8:	2a 83       	std	Y+2, r18	; 0x02
    2fca:	8a 81       	ldd	r24, Y+2	; 0x02
    2fcc:	9b 81       	ldd	r25, Y+3	; 0x03
    2fce:	83 30       	cpi	r24, 0x03	; 3
    2fd0:	91 05       	cpc	r25, r1
    2fd2:	09 f4       	brne	.+2      	; 0x2fd6 <ADC_startConv+0x24>
    2fd4:	70 c0       	rjmp	.+224    	; 0x30b6 <ADC_startConv+0x104>
    2fd6:	2a 81       	ldd	r18, Y+2	; 0x02
    2fd8:	3b 81       	ldd	r19, Y+3	; 0x03
    2fda:	24 30       	cpi	r18, 0x04	; 4
    2fdc:	31 05       	cpc	r19, r1
    2fde:	84 f4       	brge	.+32     	; 0x3000 <ADC_startConv+0x4e>
    2fe0:	8a 81       	ldd	r24, Y+2	; 0x02
    2fe2:	9b 81       	ldd	r25, Y+3	; 0x03
    2fe4:	81 30       	cpi	r24, 0x01	; 1
    2fe6:	91 05       	cpc	r25, r1
    2fe8:	d1 f1       	breq	.+116    	; 0x305e <ADC_startConv+0xac>
    2fea:	2a 81       	ldd	r18, Y+2	; 0x02
    2fec:	3b 81       	ldd	r19, Y+3	; 0x03
    2fee:	22 30       	cpi	r18, 0x02	; 2
    2ff0:	31 05       	cpc	r19, r1
    2ff2:	0c f0       	brlt	.+2      	; 0x2ff6 <ADC_startConv+0x44>
    2ff4:	4a c0       	rjmp	.+148    	; 0x308a <ADC_startConv+0xd8>
    2ff6:	8a 81       	ldd	r24, Y+2	; 0x02
    2ff8:	9b 81       	ldd	r25, Y+3	; 0x03
    2ffa:	00 97       	sbiw	r24, 0x00	; 0
    2ffc:	d1 f0       	breq	.+52     	; 0x3032 <ADC_startConv+0x80>
    2ffe:	c8 c0       	rjmp	.+400    	; 0x3190 <ADC_startConv+0x1de>
    3000:	2a 81       	ldd	r18, Y+2	; 0x02
    3002:	3b 81       	ldd	r19, Y+3	; 0x03
    3004:	25 30       	cpi	r18, 0x05	; 5
    3006:	31 05       	cpc	r19, r1
    3008:	09 f4       	brne	.+2      	; 0x300c <ADC_startConv+0x5a>
    300a:	81 c0       	rjmp	.+258    	; 0x310e <ADC_startConv+0x15c>
    300c:	8a 81       	ldd	r24, Y+2	; 0x02
    300e:	9b 81       	ldd	r25, Y+3	; 0x03
    3010:	85 30       	cpi	r24, 0x05	; 5
    3012:	91 05       	cpc	r25, r1
    3014:	0c f4       	brge	.+2      	; 0x3018 <ADC_startConv+0x66>
    3016:	65 c0       	rjmp	.+202    	; 0x30e2 <ADC_startConv+0x130>
    3018:	2a 81       	ldd	r18, Y+2	; 0x02
    301a:	3b 81       	ldd	r19, Y+3	; 0x03
    301c:	26 30       	cpi	r18, 0x06	; 6
    301e:	31 05       	cpc	r19, r1
    3020:	09 f4       	brne	.+2      	; 0x3024 <ADC_startConv+0x72>
    3022:	8b c0       	rjmp	.+278    	; 0x313a <ADC_startConv+0x188>
    3024:	8a 81       	ldd	r24, Y+2	; 0x02
    3026:	9b 81       	ldd	r25, Y+3	; 0x03
    3028:	87 30       	cpi	r24, 0x07	; 7
    302a:	91 05       	cpc	r25, r1
    302c:	09 f4       	brne	.+2      	; 0x3030 <ADC_startConv+0x7e>
    302e:	9b c0       	rjmp	.+310    	; 0x3166 <ADC_startConv+0x1b4>
    3030:	af c0       	rjmp	.+350    	; 0x3190 <ADC_startConv+0x1de>
   case ADC_CHANNEL0:
	   CLR_BIT(ADMUX, MUX2);
    3032:	a7 e2       	ldi	r26, 0x27	; 39
    3034:	b0 e0       	ldi	r27, 0x00	; 0
    3036:	e7 e2       	ldi	r30, 0x27	; 39
    3038:	f0 e0       	ldi	r31, 0x00	; 0
    303a:	80 81       	ld	r24, Z
    303c:	8b 7f       	andi	r24, 0xFB	; 251
    303e:	8c 93       	st	X, r24
	   CLR_BIT(ADMUX, MUX1);
    3040:	a7 e2       	ldi	r26, 0x27	; 39
    3042:	b0 e0       	ldi	r27, 0x00	; 0
    3044:	e7 e2       	ldi	r30, 0x27	; 39
    3046:	f0 e0       	ldi	r31, 0x00	; 0
    3048:	80 81       	ld	r24, Z
    304a:	8d 7f       	andi	r24, 0xFD	; 253
    304c:	8c 93       	st	X, r24
	   CLR_BIT(ADMUX, MUX0);
    304e:	a7 e2       	ldi	r26, 0x27	; 39
    3050:	b0 e0       	ldi	r27, 0x00	; 0
    3052:	e7 e2       	ldi	r30, 0x27	; 39
    3054:	f0 e0       	ldi	r31, 0x00	; 0
    3056:	80 81       	ld	r24, Z
    3058:	8e 7f       	andi	r24, 0xFE	; 254
    305a:	8c 93       	st	X, r24
    305c:	99 c0       	rjmp	.+306    	; 0x3190 <ADC_startConv+0x1de>
	   break;
   case ADC_CHANNEL1:
	   CLR_BIT(ADMUX, MUX2);
    305e:	a7 e2       	ldi	r26, 0x27	; 39
    3060:	b0 e0       	ldi	r27, 0x00	; 0
    3062:	e7 e2       	ldi	r30, 0x27	; 39
    3064:	f0 e0       	ldi	r31, 0x00	; 0
    3066:	80 81       	ld	r24, Z
    3068:	8b 7f       	andi	r24, 0xFB	; 251
    306a:	8c 93       	st	X, r24
	   CLR_BIT(ADMUX, MUX1);
    306c:	a7 e2       	ldi	r26, 0x27	; 39
    306e:	b0 e0       	ldi	r27, 0x00	; 0
    3070:	e7 e2       	ldi	r30, 0x27	; 39
    3072:	f0 e0       	ldi	r31, 0x00	; 0
    3074:	80 81       	ld	r24, Z
    3076:	8d 7f       	andi	r24, 0xFD	; 253
    3078:	8c 93       	st	X, r24
	   SET_BIT(ADMUX, MUX0);
    307a:	a7 e2       	ldi	r26, 0x27	; 39
    307c:	b0 e0       	ldi	r27, 0x00	; 0
    307e:	e7 e2       	ldi	r30, 0x27	; 39
    3080:	f0 e0       	ldi	r31, 0x00	; 0
    3082:	80 81       	ld	r24, Z
    3084:	81 60       	ori	r24, 0x01	; 1
    3086:	8c 93       	st	X, r24
    3088:	83 c0       	rjmp	.+262    	; 0x3190 <ADC_startConv+0x1de>
	   break;
   case ADC_CHANNEL2:
	   CLR_BIT(ADMUX, MUX2);
    308a:	a7 e2       	ldi	r26, 0x27	; 39
    308c:	b0 e0       	ldi	r27, 0x00	; 0
    308e:	e7 e2       	ldi	r30, 0x27	; 39
    3090:	f0 e0       	ldi	r31, 0x00	; 0
    3092:	80 81       	ld	r24, Z
    3094:	8b 7f       	andi	r24, 0xFB	; 251
    3096:	8c 93       	st	X, r24
	   SET_BIT(ADMUX, MUX1);
    3098:	a7 e2       	ldi	r26, 0x27	; 39
    309a:	b0 e0       	ldi	r27, 0x00	; 0
    309c:	e7 e2       	ldi	r30, 0x27	; 39
    309e:	f0 e0       	ldi	r31, 0x00	; 0
    30a0:	80 81       	ld	r24, Z
    30a2:	82 60       	ori	r24, 0x02	; 2
    30a4:	8c 93       	st	X, r24
	   CLR_BIT(ADMUX, MUX0);
    30a6:	a7 e2       	ldi	r26, 0x27	; 39
    30a8:	b0 e0       	ldi	r27, 0x00	; 0
    30aa:	e7 e2       	ldi	r30, 0x27	; 39
    30ac:	f0 e0       	ldi	r31, 0x00	; 0
    30ae:	80 81       	ld	r24, Z
    30b0:	8e 7f       	andi	r24, 0xFE	; 254
    30b2:	8c 93       	st	X, r24
    30b4:	6d c0       	rjmp	.+218    	; 0x3190 <ADC_startConv+0x1de>
	   break;
   case ADC_CHANNEL3:
	   CLR_BIT(ADMUX, MUX2);
    30b6:	a7 e2       	ldi	r26, 0x27	; 39
    30b8:	b0 e0       	ldi	r27, 0x00	; 0
    30ba:	e7 e2       	ldi	r30, 0x27	; 39
    30bc:	f0 e0       	ldi	r31, 0x00	; 0
    30be:	80 81       	ld	r24, Z
    30c0:	8b 7f       	andi	r24, 0xFB	; 251
    30c2:	8c 93       	st	X, r24
	   SET_BIT(ADMUX, MUX1);
    30c4:	a7 e2       	ldi	r26, 0x27	; 39
    30c6:	b0 e0       	ldi	r27, 0x00	; 0
    30c8:	e7 e2       	ldi	r30, 0x27	; 39
    30ca:	f0 e0       	ldi	r31, 0x00	; 0
    30cc:	80 81       	ld	r24, Z
    30ce:	82 60       	ori	r24, 0x02	; 2
    30d0:	8c 93       	st	X, r24
	   SET_BIT(ADMUX, MUX0);
    30d2:	a7 e2       	ldi	r26, 0x27	; 39
    30d4:	b0 e0       	ldi	r27, 0x00	; 0
    30d6:	e7 e2       	ldi	r30, 0x27	; 39
    30d8:	f0 e0       	ldi	r31, 0x00	; 0
    30da:	80 81       	ld	r24, Z
    30dc:	81 60       	ori	r24, 0x01	; 1
    30de:	8c 93       	st	X, r24
    30e0:	57 c0       	rjmp	.+174    	; 0x3190 <ADC_startConv+0x1de>
	   break;
   case ADC_CHANNEL4:
	   SET_BIT(ADMUX, MUX2);
    30e2:	a7 e2       	ldi	r26, 0x27	; 39
    30e4:	b0 e0       	ldi	r27, 0x00	; 0
    30e6:	e7 e2       	ldi	r30, 0x27	; 39
    30e8:	f0 e0       	ldi	r31, 0x00	; 0
    30ea:	80 81       	ld	r24, Z
    30ec:	84 60       	ori	r24, 0x04	; 4
    30ee:	8c 93       	st	X, r24
	   CLR_BIT(ADMUX, MUX1);
    30f0:	a7 e2       	ldi	r26, 0x27	; 39
    30f2:	b0 e0       	ldi	r27, 0x00	; 0
    30f4:	e7 e2       	ldi	r30, 0x27	; 39
    30f6:	f0 e0       	ldi	r31, 0x00	; 0
    30f8:	80 81       	ld	r24, Z
    30fa:	8d 7f       	andi	r24, 0xFD	; 253
    30fc:	8c 93       	st	X, r24
	   CLR_BIT(ADMUX, MUX0);
    30fe:	a7 e2       	ldi	r26, 0x27	; 39
    3100:	b0 e0       	ldi	r27, 0x00	; 0
    3102:	e7 e2       	ldi	r30, 0x27	; 39
    3104:	f0 e0       	ldi	r31, 0x00	; 0
    3106:	80 81       	ld	r24, Z
    3108:	8e 7f       	andi	r24, 0xFE	; 254
    310a:	8c 93       	st	X, r24
    310c:	41 c0       	rjmp	.+130    	; 0x3190 <ADC_startConv+0x1de>
	   break;
   case ADC_CHANNEL5:
	   SET_BIT(ADMUX, MUX2);
    310e:	a7 e2       	ldi	r26, 0x27	; 39
    3110:	b0 e0       	ldi	r27, 0x00	; 0
    3112:	e7 e2       	ldi	r30, 0x27	; 39
    3114:	f0 e0       	ldi	r31, 0x00	; 0
    3116:	80 81       	ld	r24, Z
    3118:	84 60       	ori	r24, 0x04	; 4
    311a:	8c 93       	st	X, r24
	   CLR_BIT(ADMUX, MUX1);
    311c:	a7 e2       	ldi	r26, 0x27	; 39
    311e:	b0 e0       	ldi	r27, 0x00	; 0
    3120:	e7 e2       	ldi	r30, 0x27	; 39
    3122:	f0 e0       	ldi	r31, 0x00	; 0
    3124:	80 81       	ld	r24, Z
    3126:	8d 7f       	andi	r24, 0xFD	; 253
    3128:	8c 93       	st	X, r24
	   SET_BIT(ADMUX, MUX0);
    312a:	a7 e2       	ldi	r26, 0x27	; 39
    312c:	b0 e0       	ldi	r27, 0x00	; 0
    312e:	e7 e2       	ldi	r30, 0x27	; 39
    3130:	f0 e0       	ldi	r31, 0x00	; 0
    3132:	80 81       	ld	r24, Z
    3134:	81 60       	ori	r24, 0x01	; 1
    3136:	8c 93       	st	X, r24
    3138:	2b c0       	rjmp	.+86     	; 0x3190 <ADC_startConv+0x1de>
	   break;
   case ADC_CHANNEL6:
	   SET_BIT(ADMUX, MUX2);
    313a:	a7 e2       	ldi	r26, 0x27	; 39
    313c:	b0 e0       	ldi	r27, 0x00	; 0
    313e:	e7 e2       	ldi	r30, 0x27	; 39
    3140:	f0 e0       	ldi	r31, 0x00	; 0
    3142:	80 81       	ld	r24, Z
    3144:	84 60       	ori	r24, 0x04	; 4
    3146:	8c 93       	st	X, r24
	   SET_BIT(ADMUX, MUX1);
    3148:	a7 e2       	ldi	r26, 0x27	; 39
    314a:	b0 e0       	ldi	r27, 0x00	; 0
    314c:	e7 e2       	ldi	r30, 0x27	; 39
    314e:	f0 e0       	ldi	r31, 0x00	; 0
    3150:	80 81       	ld	r24, Z
    3152:	82 60       	ori	r24, 0x02	; 2
    3154:	8c 93       	st	X, r24
	   CLR_BIT(ADMUX, MUX0);
    3156:	a7 e2       	ldi	r26, 0x27	; 39
    3158:	b0 e0       	ldi	r27, 0x00	; 0
    315a:	e7 e2       	ldi	r30, 0x27	; 39
    315c:	f0 e0       	ldi	r31, 0x00	; 0
    315e:	80 81       	ld	r24, Z
    3160:	8e 7f       	andi	r24, 0xFE	; 254
    3162:	8c 93       	st	X, r24
    3164:	15 c0       	rjmp	.+42     	; 0x3190 <ADC_startConv+0x1de>
	   break;
   case ADC_CHANNEL7:
	   SET_BIT(ADMUX, MUX2);
    3166:	a7 e2       	ldi	r26, 0x27	; 39
    3168:	b0 e0       	ldi	r27, 0x00	; 0
    316a:	e7 e2       	ldi	r30, 0x27	; 39
    316c:	f0 e0       	ldi	r31, 0x00	; 0
    316e:	80 81       	ld	r24, Z
    3170:	84 60       	ori	r24, 0x04	; 4
    3172:	8c 93       	st	X, r24
	   SET_BIT(ADMUX, MUX1);
    3174:	a7 e2       	ldi	r26, 0x27	; 39
    3176:	b0 e0       	ldi	r27, 0x00	; 0
    3178:	e7 e2       	ldi	r30, 0x27	; 39
    317a:	f0 e0       	ldi	r31, 0x00	; 0
    317c:	80 81       	ld	r24, Z
    317e:	82 60       	ori	r24, 0x02	; 2
    3180:	8c 93       	st	X, r24
	   SET_BIT(ADMUX, MUX0);
    3182:	a7 e2       	ldi	r26, 0x27	; 39
    3184:	b0 e0       	ldi	r27, 0x00	; 0
    3186:	e7 e2       	ldi	r30, 0x27	; 39
    3188:	f0 e0       	ldi	r31, 0x00	; 0
    318a:	80 81       	ld	r24, Z
    318c:	81 60       	ori	r24, 0x01	; 1
    318e:	8c 93       	st	X, r24
	   break;
   }

   //start conversion
   SET_BIT(ADCSRA, ADSC);
    3190:	a6 e2       	ldi	r26, 0x26	; 38
    3192:	b0 e0       	ldi	r27, 0x00	; 0
    3194:	e6 e2       	ldi	r30, 0x26	; 38
    3196:	f0 e0       	ldi	r31, 0x00	; 0
    3198:	80 81       	ld	r24, Z
    319a:	80 64       	ori	r24, 0x40	; 64
    319c:	8c 93       	st	X, r24
}
    319e:	0f 90       	pop	r0
    31a0:	0f 90       	pop	r0
    31a2:	0f 90       	pop	r0
    31a4:	cf 91       	pop	r28
    31a6:	df 91       	pop	r29
    31a8:	08 95       	ret

000031aa <ADC_readDataPoll>:

u16 ADC_readDataPoll (void)
{
    31aa:	df 93       	push	r29
    31ac:	cf 93       	push	r28
    31ae:	cd b7       	in	r28, 0x3d	; 61
    31b0:	de b7       	in	r29, 0x3e	; 62
	while(READ_BIT(ADCSRA , ADIF) ==0); //stuck when flag is zero
    31b2:	e6 e2       	ldi	r30, 0x26	; 38
    31b4:	f0 e0       	ldi	r31, 0x00	; 0
    31b6:	80 81       	ld	r24, Z
    31b8:	88 2f       	mov	r24, r24
    31ba:	90 e0       	ldi	r25, 0x00	; 0
    31bc:	80 71       	andi	r24, 0x10	; 16
    31be:	90 70       	andi	r25, 0x00	; 0
    31c0:	95 95       	asr	r25
    31c2:	87 95       	ror	r24
    31c4:	95 95       	asr	r25
    31c6:	87 95       	ror	r24
    31c8:	95 95       	asr	r25
    31ca:	87 95       	ror	r24
    31cc:	95 95       	asr	r25
    31ce:	87 95       	ror	r24
    31d0:	00 97       	sbiw	r24, 0x00	; 0
    31d2:	79 f3       	breq	.-34     	; 0x31b2 <ADC_readDataPoll+0x8>
    SET_BIT(ADCSRA, ADIF); //to be zeroed by hardware
    31d4:	a6 e2       	ldi	r26, 0x26	; 38
    31d6:	b0 e0       	ldi	r27, 0x00	; 0
    31d8:	e6 e2       	ldi	r30, 0x26	; 38
    31da:	f0 e0       	ldi	r31, 0x00	; 0
    31dc:	80 81       	ld	r24, Z
    31de:	80 61       	ori	r24, 0x10	; 16
    31e0:	8c 93       	st	X, r24
	return ADC;
    31e2:	e4 e2       	ldi	r30, 0x24	; 36
    31e4:	f0 e0       	ldi	r31, 0x00	; 0
    31e6:	80 81       	ld	r24, Z
    31e8:	91 81       	ldd	r25, Z+1	; 0x01
}
    31ea:	cf 91       	pop	r28
    31ec:	df 91       	pop	r29
    31ee:	08 95       	ret

000031f0 <ADC_readDataINT>:

u16 ADC_readDataINT (void)
{
    31f0:	df 93       	push	r29
    31f2:	cf 93       	push	r28
    31f4:	cd b7       	in	r28, 0x3d	; 61
    31f6:	de b7       	in	r29, 0x3e	; 62

    return ADC;
    31f8:	e4 e2       	ldi	r30, 0x24	; 36
    31fa:	f0 e0       	ldi	r31, 0x00	; 0
    31fc:	80 81       	ld	r24, Z
    31fe:	91 81       	ldd	r25, Z+1	; 0x01
}
    3200:	cf 91       	pop	r28
    3202:	df 91       	pop	r29
    3204:	08 95       	ret

00003206 <ADC_callBack>:

void ADC_callBack (void(*fptr)(void))
{
    3206:	df 93       	push	r29
    3208:	cf 93       	push	r28
    320a:	00 d0       	rcall	.+0      	; 0x320c <ADC_callBack+0x6>
    320c:	cd b7       	in	r28, 0x3d	; 61
    320e:	de b7       	in	r29, 0x3e	; 62
    3210:	9a 83       	std	Y+2, r25	; 0x02
    3212:	89 83       	std	Y+1, r24	; 0x01
   ADC_fptr = fptr;
    3214:	89 81       	ldd	r24, Y+1	; 0x01
    3216:	9a 81       	ldd	r25, Y+2	; 0x02
    3218:	90 93 1b 04 	sts	0x041B, r25
    321c:	80 93 1a 04 	sts	0x041A, r24
}
    3220:	0f 90       	pop	r0
    3222:	0f 90       	pop	r0
    3224:	cf 91       	pop	r28
    3226:	df 91       	pop	r29
    3228:	08 95       	ret

0000322a <__vector_16>:

void __vector_16(void)__attribute((signal));
void __vector_16(void)
{
    322a:	1f 92       	push	r1
    322c:	0f 92       	push	r0
    322e:	0f b6       	in	r0, 0x3f	; 63
    3230:	0f 92       	push	r0
    3232:	11 24       	eor	r1, r1
    3234:	2f 93       	push	r18
    3236:	3f 93       	push	r19
    3238:	4f 93       	push	r20
    323a:	5f 93       	push	r21
    323c:	6f 93       	push	r22
    323e:	7f 93       	push	r23
    3240:	8f 93       	push	r24
    3242:	9f 93       	push	r25
    3244:	af 93       	push	r26
    3246:	bf 93       	push	r27
    3248:	ef 93       	push	r30
    324a:	ff 93       	push	r31
    324c:	df 93       	push	r29
    324e:	cf 93       	push	r28
    3250:	cd b7       	in	r28, 0x3d	; 61
    3252:	de b7       	in	r29, 0x3e	; 62
	if(ADC_fptr !=0)
    3254:	80 91 1a 04 	lds	r24, 0x041A
    3258:	90 91 1b 04 	lds	r25, 0x041B
    325c:	00 97       	sbiw	r24, 0x00	; 0
    325e:	29 f0       	breq	.+10     	; 0x326a <__vector_16+0x40>
		ADC_fptr();
    3260:	e0 91 1a 04 	lds	r30, 0x041A
    3264:	f0 91 1b 04 	lds	r31, 0x041B
    3268:	09 95       	icall
}
    326a:	cf 91       	pop	r28
    326c:	df 91       	pop	r29
    326e:	ff 91       	pop	r31
    3270:	ef 91       	pop	r30
    3272:	bf 91       	pop	r27
    3274:	af 91       	pop	r26
    3276:	9f 91       	pop	r25
    3278:	8f 91       	pop	r24
    327a:	7f 91       	pop	r23
    327c:	6f 91       	pop	r22
    327e:	5f 91       	pop	r21
    3280:	4f 91       	pop	r20
    3282:	3f 91       	pop	r19
    3284:	2f 91       	pop	r18
    3286:	0f 90       	pop	r0
    3288:	0f be       	out	0x3f, r0	; 63
    328a:	0f 90       	pop	r0
    328c:	1f 90       	pop	r1
    328e:	18 95       	reti

00003290 <MPU6050_Online_Init>:
static s16 Acc_x, Acc_y, Acc_z, Temperature, Gyro_x, Gyro_y, Gyro_z;

#define MPU_WRITE_ADDR 0xD0
#define MPU_READ_ADDR  0xD1

void MPU6050_Online_Init() {
    3290:	df 93       	push	r29
    3292:	cf 93       	push	r28
    3294:	cd b7       	in	r28, 0x3d	; 61
    3296:	de b7       	in	r29, 0x3e	; 62

	// 1. Send Start Condition
	I2C_SendStartCond();
    3298:	0e 94 d5 11 	call	0x23aa	; 0x23aa <I2C_SendStartCond>
	// 2. Send Slave Address with Write bit
	I2C_SendAdd(MPU_WRITE_ADDR);
    329c:	80 ed       	ldi	r24, 0xD0	; 208
    329e:	0e 94 f3 11 	call	0x23e6	; 0x23e6 <I2C_SendAdd>

	// 3. Write to Power Management Register to wake up
	I2C_SendData(PWR_MGMT_1);
    32a2:	8b e6       	ldi	r24, 0x6B	; 107
    32a4:	0e 94 14 12 	call	0x2428	; 0x2428 <I2C_SendData>
	// 4. Send 0 to wake it up
	I2C_SendData(0x00);
    32a8:	80 e0       	ldi	r24, 0x00	; 0
    32aa:	0e 94 14 12 	call	0x2428	; 0x2428 <I2C_SendData>
	// 5. Send Stop Condition
	I2C_SendStopCond();
    32ae:	0e 94 31 12 	call	0x2462	; 0x2462 <I2C_SendStopCond>

}
    32b2:	cf 91       	pop	r28
    32b4:	df 91       	pop	r29
    32b6:	08 95       	ret

000032b8 <Read_RawValue>:

void Read_RawValue(void) {
    32b8:	0f 93       	push	r16
    32ba:	1f 93       	push	r17
    32bc:	df 93       	push	r29
    32be:	cf 93       	push	r28
    32c0:	cd b7       	in	r28, 0x3d	; 61
    32c2:	de b7       	in	r29, 0x3e	; 62
	// 1. Start communication
	I2C_SendStartCond();
    32c4:	0e 94 d5 11 	call	0x23aa	; 0x23aa <I2C_SendStartCond>
	I2C_SendAdd(MPU_WRITE_ADDR);
    32c8:	80 ed       	ldi	r24, 0xD0	; 208
    32ca:	0e 94 f3 11 	call	0x23e6	; 0x23e6 <I2C_SendAdd>

	// 2. Point to the starting register (ACCEL_XOUT_H)
	I2C_SendData(ACCEL_XOUT_H);
    32ce:	8b e3       	ldi	r24, 0x3B	; 59
    32d0:	0e 94 14 12 	call	0x2428	; 0x2428 <I2C_SendData>

	// 3. Repeated Start to switch to Read mode
	I2C_SendStartCond();
    32d4:	0e 94 d5 11 	call	0x23aa	; 0x23aa <I2C_SendStartCond>
	I2C_SendAdd(MPU_READ_ADDR);
    32d8:	81 ed       	ldi	r24, 0xD1	; 209
    32da:	0e 94 f3 11 	call	0x23e6	; 0x23e6 <I2C_SendAdd>

	// 4. Read data (High byte then Low byte)

	Acc_x = (s16) ((I2C_MasterReadAck_mpu() << 8) | I2C_MasterReadAck_mpu());
    32de:	0e 94 7c 12 	call	0x24f8	; 0x24f8 <I2C_MasterReadAck_mpu>
    32e2:	18 2f       	mov	r17, r24
    32e4:	00 27       	eor	r16, r16
    32e6:	0e 94 7c 12 	call	0x24f8	; 0x24f8 <I2C_MasterReadAck_mpu>
    32ea:	80 2b       	or	r24, r16
    32ec:	91 2b       	or	r25, r17
    32ee:	90 93 e7 03 	sts	0x03E7, r25
    32f2:	80 93 e6 03 	sts	0x03E6, r24
	/*USART_SendString(" -----RAW VALUES------ \r\n");
	USART_SendString("Ax: ");
	USART_SendNumber(Acc_x);*/

	Acc_y = (s16) ((I2C_MasterReadAck_mpu() << 8) | I2C_MasterReadAck_mpu());
    32f6:	0e 94 7c 12 	call	0x24f8	; 0x24f8 <I2C_MasterReadAck_mpu>
    32fa:	18 2f       	mov	r17, r24
    32fc:	00 27       	eor	r16, r16
    32fe:	0e 94 7c 12 	call	0x24f8	; 0x24f8 <I2C_MasterReadAck_mpu>
    3302:	80 2b       	or	r24, r16
    3304:	91 2b       	or	r25, r17
    3306:	90 93 e9 03 	sts	0x03E9, r25
    330a:	80 93 e8 03 	sts	0x03E8, r24
	/*USART_SendString(" | Ay: ");
	USART_SendNumber(Acc_y);
*/
	Acc_z = (s16) ((I2C_MasterReadAck_mpu() << 8) | I2C_MasterReadAck_mpu());
    330e:	0e 94 7c 12 	call	0x24f8	; 0x24f8 <I2C_MasterReadAck_mpu>
    3312:	18 2f       	mov	r17, r24
    3314:	00 27       	eor	r16, r16
    3316:	0e 94 7c 12 	call	0x24f8	; 0x24f8 <I2C_MasterReadAck_mpu>
    331a:	80 2b       	or	r24, r16
    331c:	91 2b       	or	r25, r17
    331e:	90 93 eb 03 	sts	0x03EB, r25
    3322:	80 93 ea 03 	sts	0x03EA, r24
	/*USART_SendString(" | Az: \r\n");
	USART_SendNumber(Acc_z);*/


	Temperature = (s16) ((I2C_MasterReadAck_mpu() << 8)
    3326:	0e 94 7c 12 	call	0x24f8	; 0x24f8 <I2C_MasterReadAck_mpu>
    332a:	18 2f       	mov	r17, r24
    332c:	00 27       	eor	r16, r16
    332e:	0e 94 7c 12 	call	0x24f8	; 0x24f8 <I2C_MasterReadAck_mpu>
    3332:	80 2b       	or	r24, r16
    3334:	91 2b       	or	r25, r17
    3336:	90 93 ed 03 	sts	0x03ED, r25
    333a:	80 93 ec 03 	sts	0x03EC, r24
			| I2C_MasterReadAck_mpu());

	Gyro_x = (s16) ((I2C_MasterReadAck_mpu() << 8) | I2C_MasterReadAck_mpu());
    333e:	0e 94 7c 12 	call	0x24f8	; 0x24f8 <I2C_MasterReadAck_mpu>
    3342:	18 2f       	mov	r17, r24
    3344:	00 27       	eor	r16, r16
    3346:	0e 94 7c 12 	call	0x24f8	; 0x24f8 <I2C_MasterReadAck_mpu>
    334a:	80 2b       	or	r24, r16
    334c:	91 2b       	or	r25, r17
    334e:	90 93 ef 03 	sts	0x03EF, r25
    3352:	80 93 ee 03 	sts	0x03EE, r24
	/*USART_SendString("Gx: ");
	USART_SendNumber(Gyro_x);*/


	Gyro_y = (s16) ((I2C_MasterReadAck_mpu() << 8) | I2C_MasterReadAck_mpu());
    3356:	0e 94 7c 12 	call	0x24f8	; 0x24f8 <I2C_MasterReadAck_mpu>
    335a:	18 2f       	mov	r17, r24
    335c:	00 27       	eor	r16, r16
    335e:	0e 94 7c 12 	call	0x24f8	; 0x24f8 <I2C_MasterReadAck_mpu>
    3362:	80 2b       	or	r24, r16
    3364:	91 2b       	or	r25, r17
    3366:	90 93 f1 03 	sts	0x03F1, r25
    336a:	80 93 f0 03 	sts	0x03F0, r24
	/*USART_SendString(" | Gy: ");
	USART_SendNumber(Gyro_y);*/

	Gyro_z = (s16) ((I2C_MasterReadAck_mpu() << 8) | I2C_MasterReadNack_mpu()); // Last byte NACK
    336e:	0e 94 7c 12 	call	0x24f8	; 0x24f8 <I2C_MasterReadAck_mpu>
    3372:	18 2f       	mov	r17, r24
    3374:	00 27       	eor	r16, r16
    3376:	0e 94 b6 12 	call	0x256c	; 0x256c <I2C_MasterReadNack_mpu>
    337a:	80 2b       	or	r24, r16
    337c:	91 2b       	or	r25, r17
    337e:	90 93 f3 03 	sts	0x03F3, r25
    3382:	80 93 f2 03 	sts	0x03F2, r24
	/*USART_SendString(" | Gz: \r\n");
	USART_SendNumber(Gyro_z);
	USART_SendString(" -------------------- \r\n");*/

	// 5. Stop communication
	I2C_SendStopCond();
    3386:	0e 94 31 12 	call	0x2462	; 0x2462 <I2C_SendStopCond>

}
    338a:	cf 91       	pop	r28
    338c:	df 91       	pop	r29
    338e:	1f 91       	pop	r17
    3390:	0f 91       	pop	r16
    3392:	08 95       	ret

00003394 <Read_Accel>:

void Read_Accel(f32 *Ax, f32 *Ay, f32 *Az) {
    3394:	df 93       	push	r29
    3396:	cf 93       	push	r28
    3398:	00 d0       	rcall	.+0      	; 0x339a <Read_Accel+0x6>
    339a:	00 d0       	rcall	.+0      	; 0x339c <Read_Accel+0x8>
    339c:	00 d0       	rcall	.+0      	; 0x339e <Read_Accel+0xa>
    339e:	cd b7       	in	r28, 0x3d	; 61
    33a0:	de b7       	in	r29, 0x3e	; 62
    33a2:	9a 83       	std	Y+2, r25	; 0x02
    33a4:	89 83       	std	Y+1, r24	; 0x01
    33a6:	7c 83       	std	Y+4, r23	; 0x04
    33a8:	6b 83       	std	Y+3, r22	; 0x03
    33aa:	5e 83       	std	Y+6, r21	; 0x06
    33ac:	4d 83       	std	Y+5, r20	; 0x05
	Read_RawValue();
    33ae:	0e 94 5c 19 	call	0x32b8	; 0x32b8 <Read_RawValue>

	*Ax = (f32) Acc_x / 16384.0f;
    33b2:	80 91 e6 03 	lds	r24, 0x03E6
    33b6:	90 91 e7 03 	lds	r25, 0x03E7
    33ba:	aa 27       	eor	r26, r26
    33bc:	97 fd       	sbrc	r25, 7
    33be:	a0 95       	com	r26
    33c0:	ba 2f       	mov	r27, r26
    33c2:	bc 01       	movw	r22, r24
    33c4:	cd 01       	movw	r24, r26
    33c6:	0e 94 32 05 	call	0xa64	; 0xa64 <__floatsisf>
    33ca:	dc 01       	movw	r26, r24
    33cc:	cb 01       	movw	r24, r22
    33ce:	bc 01       	movw	r22, r24
    33d0:	cd 01       	movw	r24, r26
    33d2:	20 e0       	ldi	r18, 0x00	; 0
    33d4:	30 e0       	ldi	r19, 0x00	; 0
    33d6:	40 e8       	ldi	r20, 0x80	; 128
    33d8:	56 e4       	ldi	r21, 0x46	; 70
    33da:	0e 94 96 03 	call	0x72c	; 0x72c <__divsf3>
    33de:	dc 01       	movw	r26, r24
    33e0:	cb 01       	movw	r24, r22
    33e2:	e9 81       	ldd	r30, Y+1	; 0x01
    33e4:	fa 81       	ldd	r31, Y+2	; 0x02
    33e6:	80 83       	st	Z, r24
    33e8:	91 83       	std	Z+1, r25	; 0x01
    33ea:	a2 83       	std	Z+2, r26	; 0x02
    33ec:	b3 83       	std	Z+3, r27	; 0x03
	*Ay = (f32) Acc_y / 16384.0f;
    33ee:	80 91 e8 03 	lds	r24, 0x03E8
    33f2:	90 91 e9 03 	lds	r25, 0x03E9
    33f6:	aa 27       	eor	r26, r26
    33f8:	97 fd       	sbrc	r25, 7
    33fa:	a0 95       	com	r26
    33fc:	ba 2f       	mov	r27, r26
    33fe:	bc 01       	movw	r22, r24
    3400:	cd 01       	movw	r24, r26
    3402:	0e 94 32 05 	call	0xa64	; 0xa64 <__floatsisf>
    3406:	dc 01       	movw	r26, r24
    3408:	cb 01       	movw	r24, r22
    340a:	bc 01       	movw	r22, r24
    340c:	cd 01       	movw	r24, r26
    340e:	20 e0       	ldi	r18, 0x00	; 0
    3410:	30 e0       	ldi	r19, 0x00	; 0
    3412:	40 e8       	ldi	r20, 0x80	; 128
    3414:	56 e4       	ldi	r21, 0x46	; 70
    3416:	0e 94 96 03 	call	0x72c	; 0x72c <__divsf3>
    341a:	dc 01       	movw	r26, r24
    341c:	cb 01       	movw	r24, r22
    341e:	eb 81       	ldd	r30, Y+3	; 0x03
    3420:	fc 81       	ldd	r31, Y+4	; 0x04
    3422:	80 83       	st	Z, r24
    3424:	91 83       	std	Z+1, r25	; 0x01
    3426:	a2 83       	std	Z+2, r26	; 0x02
    3428:	b3 83       	std	Z+3, r27	; 0x03
	*Az = (f32) Acc_z / 16384.0f;
    342a:	80 91 ea 03 	lds	r24, 0x03EA
    342e:	90 91 eb 03 	lds	r25, 0x03EB
    3432:	aa 27       	eor	r26, r26
    3434:	97 fd       	sbrc	r25, 7
    3436:	a0 95       	com	r26
    3438:	ba 2f       	mov	r27, r26
    343a:	bc 01       	movw	r22, r24
    343c:	cd 01       	movw	r24, r26
    343e:	0e 94 32 05 	call	0xa64	; 0xa64 <__floatsisf>
    3442:	dc 01       	movw	r26, r24
    3444:	cb 01       	movw	r24, r22
    3446:	bc 01       	movw	r22, r24
    3448:	cd 01       	movw	r24, r26
    344a:	20 e0       	ldi	r18, 0x00	; 0
    344c:	30 e0       	ldi	r19, 0x00	; 0
    344e:	40 e8       	ldi	r20, 0x80	; 128
    3450:	56 e4       	ldi	r21, 0x46	; 70
    3452:	0e 94 96 03 	call	0x72c	; 0x72c <__divsf3>
    3456:	dc 01       	movw	r26, r24
    3458:	cb 01       	movw	r24, r22
    345a:	ed 81       	ldd	r30, Y+5	; 0x05
    345c:	fe 81       	ldd	r31, Y+6	; 0x06
    345e:	80 83       	st	Z, r24
    3460:	91 83       	std	Z+1, r25	; 0x01
    3462:	a2 83       	std	Z+2, r26	; 0x02
    3464:	b3 83       	std	Z+3, r27	; 0x03
}
    3466:	26 96       	adiw	r28, 0x06	; 6
    3468:	0f b6       	in	r0, 0x3f	; 63
    346a:	f8 94       	cli
    346c:	de bf       	out	0x3e, r29	; 62
    346e:	0f be       	out	0x3f, r0	; 63
    3470:	cd bf       	out	0x3d, r28	; 61
    3472:	cf 91       	pop	r28
    3474:	df 91       	pop	r29
    3476:	08 95       	ret

00003478 <Read_Gyro>:

void Read_Gyro(f32 *Gx, f32 *Gy, f32 *Gz) {
    3478:	df 93       	push	r29
    347a:	cf 93       	push	r28
    347c:	00 d0       	rcall	.+0      	; 0x347e <Read_Gyro+0x6>
    347e:	00 d0       	rcall	.+0      	; 0x3480 <Read_Gyro+0x8>
    3480:	00 d0       	rcall	.+0      	; 0x3482 <Read_Gyro+0xa>
    3482:	cd b7       	in	r28, 0x3d	; 61
    3484:	de b7       	in	r29, 0x3e	; 62
    3486:	9a 83       	std	Y+2, r25	; 0x02
    3488:	89 83       	std	Y+1, r24	; 0x01
    348a:	7c 83       	std	Y+4, r23	; 0x04
    348c:	6b 83       	std	Y+3, r22	; 0x03
    348e:	5e 83       	std	Y+6, r21	; 0x06
    3490:	4d 83       	std	Y+5, r20	; 0x05
	Read_RawValue();
    3492:	0e 94 5c 19 	call	0x32b8	; 0x32b8 <Read_RawValue>

	*Gx = (f32) Gyro_x / 131.0f;
    3496:	80 91 ee 03 	lds	r24, 0x03EE
    349a:	90 91 ef 03 	lds	r25, 0x03EF
    349e:	aa 27       	eor	r26, r26
    34a0:	97 fd       	sbrc	r25, 7
    34a2:	a0 95       	com	r26
    34a4:	ba 2f       	mov	r27, r26
    34a6:	bc 01       	movw	r22, r24
    34a8:	cd 01       	movw	r24, r26
    34aa:	0e 94 32 05 	call	0xa64	; 0xa64 <__floatsisf>
    34ae:	dc 01       	movw	r26, r24
    34b0:	cb 01       	movw	r24, r22
    34b2:	bc 01       	movw	r22, r24
    34b4:	cd 01       	movw	r24, r26
    34b6:	20 e0       	ldi	r18, 0x00	; 0
    34b8:	30 e0       	ldi	r19, 0x00	; 0
    34ba:	43 e0       	ldi	r20, 0x03	; 3
    34bc:	53 e4       	ldi	r21, 0x43	; 67
    34be:	0e 94 96 03 	call	0x72c	; 0x72c <__divsf3>
    34c2:	dc 01       	movw	r26, r24
    34c4:	cb 01       	movw	r24, r22
    34c6:	e9 81       	ldd	r30, Y+1	; 0x01
    34c8:	fa 81       	ldd	r31, Y+2	; 0x02
    34ca:	80 83       	st	Z, r24
    34cc:	91 83       	std	Z+1, r25	; 0x01
    34ce:	a2 83       	std	Z+2, r26	; 0x02
    34d0:	b3 83       	std	Z+3, r27	; 0x03
	*Gy = (f32) Gyro_y / 131.0f;
    34d2:	80 91 f0 03 	lds	r24, 0x03F0
    34d6:	90 91 f1 03 	lds	r25, 0x03F1
    34da:	aa 27       	eor	r26, r26
    34dc:	97 fd       	sbrc	r25, 7
    34de:	a0 95       	com	r26
    34e0:	ba 2f       	mov	r27, r26
    34e2:	bc 01       	movw	r22, r24
    34e4:	cd 01       	movw	r24, r26
    34e6:	0e 94 32 05 	call	0xa64	; 0xa64 <__floatsisf>
    34ea:	dc 01       	movw	r26, r24
    34ec:	cb 01       	movw	r24, r22
    34ee:	bc 01       	movw	r22, r24
    34f0:	cd 01       	movw	r24, r26
    34f2:	20 e0       	ldi	r18, 0x00	; 0
    34f4:	30 e0       	ldi	r19, 0x00	; 0
    34f6:	43 e0       	ldi	r20, 0x03	; 3
    34f8:	53 e4       	ldi	r21, 0x43	; 67
    34fa:	0e 94 96 03 	call	0x72c	; 0x72c <__divsf3>
    34fe:	dc 01       	movw	r26, r24
    3500:	cb 01       	movw	r24, r22
    3502:	eb 81       	ldd	r30, Y+3	; 0x03
    3504:	fc 81       	ldd	r31, Y+4	; 0x04
    3506:	80 83       	st	Z, r24
    3508:	91 83       	std	Z+1, r25	; 0x01
    350a:	a2 83       	std	Z+2, r26	; 0x02
    350c:	b3 83       	std	Z+3, r27	; 0x03
	*Gz = (f32) Gyro_z / 131.0f;
    350e:	80 91 f2 03 	lds	r24, 0x03F2
    3512:	90 91 f3 03 	lds	r25, 0x03F3
    3516:	aa 27       	eor	r26, r26
    3518:	97 fd       	sbrc	r25, 7
    351a:	a0 95       	com	r26
    351c:	ba 2f       	mov	r27, r26
    351e:	bc 01       	movw	r22, r24
    3520:	cd 01       	movw	r24, r26
    3522:	0e 94 32 05 	call	0xa64	; 0xa64 <__floatsisf>
    3526:	dc 01       	movw	r26, r24
    3528:	cb 01       	movw	r24, r22
    352a:	bc 01       	movw	r22, r24
    352c:	cd 01       	movw	r24, r26
    352e:	20 e0       	ldi	r18, 0x00	; 0
    3530:	30 e0       	ldi	r19, 0x00	; 0
    3532:	43 e0       	ldi	r20, 0x03	; 3
    3534:	53 e4       	ldi	r21, 0x43	; 67
    3536:	0e 94 96 03 	call	0x72c	; 0x72c <__divsf3>
    353a:	dc 01       	movw	r26, r24
    353c:	cb 01       	movw	r24, r22
    353e:	ed 81       	ldd	r30, Y+5	; 0x05
    3540:	fe 81       	ldd	r31, Y+6	; 0x06
    3542:	80 83       	st	Z, r24
    3544:	91 83       	std	Z+1, r25	; 0x01
    3546:	a2 83       	std	Z+2, r26	; 0x02
    3548:	b3 83       	std	Z+3, r27	; 0x03
}
    354a:	26 96       	adiw	r28, 0x06	; 6
    354c:	0f b6       	in	r0, 0x3f	; 63
    354e:	f8 94       	cli
    3550:	de bf       	out	0x3e, r29	; 62
    3552:	0f be       	out	0x3f, r0	; 63
    3554:	cd bf       	out	0x3d, r28	; 61
    3556:	cf 91       	pop	r28
    3558:	df 91       	pop	r29
    355a:	08 95       	ret

0000355c <Read_Temp>:

void Read_Temp(f32 *temp) {
    355c:	df 93       	push	r29
    355e:	cf 93       	push	r28
    3560:	00 d0       	rcall	.+0      	; 0x3562 <Read_Temp+0x6>
    3562:	cd b7       	in	r28, 0x3d	; 61
    3564:	de b7       	in	r29, 0x3e	; 62
    3566:	9a 83       	std	Y+2, r25	; 0x02
    3568:	89 83       	std	Y+1, r24	; 0x01
	Read_RawValue();
    356a:	0e 94 5c 19 	call	0x32b8	; 0x32b8 <Read_RawValue>
	*temp = (Temperature / 340.00) + 36.53;
    356e:	80 91 ec 03 	lds	r24, 0x03EC
    3572:	90 91 ed 03 	lds	r25, 0x03ED
    3576:	aa 27       	eor	r26, r26
    3578:	97 fd       	sbrc	r25, 7
    357a:	a0 95       	com	r26
    357c:	ba 2f       	mov	r27, r26
    357e:	bc 01       	movw	r22, r24
    3580:	cd 01       	movw	r24, r26
    3582:	0e 94 32 05 	call	0xa64	; 0xa64 <__floatsisf>
    3586:	dc 01       	movw	r26, r24
    3588:	cb 01       	movw	r24, r22
    358a:	bc 01       	movw	r22, r24
    358c:	cd 01       	movw	r24, r26
    358e:	20 e0       	ldi	r18, 0x00	; 0
    3590:	30 e0       	ldi	r19, 0x00	; 0
    3592:	4a ea       	ldi	r20, 0xAA	; 170
    3594:	53 e4       	ldi	r21, 0x43	; 67
    3596:	0e 94 96 03 	call	0x72c	; 0x72c <__divsf3>
    359a:	dc 01       	movw	r26, r24
    359c:	cb 01       	movw	r24, r22
    359e:	bc 01       	movw	r22, r24
    35a0:	cd 01       	movw	r24, r26
    35a2:	28 eb       	ldi	r18, 0xB8	; 184
    35a4:	3e e1       	ldi	r19, 0x1E	; 30
    35a6:	42 e1       	ldi	r20, 0x12	; 18
    35a8:	52 e4       	ldi	r21, 0x42	; 66
    35aa:	0e 94 6f 02 	call	0x4de	; 0x4de <__addsf3>
    35ae:	dc 01       	movw	r26, r24
    35b0:	cb 01       	movw	r24, r22
    35b2:	e9 81       	ldd	r30, Y+1	; 0x01
    35b4:	fa 81       	ldd	r31, Y+2	; 0x02
    35b6:	80 83       	st	Z, r24
    35b8:	91 83       	std	Z+1, r25	; 0x01
    35ba:	a2 83       	std	Z+2, r26	; 0x02
    35bc:	b3 83       	std	Z+3, r27	; 0x03
}
    35be:	0f 90       	pop	r0
    35c0:	0f 90       	pop	r0
    35c2:	cf 91       	pop	r28
    35c4:	df 91       	pop	r29
    35c6:	08 95       	ret

000035c8 <Read_Accel_Only>:


void Read_Accel_Only(f32 *Ax, f32 *Ay, f32 *Az) {
    35c8:	0f 93       	push	r16
    35ca:	1f 93       	push	r17
    35cc:	df 93       	push	r29
    35ce:	cf 93       	push	r28
    35d0:	00 d0       	rcall	.+0      	; 0x35d2 <Read_Accel_Only+0xa>
    35d2:	00 d0       	rcall	.+0      	; 0x35d4 <Read_Accel_Only+0xc>
    35d4:	00 d0       	rcall	.+0      	; 0x35d6 <Read_Accel_Only+0xe>
    35d6:	cd b7       	in	r28, 0x3d	; 61
    35d8:	de b7       	in	r29, 0x3e	; 62
    35da:	9a 83       	std	Y+2, r25	; 0x02
    35dc:	89 83       	std	Y+1, r24	; 0x01
    35de:	7c 83       	std	Y+4, r23	; 0x04
    35e0:	6b 83       	std	Y+3, r22	; 0x03
    35e2:	5e 83       	std	Y+6, r21	; 0x06
    35e4:	4d 83       	std	Y+5, r20	; 0x05
    I2C_SendStartCond();
    35e6:	0e 94 d5 11 	call	0x23aa	; 0x23aa <I2C_SendStartCond>
    USART_SendString("start| ");
    35ea:	8c e7       	ldi	r24, 0x7C	; 124
    35ec:	90 e0       	ldi	r25, 0x00	; 0
    35ee:	0e 94 c2 08 	call	0x1184	; 0x1184 <USART_SendString>
    I2C_SendAdd(MPU_WRITE_ADDR);
    35f2:	80 ed       	ldi	r24, 0xD0	; 208
    35f4:	0e 94 f3 11 	call	0x23e6	; 0x23e6 <I2C_SendAdd>
    USART_SendString("send add write| ");
    35f8:	84 e8       	ldi	r24, 0x84	; 132
    35fa:	90 e0       	ldi	r25, 0x00	; 0
    35fc:	0e 94 c2 08 	call	0x1184	; 0x1184 <USART_SendString>
    I2C_SendData(0x3B);
    3600:	8b e3       	ldi	r24, 0x3B	; 59
    3602:	0e 94 14 12 	call	0x2428	; 0x2428 <I2C_SendData>
    USART_SendString("send data| ");
    3606:	85 e9       	ldi	r24, 0x95	; 149
    3608:	90 e0       	ldi	r25, 0x00	; 0
    360a:	0e 94 c2 08 	call	0x1184	; 0x1184 <USART_SendString>
    I2C_SendStartCond();
    360e:	0e 94 d5 11 	call	0x23aa	; 0x23aa <I2C_SendStartCond>
    USART_SendString("send start| ");
    3612:	81 ea       	ldi	r24, 0xA1	; 161
    3614:	90 e0       	ldi	r25, 0x00	; 0
    3616:	0e 94 c2 08 	call	0x1184	; 0x1184 <USART_SendString>
    I2C_SendAdd(MPU_READ_ADDR);
    361a:	81 ed       	ldi	r24, 0xD1	; 209
    361c:	0e 94 f3 11 	call	0x23e6	; 0x23e6 <I2C_SendAdd>
    USART_SendString("send add read| ");
    3620:	8e ea       	ldi	r24, 0xAE	; 174
    3622:	90 e0       	ldi	r25, 0x00	; 0
    3624:	0e 94 c2 08 	call	0x1184	; 0x1184 <USART_SendString>

    // اقرئي 6 بايت فقط بدل 14
    Acc_x = (s16)((I2C_MasterReadAck_mpu() << 8) | I2C_MasterReadAck_mpu());
    3628:	0e 94 7c 12 	call	0x24f8	; 0x24f8 <I2C_MasterReadAck_mpu>
    362c:	18 2f       	mov	r17, r24
    362e:	00 27       	eor	r16, r16
    3630:	0e 94 7c 12 	call	0x24f8	; 0x24f8 <I2C_MasterReadAck_mpu>
    3634:	80 2b       	or	r24, r16
    3636:	91 2b       	or	r25, r17
    3638:	90 93 e7 03 	sts	0x03E7, r25
    363c:	80 93 e6 03 	sts	0x03E6, r24
    Acc_y = (s16)((I2C_MasterReadAck_mpu() << 8) | I2C_MasterReadAck_mpu());
    3640:	0e 94 7c 12 	call	0x24f8	; 0x24f8 <I2C_MasterReadAck_mpu>
    3644:	18 2f       	mov	r17, r24
    3646:	00 27       	eor	r16, r16
    3648:	0e 94 7c 12 	call	0x24f8	; 0x24f8 <I2C_MasterReadAck_mpu>
    364c:	80 2b       	or	r24, r16
    364e:	91 2b       	or	r25, r17
    3650:	90 93 e9 03 	sts	0x03E9, r25
    3654:	80 93 e8 03 	sts	0x03E8, r24
    Acc_z = (s16)((I2C_MasterReadAck_mpu() << 8) | I2C_MasterReadNack_mpu()); // NACKفي الآخر
    3658:	0e 94 7c 12 	call	0x24f8	; 0x24f8 <I2C_MasterReadAck_mpu>
    365c:	18 2f       	mov	r17, r24
    365e:	00 27       	eor	r16, r16
    3660:	0e 94 b6 12 	call	0x256c	; 0x256c <I2C_MasterReadNack_mpu>
    3664:	80 2b       	or	r24, r16
    3666:	91 2b       	or	r25, r17
    3668:	90 93 eb 03 	sts	0x03EB, r25
    366c:	80 93 ea 03 	sts	0x03EA, r24
    I2C_SendStopCond();
    3670:	0e 94 31 12 	call	0x2462	; 0x2462 <I2C_SendStopCond>
    USART_SendString("stop| ");
    3674:	8e eb       	ldi	r24, 0xBE	; 190
    3676:	90 e0       	ldi	r25, 0x00	; 0
    3678:	0e 94 c2 08 	call	0x1184	; 0x1184 <USART_SendString>

    *Ax = (f32) Acc_x / 16384.0f;
    367c:	80 91 e6 03 	lds	r24, 0x03E6
    3680:	90 91 e7 03 	lds	r25, 0x03E7
    3684:	aa 27       	eor	r26, r26
    3686:	97 fd       	sbrc	r25, 7
    3688:	a0 95       	com	r26
    368a:	ba 2f       	mov	r27, r26
    368c:	bc 01       	movw	r22, r24
    368e:	cd 01       	movw	r24, r26
    3690:	0e 94 32 05 	call	0xa64	; 0xa64 <__floatsisf>
    3694:	dc 01       	movw	r26, r24
    3696:	cb 01       	movw	r24, r22
    3698:	bc 01       	movw	r22, r24
    369a:	cd 01       	movw	r24, r26
    369c:	20 e0       	ldi	r18, 0x00	; 0
    369e:	30 e0       	ldi	r19, 0x00	; 0
    36a0:	40 e8       	ldi	r20, 0x80	; 128
    36a2:	56 e4       	ldi	r21, 0x46	; 70
    36a4:	0e 94 96 03 	call	0x72c	; 0x72c <__divsf3>
    36a8:	dc 01       	movw	r26, r24
    36aa:	cb 01       	movw	r24, r22
    36ac:	e9 81       	ldd	r30, Y+1	; 0x01
    36ae:	fa 81       	ldd	r31, Y+2	; 0x02
    36b0:	80 83       	st	Z, r24
    36b2:	91 83       	std	Z+1, r25	; 0x01
    36b4:	a2 83       	std	Z+2, r26	; 0x02
    36b6:	b3 83       	std	Z+3, r27	; 0x03
    *Ay = (f32) Acc_y / 16384.0f;
    36b8:	80 91 e8 03 	lds	r24, 0x03E8
    36bc:	90 91 e9 03 	lds	r25, 0x03E9
    36c0:	aa 27       	eor	r26, r26
    36c2:	97 fd       	sbrc	r25, 7
    36c4:	a0 95       	com	r26
    36c6:	ba 2f       	mov	r27, r26
    36c8:	bc 01       	movw	r22, r24
    36ca:	cd 01       	movw	r24, r26
    36cc:	0e 94 32 05 	call	0xa64	; 0xa64 <__floatsisf>
    36d0:	dc 01       	movw	r26, r24
    36d2:	cb 01       	movw	r24, r22
    36d4:	bc 01       	movw	r22, r24
    36d6:	cd 01       	movw	r24, r26
    36d8:	20 e0       	ldi	r18, 0x00	; 0
    36da:	30 e0       	ldi	r19, 0x00	; 0
    36dc:	40 e8       	ldi	r20, 0x80	; 128
    36de:	56 e4       	ldi	r21, 0x46	; 70
    36e0:	0e 94 96 03 	call	0x72c	; 0x72c <__divsf3>
    36e4:	dc 01       	movw	r26, r24
    36e6:	cb 01       	movw	r24, r22
    36e8:	eb 81       	ldd	r30, Y+3	; 0x03
    36ea:	fc 81       	ldd	r31, Y+4	; 0x04
    36ec:	80 83       	st	Z, r24
    36ee:	91 83       	std	Z+1, r25	; 0x01
    36f0:	a2 83       	std	Z+2, r26	; 0x02
    36f2:	b3 83       	std	Z+3, r27	; 0x03
    *Az = (f32) Acc_z / 16384.0f;
    36f4:	80 91 ea 03 	lds	r24, 0x03EA
    36f8:	90 91 eb 03 	lds	r25, 0x03EB
    36fc:	aa 27       	eor	r26, r26
    36fe:	97 fd       	sbrc	r25, 7
    3700:	a0 95       	com	r26
    3702:	ba 2f       	mov	r27, r26
    3704:	bc 01       	movw	r22, r24
    3706:	cd 01       	movw	r24, r26
    3708:	0e 94 32 05 	call	0xa64	; 0xa64 <__floatsisf>
    370c:	dc 01       	movw	r26, r24
    370e:	cb 01       	movw	r24, r22
    3710:	bc 01       	movw	r22, r24
    3712:	cd 01       	movw	r24, r26
    3714:	20 e0       	ldi	r18, 0x00	; 0
    3716:	30 e0       	ldi	r19, 0x00	; 0
    3718:	40 e8       	ldi	r20, 0x80	; 128
    371a:	56 e4       	ldi	r21, 0x46	; 70
    371c:	0e 94 96 03 	call	0x72c	; 0x72c <__divsf3>
    3720:	dc 01       	movw	r26, r24
    3722:	cb 01       	movw	r24, r22
    3724:	ed 81       	ldd	r30, Y+5	; 0x05
    3726:	fe 81       	ldd	r31, Y+6	; 0x06
    3728:	80 83       	st	Z, r24
    372a:	91 83       	std	Z+1, r25	; 0x01
    372c:	a2 83       	std	Z+2, r26	; 0x02
    372e:	b3 83       	std	Z+3, r27	; 0x03
}
    3730:	26 96       	adiw	r28, 0x06	; 6
    3732:	0f b6       	in	r0, 0x3f	; 63
    3734:	f8 94       	cli
    3736:	de bf       	out	0x3e, r29	; 62
    3738:	0f be       	out	0x3f, r0	; 63
    373a:	cd bf       	out	0x3d, r28	; 61
    373c:	cf 91       	pop	r28
    373e:	df 91       	pop	r29
    3740:	1f 91       	pop	r17
    3742:	0f 91       	pop	r16
    3744:	08 95       	ret

00003746 <MAX30102_Init>:
#include "../../MCAL/Timer1/Timer1.h"
#include "../../MCAL/USART_Online/USART_Online.h"



void MAX30102_Init(void){
    3746:	df 93       	push	r29
    3748:	cf 93       	push	r28
    374a:	cd b7       	in	r28, 0x3d	; 61
    374c:	de b7       	in	r29, 0x3e	; 62
    374e:	2e 97       	sbiw	r28, 0x0e	; 14
    3750:	0f b6       	in	r0, 0x3f	; 63
    3752:	f8 94       	cli
    3754:	de bf       	out	0x3e, r29	; 62
    3756:	0f be       	out	0x3f, r0	; 63
    3758:	cd bf       	out	0x3d, r28	; 61
	//USART_SendString("before beg\r\n");
    I2C_SendStartCond();
    375a:	0e 94 d5 11 	call	0x23aa	; 0x23aa <I2C_SendStartCond>
    I2C_SendAdd(MAX30102_WRITE_ADDR);
    375e:	8e ea       	ldi	r24, 0xAE	; 174
    3760:	0e 94 f3 11 	call	0x23e6	; 0x23e6 <I2C_SendAdd>
    I2C_SendData(0x09);
    3764:	89 e0       	ldi	r24, 0x09	; 9
    3766:	0e 94 14 12 	call	0x2428	; 0x2428 <I2C_SendData>
    I2C_SendData(0x40);
    376a:	80 e4       	ldi	r24, 0x40	; 64
    376c:	0e 94 14 12 	call	0x2428	; 0x2428 <I2C_SendData>
    I2C_SendStopCond();
    3770:	0e 94 31 12 	call	0x2462	; 0x2462 <I2C_SendStopCond>
    3774:	80 e0       	ldi	r24, 0x00	; 0
    3776:	90 e0       	ldi	r25, 0x00	; 0
    3778:	a8 ec       	ldi	r26, 0xC8	; 200
    377a:	b2 e4       	ldi	r27, 0x42	; 66
    377c:	8b 87       	std	Y+11, r24	; 0x0b
    377e:	9c 87       	std	Y+12, r25	; 0x0c
    3780:	ad 87       	std	Y+13, r26	; 0x0d
    3782:	be 87       	std	Y+14, r27	; 0x0e
 */
void
_delay_ms(double __ms)
{
	uint16_t __ticks;
	double __tmp = ((F_CPU) / 4e3) * __ms;
    3784:	6b 85       	ldd	r22, Y+11	; 0x0b
    3786:	7c 85       	ldd	r23, Y+12	; 0x0c
    3788:	8d 85       	ldd	r24, Y+13	; 0x0d
    378a:	9e 85       	ldd	r25, Y+14	; 0x0e
    378c:	20 e0       	ldi	r18, 0x00	; 0
    378e:	30 e0       	ldi	r19, 0x00	; 0
    3790:	4a e7       	ldi	r20, 0x7A	; 122
    3792:	55 e4       	ldi	r21, 0x45	; 69
    3794:	0e 94 9c 02 	call	0x538	; 0x538 <__mulsf3>
    3798:	dc 01       	movw	r26, r24
    379a:	cb 01       	movw	r24, r22
    379c:	8f 83       	std	Y+7, r24	; 0x07
    379e:	98 87       	std	Y+8, r25	; 0x08
    37a0:	a9 87       	std	Y+9, r26	; 0x09
    37a2:	ba 87       	std	Y+10, r27	; 0x0a
	if (__tmp < 1.0)
    37a4:	6f 81       	ldd	r22, Y+7	; 0x07
    37a6:	78 85       	ldd	r23, Y+8	; 0x08
    37a8:	89 85       	ldd	r24, Y+9	; 0x09
    37aa:	9a 85       	ldd	r25, Y+10	; 0x0a
    37ac:	20 e0       	ldi	r18, 0x00	; 0
    37ae:	30 e0       	ldi	r19, 0x00	; 0
    37b0:	40 e8       	ldi	r20, 0x80	; 128
    37b2:	5f e3       	ldi	r21, 0x3F	; 63
    37b4:	0e 94 02 05 	call	0xa04	; 0xa04 <__ltsf2>
    37b8:	88 23       	and	r24, r24
    37ba:	2c f4       	brge	.+10     	; 0x37c6 <MAX30102_Init+0x80>
		__ticks = 1;
    37bc:	81 e0       	ldi	r24, 0x01	; 1
    37be:	90 e0       	ldi	r25, 0x00	; 0
    37c0:	9e 83       	std	Y+6, r25	; 0x06
    37c2:	8d 83       	std	Y+5, r24	; 0x05
    37c4:	3f c0       	rjmp	.+126    	; 0x3844 <MAX30102_Init+0xfe>
	else if (__tmp > 65535)
    37c6:	6f 81       	ldd	r22, Y+7	; 0x07
    37c8:	78 85       	ldd	r23, Y+8	; 0x08
    37ca:	89 85       	ldd	r24, Y+9	; 0x09
    37cc:	9a 85       	ldd	r25, Y+10	; 0x0a
    37ce:	20 e0       	ldi	r18, 0x00	; 0
    37d0:	3f ef       	ldi	r19, 0xFF	; 255
    37d2:	4f e7       	ldi	r20, 0x7F	; 127
    37d4:	57 e4       	ldi	r21, 0x47	; 71
    37d6:	0e 94 a2 04 	call	0x944	; 0x944 <__gtsf2>
    37da:	18 16       	cp	r1, r24
    37dc:	4c f5       	brge	.+82     	; 0x3830 <MAX30102_Init+0xea>
	{
		//	__ticks = requested delay in 1/10 ms
		__ticks = (uint16_t) (__ms * 10.0);
    37de:	6b 85       	ldd	r22, Y+11	; 0x0b
    37e0:	7c 85       	ldd	r23, Y+12	; 0x0c
    37e2:	8d 85       	ldd	r24, Y+13	; 0x0d
    37e4:	9e 85       	ldd	r25, Y+14	; 0x0e
    37e6:	20 e0       	ldi	r18, 0x00	; 0
    37e8:	30 e0       	ldi	r19, 0x00	; 0
    37ea:	40 e2       	ldi	r20, 0x20	; 32
    37ec:	51 e4       	ldi	r21, 0x41	; 65
    37ee:	0e 94 9c 02 	call	0x538	; 0x538 <__mulsf3>
    37f2:	dc 01       	movw	r26, r24
    37f4:	cb 01       	movw	r24, r22
    37f6:	bc 01       	movw	r22, r24
    37f8:	cd 01       	movw	r24, r26
    37fa:	0e 94 c6 00 	call	0x18c	; 0x18c <__fixunssfsi>
    37fe:	dc 01       	movw	r26, r24
    3800:	cb 01       	movw	r24, r22
    3802:	9e 83       	std	Y+6, r25	; 0x06
    3804:	8d 83       	std	Y+5, r24	; 0x05
    3806:	0f c0       	rjmp	.+30     	; 0x3826 <MAX30102_Init+0xe0>
    3808:	80 e9       	ldi	r24, 0x90	; 144
    380a:	91 e0       	ldi	r25, 0x01	; 1
    380c:	9c 83       	std	Y+4, r25	; 0x04
    380e:	8b 83       	std	Y+3, r24	; 0x03
    milliseconds can be achieved.
 */
void
_delay_loop_2(uint16_t __count)
{
	__asm__ volatile (
    3810:	8b 81       	ldd	r24, Y+3	; 0x03
    3812:	9c 81       	ldd	r25, Y+4	; 0x04
    3814:	01 97       	sbiw	r24, 0x01	; 1
    3816:	f1 f7       	brne	.-4      	; 0x3814 <MAX30102_Init+0xce>
    3818:	9c 83       	std	Y+4, r25	; 0x04
    381a:	8b 83       	std	Y+3, r24	; 0x03
		while(__ticks)
		{
			// wait 1/10 ms
			_delay_loop_2(((F_CPU) / 4e3) / 10);
			__ticks --;
    381c:	8d 81       	ldd	r24, Y+5	; 0x05
    381e:	9e 81       	ldd	r25, Y+6	; 0x06
    3820:	01 97       	sbiw	r24, 0x01	; 1
    3822:	9e 83       	std	Y+6, r25	; 0x06
    3824:	8d 83       	std	Y+5, r24	; 0x05
		__ticks = 1;
	else if (__tmp > 65535)
	{
		//	__ticks = requested delay in 1/10 ms
		__ticks = (uint16_t) (__ms * 10.0);
		while(__ticks)
    3826:	8d 81       	ldd	r24, Y+5	; 0x05
    3828:	9e 81       	ldd	r25, Y+6	; 0x06
    382a:	00 97       	sbiw	r24, 0x00	; 0
    382c:	69 f7       	brne	.-38     	; 0x3808 <MAX30102_Init+0xc2>
    382e:	14 c0       	rjmp	.+40     	; 0x3858 <MAX30102_Init+0x112>
			__ticks --;
		}
		return;
	}
	else
		__ticks = (uint16_t)__tmp;
    3830:	6f 81       	ldd	r22, Y+7	; 0x07
    3832:	78 85       	ldd	r23, Y+8	; 0x08
    3834:	89 85       	ldd	r24, Y+9	; 0x09
    3836:	9a 85       	ldd	r25, Y+10	; 0x0a
    3838:	0e 94 c6 00 	call	0x18c	; 0x18c <__fixunssfsi>
    383c:	dc 01       	movw	r26, r24
    383e:	cb 01       	movw	r24, r22
    3840:	9e 83       	std	Y+6, r25	; 0x06
    3842:	8d 83       	std	Y+5, r24	; 0x05
    3844:	8d 81       	ldd	r24, Y+5	; 0x05
    3846:	9e 81       	ldd	r25, Y+6	; 0x06
    3848:	9a 83       	std	Y+2, r25	; 0x02
    384a:	89 83       	std	Y+1, r24	; 0x01
    384c:	89 81       	ldd	r24, Y+1	; 0x01
    384e:	9a 81       	ldd	r25, Y+2	; 0x02
    3850:	01 97       	sbiw	r24, 0x01	; 1
    3852:	f1 f7       	brne	.-4      	; 0x3850 <MAX30102_Init+0x10a>
    3854:	9a 83       	std	Y+2, r25	; 0x02
    3856:	89 83       	std	Y+1, r24	; 0x01
    _delay_ms(100);


    I2C_SendStartCond();
    3858:	0e 94 d5 11 	call	0x23aa	; 0x23aa <I2C_SendStartCond>
    I2C_SendAdd(MAX30102_WRITE_ADDR);
    385c:	8e ea       	ldi	r24, 0xAE	; 174
    385e:	0e 94 f3 11 	call	0x23e6	; 0x23e6 <I2C_SendAdd>
    I2C_SendData(0x09);
    3862:	89 e0       	ldi	r24, 0x09	; 9
    3864:	0e 94 14 12 	call	0x2428	; 0x2428 <I2C_SendData>
    I2C_SendData(0x02);
    3868:	82 e0       	ldi	r24, 0x02	; 2
    386a:	0e 94 14 12 	call	0x2428	; 0x2428 <I2C_SendData>
    I2C_SendStopCond();
    386e:	0e 94 31 12 	call	0x2462	; 0x2462 <I2C_SendStopCond>


    I2C_SendStartCond();
    3872:	0e 94 d5 11 	call	0x23aa	; 0x23aa <I2C_SendStartCond>
    I2C_SendAdd(MAX30102_WRITE_ADDR);
    3876:	8e ea       	ldi	r24, 0xAE	; 174
    3878:	0e 94 f3 11 	call	0x23e6	; 0x23e6 <I2C_SendAdd>
    I2C_SendData(0x0C);
    387c:	8c e0       	ldi	r24, 0x0C	; 12
    387e:	0e 94 14 12 	call	0x2428	; 0x2428 <I2C_SendData>
    I2C_SendData(0x10);
    3882:	80 e1       	ldi	r24, 0x10	; 16
    3884:	0e 94 14 12 	call	0x2428	; 0x2428 <I2C_SendData>
    I2C_SendStopCond();
    3888:	0e 94 31 12 	call	0x2462	; 0x2462 <I2C_SendStopCond>


    I2C_SendStartCond();
    388c:	0e 94 d5 11 	call	0x23aa	; 0x23aa <I2C_SendStartCond>
    I2C_SendAdd(MAX30102_WRITE_ADDR);
    3890:	8e ea       	ldi	r24, 0xAE	; 174
    3892:	0e 94 f3 11 	call	0x23e6	; 0x23e6 <I2C_SendAdd>
    I2C_SendData(0x0D);
    3896:	8d e0       	ldi	r24, 0x0D	; 13
    3898:	0e 94 14 12 	call	0x2428	; 0x2428 <I2C_SendData>
    I2C_SendData(0x1F);
    389c:	8f e1       	ldi	r24, 0x1F	; 31
    389e:	0e 94 14 12 	call	0x2428	; 0x2428 <I2C_SendData>
    I2C_SendStopCond();
    38a2:	0e 94 31 12 	call	0x2462	; 0x2462 <I2C_SendStopCond>

}
    38a6:	2e 96       	adiw	r28, 0x0e	; 14
    38a8:	0f b6       	in	r0, 0x3f	; 63
    38aa:	f8 94       	cli
    38ac:	de bf       	out	0x3e, r29	; 62
    38ae:	0f be       	out	0x3f, r0	; 63
    38b0:	cd bf       	out	0x3d, r28	; 61
    38b2:	cf 91       	pop	r28
    38b4:	df 91       	pop	r29
    38b6:	08 95       	ret

000038b8 <MAX30102_ReadIR>:
u32 MAX30102_ReadIR(void){
    38b8:	df 93       	push	r29
    38ba:	cf 93       	push	r28
    38bc:	cd b7       	in	r28, 0x3d	; 61
    38be:	de b7       	in	r29, 0x3e	; 62
    38c0:	65 97       	sbiw	r28, 0x15	; 21
    38c2:	0f b6       	in	r0, 0x3f	; 63
    38c4:	f8 94       	cli
    38c6:	de bf       	out	0x3e, r29	; 62
    38c8:	0f be       	out	0x3f, r0	; 63
    38ca:	cd bf       	out	0x3d, r28	; 61
    u32 ir = 0;
    38cc:	1a 8a       	std	Y+18, r1	; 0x12
    38ce:	1b 8a       	std	Y+19, r1	; 0x13
    38d0:	1c 8a       	std	Y+20, r1	; 0x14
    38d2:	1d 8a       	std	Y+21, r1	; 0x15
    u8 b1, b2, b3;

    I2C_SendStartCond();
    38d4:	0e 94 d5 11 	call	0x23aa	; 0x23aa <I2C_SendStartCond>
    I2C_SendAdd(MAX30102_WRITE_ADDR);   // Write mode
    38d8:	8e ea       	ldi	r24, 0xAE	; 174
    38da:	0e 94 f3 11 	call	0x23e6	; 0x23e6 <I2C_SendAdd>
    I2C_SendData(0x07);                 // IR register address
    38de:	87 e0       	ldi	r24, 0x07	; 7
    38e0:	0e 94 14 12 	call	0x2428	; 0x2428 <I2C_SendData>

    I2C_SendStartCond();                // Repeated start
    38e4:	0e 94 d5 11 	call	0x23aa	; 0x23aa <I2C_SendStartCond>
    I2C_SendAdd(MAX30102_READ_ADDR);    // Read mode
    38e8:	8f ea       	ldi	r24, 0xAF	; 175
    38ea:	0e 94 f3 11 	call	0x23e6	; 0x23e6 <I2C_SendAdd>

    b1 = I2C_MasterReadAck_max();
    38ee:	0e 94 99 12 	call	0x2532	; 0x2532 <I2C_MasterReadAck_max>
    38f2:	89 8b       	std	Y+17, r24	; 0x11
    b2 = I2C_MasterReadAck_max();
    38f4:	0e 94 99 12 	call	0x2532	; 0x2532 <I2C_MasterReadAck_max>
    38f8:	88 8b       	std	Y+16, r24	; 0x10
    b3 = I2C_MasterReadNack_max();
    38fa:	0e 94 d3 12 	call	0x25a6	; 0x25a6 <I2C_MasterReadNack_max>
    38fe:	8f 87       	std	Y+15, r24	; 0x0f
    I2C_SendStopCond();
    3900:	0e 94 31 12 	call	0x2462	; 0x2462 <I2C_SendStopCond>
    3904:	80 e0       	ldi	r24, 0x00	; 0
    3906:	90 e0       	ldi	r25, 0x00	; 0
    3908:	a0 e2       	ldi	r26, 0x20	; 32
    390a:	b1 e4       	ldi	r27, 0x41	; 65
    390c:	8b 87       	std	Y+11, r24	; 0x0b
    390e:	9c 87       	std	Y+12, r25	; 0x0c
    3910:	ad 87       	std	Y+13, r26	; 0x0d
    3912:	be 87       	std	Y+14, r27	; 0x0e
 */
void
_delay_ms(double __ms)
{
	uint16_t __ticks;
	double __tmp = ((F_CPU) / 4e3) * __ms;
    3914:	6b 85       	ldd	r22, Y+11	; 0x0b
    3916:	7c 85       	ldd	r23, Y+12	; 0x0c
    3918:	8d 85       	ldd	r24, Y+13	; 0x0d
    391a:	9e 85       	ldd	r25, Y+14	; 0x0e
    391c:	20 e0       	ldi	r18, 0x00	; 0
    391e:	30 e0       	ldi	r19, 0x00	; 0
    3920:	4a e7       	ldi	r20, 0x7A	; 122
    3922:	55 e4       	ldi	r21, 0x45	; 69
    3924:	0e 94 9c 02 	call	0x538	; 0x538 <__mulsf3>
    3928:	dc 01       	movw	r26, r24
    392a:	cb 01       	movw	r24, r22
    392c:	8f 83       	std	Y+7, r24	; 0x07
    392e:	98 87       	std	Y+8, r25	; 0x08
    3930:	a9 87       	std	Y+9, r26	; 0x09
    3932:	ba 87       	std	Y+10, r27	; 0x0a
	if (__tmp < 1.0)
    3934:	6f 81       	ldd	r22, Y+7	; 0x07
    3936:	78 85       	ldd	r23, Y+8	; 0x08
    3938:	89 85       	ldd	r24, Y+9	; 0x09
    393a:	9a 85       	ldd	r25, Y+10	; 0x0a
    393c:	20 e0       	ldi	r18, 0x00	; 0
    393e:	30 e0       	ldi	r19, 0x00	; 0
    3940:	40 e8       	ldi	r20, 0x80	; 128
    3942:	5f e3       	ldi	r21, 0x3F	; 63
    3944:	0e 94 02 05 	call	0xa04	; 0xa04 <__ltsf2>
    3948:	88 23       	and	r24, r24
    394a:	2c f4       	brge	.+10     	; 0x3956 <MAX30102_ReadIR+0x9e>
		__ticks = 1;
    394c:	81 e0       	ldi	r24, 0x01	; 1
    394e:	90 e0       	ldi	r25, 0x00	; 0
    3950:	9e 83       	std	Y+6, r25	; 0x06
    3952:	8d 83       	std	Y+5, r24	; 0x05
    3954:	3f c0       	rjmp	.+126    	; 0x39d4 <MAX30102_ReadIR+0x11c>
	else if (__tmp > 65535)
    3956:	6f 81       	ldd	r22, Y+7	; 0x07
    3958:	78 85       	ldd	r23, Y+8	; 0x08
    395a:	89 85       	ldd	r24, Y+9	; 0x09
    395c:	9a 85       	ldd	r25, Y+10	; 0x0a
    395e:	20 e0       	ldi	r18, 0x00	; 0
    3960:	3f ef       	ldi	r19, 0xFF	; 255
    3962:	4f e7       	ldi	r20, 0x7F	; 127
    3964:	57 e4       	ldi	r21, 0x47	; 71
    3966:	0e 94 a2 04 	call	0x944	; 0x944 <__gtsf2>
    396a:	18 16       	cp	r1, r24
    396c:	4c f5       	brge	.+82     	; 0x39c0 <MAX30102_ReadIR+0x108>
	{
		//	__ticks = requested delay in 1/10 ms
		__ticks = (uint16_t) (__ms * 10.0);
    396e:	6b 85       	ldd	r22, Y+11	; 0x0b
    3970:	7c 85       	ldd	r23, Y+12	; 0x0c
    3972:	8d 85       	ldd	r24, Y+13	; 0x0d
    3974:	9e 85       	ldd	r25, Y+14	; 0x0e
    3976:	20 e0       	ldi	r18, 0x00	; 0
    3978:	30 e0       	ldi	r19, 0x00	; 0
    397a:	40 e2       	ldi	r20, 0x20	; 32
    397c:	51 e4       	ldi	r21, 0x41	; 65
    397e:	0e 94 9c 02 	call	0x538	; 0x538 <__mulsf3>
    3982:	dc 01       	movw	r26, r24
    3984:	cb 01       	movw	r24, r22
    3986:	bc 01       	movw	r22, r24
    3988:	cd 01       	movw	r24, r26
    398a:	0e 94 c6 00 	call	0x18c	; 0x18c <__fixunssfsi>
    398e:	dc 01       	movw	r26, r24
    3990:	cb 01       	movw	r24, r22
    3992:	9e 83       	std	Y+6, r25	; 0x06
    3994:	8d 83       	std	Y+5, r24	; 0x05
    3996:	0f c0       	rjmp	.+30     	; 0x39b6 <MAX30102_ReadIR+0xfe>
    3998:	80 e9       	ldi	r24, 0x90	; 144
    399a:	91 e0       	ldi	r25, 0x01	; 1
    399c:	9c 83       	std	Y+4, r25	; 0x04
    399e:	8b 83       	std	Y+3, r24	; 0x03
    39a0:	8b 81       	ldd	r24, Y+3	; 0x03
    39a2:	9c 81       	ldd	r25, Y+4	; 0x04
    39a4:	01 97       	sbiw	r24, 0x01	; 1
    39a6:	f1 f7       	brne	.-4      	; 0x39a4 <MAX30102_ReadIR+0xec>
    39a8:	9c 83       	std	Y+4, r25	; 0x04
    39aa:	8b 83       	std	Y+3, r24	; 0x03
		while(__ticks)
		{
			// wait 1/10 ms
			_delay_loop_2(((F_CPU) / 4e3) / 10);
			__ticks --;
    39ac:	8d 81       	ldd	r24, Y+5	; 0x05
    39ae:	9e 81       	ldd	r25, Y+6	; 0x06
    39b0:	01 97       	sbiw	r24, 0x01	; 1
    39b2:	9e 83       	std	Y+6, r25	; 0x06
    39b4:	8d 83       	std	Y+5, r24	; 0x05
		__ticks = 1;
	else if (__tmp > 65535)
	{
		//	__ticks = requested delay in 1/10 ms
		__ticks = (uint16_t) (__ms * 10.0);
		while(__ticks)
    39b6:	8d 81       	ldd	r24, Y+5	; 0x05
    39b8:	9e 81       	ldd	r25, Y+6	; 0x06
    39ba:	00 97       	sbiw	r24, 0x00	; 0
    39bc:	69 f7       	brne	.-38     	; 0x3998 <MAX30102_ReadIR+0xe0>
    39be:	14 c0       	rjmp	.+40     	; 0x39e8 <MAX30102_ReadIR+0x130>
			__ticks --;
		}
		return;
	}
	else
		__ticks = (uint16_t)__tmp;
    39c0:	6f 81       	ldd	r22, Y+7	; 0x07
    39c2:	78 85       	ldd	r23, Y+8	; 0x08
    39c4:	89 85       	ldd	r24, Y+9	; 0x09
    39c6:	9a 85       	ldd	r25, Y+10	; 0x0a
    39c8:	0e 94 c6 00 	call	0x18c	; 0x18c <__fixunssfsi>
    39cc:	dc 01       	movw	r26, r24
    39ce:	cb 01       	movw	r24, r22
    39d0:	9e 83       	std	Y+6, r25	; 0x06
    39d2:	8d 83       	std	Y+5, r24	; 0x05
    39d4:	8d 81       	ldd	r24, Y+5	; 0x05
    39d6:	9e 81       	ldd	r25, Y+6	; 0x06
    39d8:	9a 83       	std	Y+2, r25	; 0x02
    39da:	89 83       	std	Y+1, r24	; 0x01
    39dc:	89 81       	ldd	r24, Y+1	; 0x01
    39de:	9a 81       	ldd	r25, Y+2	; 0x02
    39e0:	01 97       	sbiw	r24, 0x01	; 1
    39e2:	f1 f7       	brne	.-4      	; 0x39e0 <MAX30102_ReadIR+0x128>
    39e4:	9a 83       	std	Y+2, r25	; 0x02
    39e6:	89 83       	std	Y+1, r24	; 0x01
    _delay_ms(10);

    ir = ((u32)b1 << 16) | ((u32)b2 << 8) | b3;
    39e8:	89 89       	ldd	r24, Y+17	; 0x11
    39ea:	88 2f       	mov	r24, r24
    39ec:	90 e0       	ldi	r25, 0x00	; 0
    39ee:	a0 e0       	ldi	r26, 0x00	; 0
    39f0:	b0 e0       	ldi	r27, 0x00	; 0
    39f2:	ac 01       	movw	r20, r24
    39f4:	33 27       	eor	r19, r19
    39f6:	22 27       	eor	r18, r18
    39f8:	88 89       	ldd	r24, Y+16	; 0x10
    39fa:	88 2f       	mov	r24, r24
    39fc:	90 e0       	ldi	r25, 0x00	; 0
    39fe:	a0 e0       	ldi	r26, 0x00	; 0
    3a00:	b0 e0       	ldi	r27, 0x00	; 0
    3a02:	ba 2f       	mov	r27, r26
    3a04:	a9 2f       	mov	r26, r25
    3a06:	98 2f       	mov	r25, r24
    3a08:	88 27       	eor	r24, r24
    3a0a:	28 2b       	or	r18, r24
    3a0c:	39 2b       	or	r19, r25
    3a0e:	4a 2b       	or	r20, r26
    3a10:	5b 2b       	or	r21, r27
    3a12:	8f 85       	ldd	r24, Y+15	; 0x0f
    3a14:	88 2f       	mov	r24, r24
    3a16:	90 e0       	ldi	r25, 0x00	; 0
    3a18:	a0 e0       	ldi	r26, 0x00	; 0
    3a1a:	b0 e0       	ldi	r27, 0x00	; 0
    3a1c:	82 2b       	or	r24, r18
    3a1e:	93 2b       	or	r25, r19
    3a20:	a4 2b       	or	r26, r20
    3a22:	b5 2b       	or	r27, r21
    3a24:	8a 8b       	std	Y+18, r24	; 0x12
    3a26:	9b 8b       	std	Y+19, r25	; 0x13
    3a28:	ac 8b       	std	Y+20, r26	; 0x14
    3a2a:	bd 8b       	std	Y+21, r27	; 0x15
    ir &= 0x03FFFF;
    3a2c:	8a 89       	ldd	r24, Y+18	; 0x12
    3a2e:	9b 89       	ldd	r25, Y+19	; 0x13
    3a30:	ac 89       	ldd	r26, Y+20	; 0x14
    3a32:	bd 89       	ldd	r27, Y+21	; 0x15
    3a34:	a3 70       	andi	r26, 0x03	; 3
    3a36:	b0 70       	andi	r27, 0x00	; 0
    3a38:	8a 8b       	std	Y+18, r24	; 0x12
    3a3a:	9b 8b       	std	Y+19, r25	; 0x13
    3a3c:	ac 8b       	std	Y+20, r26	; 0x14
    3a3e:	bd 8b       	std	Y+21, r27	; 0x15
    return ir;
    3a40:	8a 89       	ldd	r24, Y+18	; 0x12
    3a42:	9b 89       	ldd	r25, Y+19	; 0x13
    3a44:	ac 89       	ldd	r26, Y+20	; 0x14
    3a46:	bd 89       	ldd	r27, Y+21	; 0x15
}
    3a48:	bc 01       	movw	r22, r24
    3a4a:	cd 01       	movw	r24, r26
    3a4c:	65 96       	adiw	r28, 0x15	; 21
    3a4e:	0f b6       	in	r0, 0x3f	; 63
    3a50:	f8 94       	cli
    3a52:	de bf       	out	0x3e, r29	; 62
    3a54:	0f be       	out	0x3f, r0	; 63
    3a56:	cd bf       	out	0x3d, r28	; 61
    3a58:	cf 91       	pop	r28
    3a5a:	df 91       	pop	r29
    3a5c:	08 95       	ret

00003a5e <checkForBeat>:

u8 checkForBeat(u32 irValue){
    3a5e:	ef 92       	push	r14
    3a60:	ff 92       	push	r15
    3a62:	0f 93       	push	r16
    3a64:	1f 93       	push	r17
    3a66:	df 93       	push	r29
    3a68:	cf 93       	push	r28
    3a6a:	cd b7       	in	r28, 0x3d	; 61
    3a6c:	de b7       	in	r29, 0x3e	; 62
    3a6e:	2a 97       	sbiw	r28, 0x0a	; 10
    3a70:	0f b6       	in	r0, 0x3f	; 63
    3a72:	f8 94       	cli
    3a74:	de bf       	out	0x3e, r29	; 62
    3a76:	0f be       	out	0x3f, r0	; 63
    3a78:	cd bf       	out	0x3d, r28	; 61
    3a7a:	6d 83       	std	Y+5, r22	; 0x05
    3a7c:	7e 83       	std	Y+6, r23	; 0x06
    3a7e:	8f 83       	std	Y+7, r24	; 0x07
    3a80:	98 87       	std	Y+8, r25	; 0x08
    static float lowPassValue = 0;
    static float dcBaseline = 0;
    static u8 beatDetected = 0;

    // 1. Auto-initialize on first run
    if (lowPassValue == 0) {
    3a82:	80 91 f9 03 	lds	r24, 0x03F9
    3a86:	90 91 fa 03 	lds	r25, 0x03FA
    3a8a:	a0 91 fb 03 	lds	r26, 0x03FB
    3a8e:	b0 91 fc 03 	lds	r27, 0x03FC
    3a92:	bc 01       	movw	r22, r24
    3a94:	cd 01       	movw	r24, r26
    3a96:	20 e0       	ldi	r18, 0x00	; 0
    3a98:	30 e0       	ldi	r19, 0x00	; 0
    3a9a:	40 e0       	ldi	r20, 0x00	; 0
    3a9c:	50 e0       	ldi	r21, 0x00	; 0
    3a9e:	0e 94 42 04 	call	0x884	; 0x884 <__eqsf2>
    3aa2:	88 23       	and	r24, r24
    3aa4:	11 f5       	brne	.+68     	; 0x3aea <checkForBeat+0x8c>
        lowPassValue = (float)irValue;
    3aa6:	6d 81       	ldd	r22, Y+5	; 0x05
    3aa8:	7e 81       	ldd	r23, Y+6	; 0x06
    3aaa:	8f 81       	ldd	r24, Y+7	; 0x07
    3aac:	98 85       	ldd	r25, Y+8	; 0x08
    3aae:	0e 94 e4 05 	call	0xbc8	; 0xbc8 <__floatunsisf>
    3ab2:	dc 01       	movw	r26, r24
    3ab4:	cb 01       	movw	r24, r22
    3ab6:	80 93 f9 03 	sts	0x03F9, r24
    3aba:	90 93 fa 03 	sts	0x03FA, r25
    3abe:	a0 93 fb 03 	sts	0x03FB, r26
    3ac2:	b0 93 fc 03 	sts	0x03FC, r27
        dcBaseline = (float)irValue;
    3ac6:	6d 81       	ldd	r22, Y+5	; 0x05
    3ac8:	7e 81       	ldd	r23, Y+6	; 0x06
    3aca:	8f 81       	ldd	r24, Y+7	; 0x07
    3acc:	98 85       	ldd	r25, Y+8	; 0x08
    3ace:	0e 94 e4 05 	call	0xbc8	; 0xbc8 <__floatunsisf>
    3ad2:	dc 01       	movw	r26, r24
    3ad4:	cb 01       	movw	r24, r22
    3ad6:	80 93 f5 03 	sts	0x03F5, r24
    3ada:	90 93 f6 03 	sts	0x03F6, r25
    3ade:	a0 93 f7 03 	sts	0x03F7, r26
    3ae2:	b0 93 f8 03 	sts	0x03F8, r27
        return 0;
    3ae6:	1a 86       	std	Y+10, r1	; 0x0a
    3ae8:	b3 c0       	rjmp	.+358    	; 0x3c50 <checkForBeat+0x1f2>
    }

    // 2. Filter logic (Slightly faster tracking)
    lowPassValue = (0.2 * irValue) + (0.8 * lowPassValue);
    3aea:	6d 81       	ldd	r22, Y+5	; 0x05
    3aec:	7e 81       	ldd	r23, Y+6	; 0x06
    3aee:	8f 81       	ldd	r24, Y+7	; 0x07
    3af0:	98 85       	ldd	r25, Y+8	; 0x08
    3af2:	0e 94 e4 05 	call	0xbc8	; 0xbc8 <__floatunsisf>
    3af6:	dc 01       	movw	r26, r24
    3af8:	cb 01       	movw	r24, r22
    3afa:	bc 01       	movw	r22, r24
    3afc:	cd 01       	movw	r24, r26
    3afe:	2d ec       	ldi	r18, 0xCD	; 205
    3b00:	3c ec       	ldi	r19, 0xCC	; 204
    3b02:	4c e4       	ldi	r20, 0x4C	; 76
    3b04:	5e e3       	ldi	r21, 0x3E	; 62
    3b06:	0e 94 9c 02 	call	0x538	; 0x538 <__mulsf3>
    3b0a:	dc 01       	movw	r26, r24
    3b0c:	cb 01       	movw	r24, r22
    3b0e:	7c 01       	movw	r14, r24
    3b10:	8d 01       	movw	r16, r26
    3b12:	80 91 f9 03 	lds	r24, 0x03F9
    3b16:	90 91 fa 03 	lds	r25, 0x03FA
    3b1a:	a0 91 fb 03 	lds	r26, 0x03FB
    3b1e:	b0 91 fc 03 	lds	r27, 0x03FC
    3b22:	bc 01       	movw	r22, r24
    3b24:	cd 01       	movw	r24, r26
    3b26:	2d ec       	ldi	r18, 0xCD	; 205
    3b28:	3c ec       	ldi	r19, 0xCC	; 204
    3b2a:	4c e4       	ldi	r20, 0x4C	; 76
    3b2c:	5f e3       	ldi	r21, 0x3F	; 63
    3b2e:	0e 94 9c 02 	call	0x538	; 0x538 <__mulsf3>
    3b32:	dc 01       	movw	r26, r24
    3b34:	cb 01       	movw	r24, r22
    3b36:	9c 01       	movw	r18, r24
    3b38:	ad 01       	movw	r20, r26
    3b3a:	c8 01       	movw	r24, r16
    3b3c:	b7 01       	movw	r22, r14
    3b3e:	0e 94 6f 02 	call	0x4de	; 0x4de <__addsf3>
    3b42:	dc 01       	movw	r26, r24
    3b44:	cb 01       	movw	r24, r22
    3b46:	80 93 f9 03 	sts	0x03F9, r24
    3b4a:	90 93 fa 03 	sts	0x03FA, r25
    3b4e:	a0 93 fb 03 	sts	0x03FB, r26
    3b52:	b0 93 fc 03 	sts	0x03FC, r27
    dcBaseline = (0.98 * dcBaseline) + (0.02 * lowPassValue);
    3b56:	80 91 f5 03 	lds	r24, 0x03F5
    3b5a:	90 91 f6 03 	lds	r25, 0x03F6
    3b5e:	a0 91 f7 03 	lds	r26, 0x03F7
    3b62:	b0 91 f8 03 	lds	r27, 0x03F8
    3b66:	bc 01       	movw	r22, r24
    3b68:	cd 01       	movw	r24, r26
    3b6a:	28 e4       	ldi	r18, 0x48	; 72
    3b6c:	31 ee       	ldi	r19, 0xE1	; 225
    3b6e:	4a e7       	ldi	r20, 0x7A	; 122
    3b70:	5f e3       	ldi	r21, 0x3F	; 63
    3b72:	0e 94 9c 02 	call	0x538	; 0x538 <__mulsf3>
    3b76:	dc 01       	movw	r26, r24
    3b78:	cb 01       	movw	r24, r22
    3b7a:	7c 01       	movw	r14, r24
    3b7c:	8d 01       	movw	r16, r26
    3b7e:	80 91 f9 03 	lds	r24, 0x03F9
    3b82:	90 91 fa 03 	lds	r25, 0x03FA
    3b86:	a0 91 fb 03 	lds	r26, 0x03FB
    3b8a:	b0 91 fc 03 	lds	r27, 0x03FC
    3b8e:	bc 01       	movw	r22, r24
    3b90:	cd 01       	movw	r24, r26
    3b92:	2a e0       	ldi	r18, 0x0A	; 10
    3b94:	37 ed       	ldi	r19, 0xD7	; 215
    3b96:	43 ea       	ldi	r20, 0xA3	; 163
    3b98:	5c e3       	ldi	r21, 0x3C	; 60
    3b9a:	0e 94 9c 02 	call	0x538	; 0x538 <__mulsf3>
    3b9e:	dc 01       	movw	r26, r24
    3ba0:	cb 01       	movw	r24, r22
    3ba2:	9c 01       	movw	r18, r24
    3ba4:	ad 01       	movw	r20, r26
    3ba6:	c8 01       	movw	r24, r16
    3ba8:	b7 01       	movw	r22, r14
    3baa:	0e 94 6f 02 	call	0x4de	; 0x4de <__addsf3>
    3bae:	dc 01       	movw	r26, r24
    3bb0:	cb 01       	movw	r24, r22
    3bb2:	80 93 f5 03 	sts	0x03F5, r24
    3bb6:	90 93 f6 03 	sts	0x03F6, r25
    3bba:	a0 93 f7 03 	sts	0x03F7, r26
    3bbe:	b0 93 f8 03 	sts	0x03F8, r27
    float acValue = lowPassValue - dcBaseline;
    3bc2:	80 91 f9 03 	lds	r24, 0x03F9
    3bc6:	90 91 fa 03 	lds	r25, 0x03FA
    3bca:	a0 91 fb 03 	lds	r26, 0x03FB
    3bce:	b0 91 fc 03 	lds	r27, 0x03FC
    3bd2:	20 91 f5 03 	lds	r18, 0x03F5
    3bd6:	30 91 f6 03 	lds	r19, 0x03F6
    3bda:	40 91 f7 03 	lds	r20, 0x03F7
    3bde:	50 91 f8 03 	lds	r21, 0x03F8
    3be2:	bc 01       	movw	r22, r24
    3be4:	cd 01       	movw	r24, r26
    3be6:	0e 94 3e 02 	call	0x47c	; 0x47c <__subsf3>
    3bea:	dc 01       	movw	r26, r24
    3bec:	cb 01       	movw	r24, r22
    3bee:	89 83       	std	Y+1, r24	; 0x01
    3bf0:	9a 83       	std	Y+2, r25	; 0x02
    3bf2:	ab 83       	std	Y+3, r26	; 0x03
    3bf4:	bc 83       	std	Y+4, r27	; 0x04

    // 3. Ultra-sensitive Threshold (Try 12 instead of 20)
    if (acValue > 12 && beatDetected == 0) {
    3bf6:	19 86       	std	Y+9, r1	; 0x09
    3bf8:	69 81       	ldd	r22, Y+1	; 0x01
    3bfa:	7a 81       	ldd	r23, Y+2	; 0x02
    3bfc:	8b 81       	ldd	r24, Y+3	; 0x03
    3bfe:	9c 81       	ldd	r25, Y+4	; 0x04
    3c00:	20 e0       	ldi	r18, 0x00	; 0
    3c02:	30 e0       	ldi	r19, 0x00	; 0
    3c04:	40 e4       	ldi	r20, 0x40	; 64
    3c06:	51 e4       	ldi	r21, 0x41	; 65
    3c08:	0e 94 a2 04 	call	0x944	; 0x944 <__gtsf2>
    3c0c:	18 16       	cp	r1, r24
    3c0e:	14 f4       	brge	.+4      	; 0x3c14 <checkForBeat+0x1b6>
    3c10:	81 e0       	ldi	r24, 0x01	; 1
    3c12:	89 87       	std	Y+9, r24	; 0x09
    3c14:	81 e0       	ldi	r24, 0x01	; 1
    3c16:	99 85       	ldd	r25, Y+9	; 0x09
    3c18:	89 27       	eor	r24, r25
    3c1a:	88 23       	and	r24, r24
    3c1c:	51 f4       	brne	.+20     	; 0x3c32 <checkForBeat+0x1d4>
    3c1e:	80 91 f4 03 	lds	r24, 0x03F4
    3c22:	88 23       	and	r24, r24
    3c24:	31 f4       	brne	.+12     	; 0x3c32 <checkForBeat+0x1d4>
        beatDetected = 1;
    3c26:	81 e0       	ldi	r24, 0x01	; 1
    3c28:	80 93 f4 03 	sts	0x03F4, r24
        return 1;
    3c2c:	81 e0       	ldi	r24, 0x01	; 1
    3c2e:	8a 87       	std	Y+10, r24	; 0x0a
    3c30:	0f c0       	rjmp	.+30     	; 0x3c50 <checkForBeat+0x1f2>
    }
    else if (acValue < -2) { // Reset threshold
    3c32:	69 81       	ldd	r22, Y+1	; 0x01
    3c34:	7a 81       	ldd	r23, Y+2	; 0x02
    3c36:	8b 81       	ldd	r24, Y+3	; 0x03
    3c38:	9c 81       	ldd	r25, Y+4	; 0x04
    3c3a:	20 e0       	ldi	r18, 0x00	; 0
    3c3c:	30 e0       	ldi	r19, 0x00	; 0
    3c3e:	40 e0       	ldi	r20, 0x00	; 0
    3c40:	50 ec       	ldi	r21, 0xC0	; 192
    3c42:	0e 94 02 05 	call	0xa04	; 0xa04 <__ltsf2>
    3c46:	88 23       	and	r24, r24
    3c48:	14 f4       	brge	.+4      	; 0x3c4e <checkForBeat+0x1f0>
        beatDetected = 0;
    3c4a:	10 92 f4 03 	sts	0x03F4, r1
    }
    return 0;
    3c4e:	1a 86       	std	Y+10, r1	; 0x0a
    3c50:	8a 85       	ldd	r24, Y+10	; 0x0a
}
    3c52:	2a 96       	adiw	r28, 0x0a	; 10
    3c54:	0f b6       	in	r0, 0x3f	; 63
    3c56:	f8 94       	cli
    3c58:	de bf       	out	0x3e, r29	; 62
    3c5a:	0f be       	out	0x3f, r0	; 63
    3c5c:	cd bf       	out	0x3d, r28	; 61
    3c5e:	cf 91       	pop	r28
    3c60:	df 91       	pop	r29
    3c62:	1f 91       	pop	r17
    3c64:	0f 91       	pop	r16
    3c66:	ff 90       	pop	r15
    3c68:	ef 90       	pop	r14
    3c6a:	08 95       	ret

00003c6c <removeDC>:
f32 removeDC(u32 irValue){
    3c6c:	af 92       	push	r10
    3c6e:	bf 92       	push	r11
    3c70:	cf 92       	push	r12
    3c72:	df 92       	push	r13
    3c74:	ef 92       	push	r14
    3c76:	ff 92       	push	r15
    3c78:	0f 93       	push	r16
    3c7a:	1f 93       	push	r17
    3c7c:	df 93       	push	r29
    3c7e:	cf 93       	push	r28
    3c80:	cd b7       	in	r28, 0x3d	; 61
    3c82:	de b7       	in	r29, 0x3e	; 62
    3c84:	28 97       	sbiw	r28, 0x08	; 8
    3c86:	0f b6       	in	r0, 0x3f	; 63
    3c88:	f8 94       	cli
    3c8a:	de bf       	out	0x3e, r29	; 62
    3c8c:	0f be       	out	0x3f, r0	; 63
    3c8e:	cd bf       	out	0x3d, r28	; 61
    3c90:	6d 83       	std	Y+5, r22	; 0x05
    3c92:	7e 83       	std	Y+6, r23	; 0x06
    3c94:	8f 83       	std	Y+7, r24	; 0x07
    3c96:	98 87       	std	Y+8, r25	; 0x08
    static f32 dc = 0;
    f32 alpha = 0.95;   // smoothing factor
    3c98:	83 e3       	ldi	r24, 0x33	; 51
    3c9a:	93 e3       	ldi	r25, 0x33	; 51
    3c9c:	a3 e7       	ldi	r26, 0x73	; 115
    3c9e:	bf e3       	ldi	r27, 0x3F	; 63
    3ca0:	89 83       	std	Y+1, r24	; 0x01
    3ca2:	9a 83       	std	Y+2, r25	; 0x02
    3ca4:	ab 83       	std	Y+3, r26	; 0x03
    3ca6:	bc 83       	std	Y+4, r27	; 0x04

    dc = alpha * dc + (1 - alpha) * irValue;
    3ca8:	80 91 fd 03 	lds	r24, 0x03FD
    3cac:	90 91 fe 03 	lds	r25, 0x03FE
    3cb0:	a0 91 ff 03 	lds	r26, 0x03FF
    3cb4:	b0 91 00 04 	lds	r27, 0x0400
    3cb8:	bc 01       	movw	r22, r24
    3cba:	cd 01       	movw	r24, r26
    3cbc:	29 81       	ldd	r18, Y+1	; 0x01
    3cbe:	3a 81       	ldd	r19, Y+2	; 0x02
    3cc0:	4b 81       	ldd	r20, Y+3	; 0x03
    3cc2:	5c 81       	ldd	r21, Y+4	; 0x04
    3cc4:	0e 94 9c 02 	call	0x538	; 0x538 <__mulsf3>
    3cc8:	dc 01       	movw	r26, r24
    3cca:	cb 01       	movw	r24, r22
    3ccc:	5c 01       	movw	r10, r24
    3cce:	6d 01       	movw	r12, r26
    3cd0:	60 e0       	ldi	r22, 0x00	; 0
    3cd2:	70 e0       	ldi	r23, 0x00	; 0
    3cd4:	80 e8       	ldi	r24, 0x80	; 128
    3cd6:	9f e3       	ldi	r25, 0x3F	; 63
    3cd8:	29 81       	ldd	r18, Y+1	; 0x01
    3cda:	3a 81       	ldd	r19, Y+2	; 0x02
    3cdc:	4b 81       	ldd	r20, Y+3	; 0x03
    3cde:	5c 81       	ldd	r21, Y+4	; 0x04
    3ce0:	0e 94 3e 02 	call	0x47c	; 0x47c <__subsf3>
    3ce4:	dc 01       	movw	r26, r24
    3ce6:	cb 01       	movw	r24, r22
    3ce8:	7c 01       	movw	r14, r24
    3cea:	8d 01       	movw	r16, r26
    3cec:	6d 81       	ldd	r22, Y+5	; 0x05
    3cee:	7e 81       	ldd	r23, Y+6	; 0x06
    3cf0:	8f 81       	ldd	r24, Y+7	; 0x07
    3cf2:	98 85       	ldd	r25, Y+8	; 0x08
    3cf4:	0e 94 e4 05 	call	0xbc8	; 0xbc8 <__floatunsisf>
    3cf8:	9b 01       	movw	r18, r22
    3cfa:	ac 01       	movw	r20, r24
    3cfc:	c8 01       	movw	r24, r16
    3cfe:	b7 01       	movw	r22, r14
    3d00:	0e 94 9c 02 	call	0x538	; 0x538 <__mulsf3>
    3d04:	dc 01       	movw	r26, r24
    3d06:	cb 01       	movw	r24, r22
    3d08:	9c 01       	movw	r18, r24
    3d0a:	ad 01       	movw	r20, r26
    3d0c:	c6 01       	movw	r24, r12
    3d0e:	b5 01       	movw	r22, r10
    3d10:	0e 94 6f 02 	call	0x4de	; 0x4de <__addsf3>
    3d14:	dc 01       	movw	r26, r24
    3d16:	cb 01       	movw	r24, r22
    3d18:	80 93 fd 03 	sts	0x03FD, r24
    3d1c:	90 93 fe 03 	sts	0x03FE, r25
    3d20:	a0 93 ff 03 	sts	0x03FF, r26
    3d24:	b0 93 00 04 	sts	0x0400, r27

    return irValue - dc;  // AC signal (heartbeat part)
    3d28:	6d 81       	ldd	r22, Y+5	; 0x05
    3d2a:	7e 81       	ldd	r23, Y+6	; 0x06
    3d2c:	8f 81       	ldd	r24, Y+7	; 0x07
    3d2e:	98 85       	ldd	r25, Y+8	; 0x08
    3d30:	0e 94 e4 05 	call	0xbc8	; 0xbc8 <__floatunsisf>
    3d34:	dc 01       	movw	r26, r24
    3d36:	cb 01       	movw	r24, r22
    3d38:	20 91 fd 03 	lds	r18, 0x03FD
    3d3c:	30 91 fe 03 	lds	r19, 0x03FE
    3d40:	40 91 ff 03 	lds	r20, 0x03FF
    3d44:	50 91 00 04 	lds	r21, 0x0400
    3d48:	bc 01       	movw	r22, r24
    3d4a:	cd 01       	movw	r24, r26
    3d4c:	0e 94 3e 02 	call	0x47c	; 0x47c <__subsf3>
    3d50:	dc 01       	movw	r26, r24
    3d52:	cb 01       	movw	r24, r22
}
    3d54:	bc 01       	movw	r22, r24
    3d56:	cd 01       	movw	r24, r26
    3d58:	28 96       	adiw	r28, 0x08	; 8
    3d5a:	0f b6       	in	r0, 0x3f	; 63
    3d5c:	f8 94       	cli
    3d5e:	de bf       	out	0x3e, r29	; 62
    3d60:	0f be       	out	0x3f, r0	; 63
    3d62:	cd bf       	out	0x3d, r28	; 61
    3d64:	cf 91       	pop	r28
    3d66:	df 91       	pop	r29
    3d68:	1f 91       	pop	r17
    3d6a:	0f 91       	pop	r16
    3d6c:	ff 90       	pop	r15
    3d6e:	ef 90       	pop	r14
    3d70:	df 90       	pop	r13
    3d72:	cf 90       	pop	r12
    3d74:	bf 90       	pop	r11
    3d76:	af 90       	pop	r10
    3d78:	08 95       	ret

00003d7a <update_display>:

void update_display(u8 avgBPM, u32 rawIR) {
    3d7a:	df 93       	push	r29
    3d7c:	cf 93       	push	r28
    3d7e:	cd b7       	in	r28, 0x3d	; 61
    3d80:	de b7       	in	r29, 0x3e	; 62
    3d82:	2a 97       	sbiw	r28, 0x0a	; 10
    3d84:	0f b6       	in	r0, 0x3f	; 63
    3d86:	f8 94       	cli
    3d88:	de bf       	out	0x3e, r29	; 62
    3d8a:	0f be       	out	0x3f, r0	; 63
    3d8c:	cd bf       	out	0x3d, r28	; 61
    3d8e:	8e 83       	std	Y+6, r24	; 0x06
    3d90:	4f 83       	std	Y+7, r20	; 0x07
    3d92:	58 87       	std	Y+8, r21	; 0x08
    3d94:	69 87       	std	Y+9, r22	; 0x09
    3d96:	7a 87       	std	Y+10, r23	; 0x0a
    LCD_movecursor(0,0);
    3d98:	80 e0       	ldi	r24, 0x00	; 0
    3d9a:	60 e0       	ldi	r22, 0x00	; 0
    3d9c:	0e 94 f5 28 	call	0x51ea	; 0x51ea <LCD_movecursor>
    LCD_writestr((u8*)"BPM: ");
    3da0:	85 ec       	ldi	r24, 0xC5	; 197
    3da2:	90 e0       	ldi	r25, 0x00	; 0
    3da4:	0e 94 bc 27 	call	0x4f78	; 0x4f78 <LCD_writestr>
    char buffer[5];
    itoa(avgBPM, buffer, 10);
    3da8:	8e 81       	ldd	r24, Y+6	; 0x06
    3daa:	88 2f       	mov	r24, r24
    3dac:	90 e0       	ldi	r25, 0x00	; 0
    3dae:	9e 01       	movw	r18, r28
    3db0:	2f 5f       	subi	r18, 0xFF	; 255
    3db2:	3f 4f       	sbci	r19, 0xFF	; 255
    3db4:	b9 01       	movw	r22, r18
    3db6:	4a e0       	ldi	r20, 0x0A	; 10
    3db8:	50 e0       	ldi	r21, 0x00	; 0
    3dba:	0e 94 95 2e 	call	0x5d2a	; 0x5d2a <itoa>
    LCD_writestr((u8*)buffer);
    3dbe:	ce 01       	movw	r24, r28
    3dc0:	01 96       	adiw	r24, 0x01	; 1
    3dc2:	0e 94 bc 27 	call	0x4f78	; 0x4f78 <LCD_writestr>
    LCD_writestr((u8*)"   ");
    3dc6:	8b ec       	ldi	r24, 0xCB	; 203
    3dc8:	90 e0       	ldi	r25, 0x00	; 0
    3dca:	0e 94 bc 27 	call	0x4f78	; 0x4f78 <LCD_writestr>

    LCD_movecursor(0,1);
    3dce:	80 e0       	ldi	r24, 0x00	; 0
    3dd0:	61 e0       	ldi	r22, 0x01	; 1
    3dd2:	0e 94 f5 28 	call	0x51ea	; 0x51ea <LCD_movecursor>

    USART_SendString("Raw IR: ");
    3dd6:	8f ec       	ldi	r24, 0xCF	; 207
    3dd8:	90 e0       	ldi	r25, 0x00	; 0
    3dda:	0e 94 c2 08 	call	0x1184	; 0x1184 <USART_SendString>
    USART_SendNumber(rawIR);
    3dde:	8f 81       	ldd	r24, Y+7	; 0x07
    3de0:	98 85       	ldd	r25, Y+8	; 0x08
    3de2:	a9 85       	ldd	r26, Y+9	; 0x09
    3de4:	ba 85       	ldd	r27, Y+10	; 0x0a
    3de6:	bc 01       	movw	r22, r24
    3de8:	cd 01       	movw	r24, r26
    3dea:	0e 94 8a 09 	call	0x1314	; 0x1314 <USART_SendNumber>
    USART_SendString(" | State: ");
    3dee:	88 ed       	ldi	r24, 0xD8	; 216
    3df0:	90 e0       	ldi	r25, 0x00	; 0
    3df2:	0e 94 c2 08 	call	0x1184	; 0x1184 <USART_SendString>

    // FIX: Check Raw IR to see if a finger is actually there
    if (rawIR < 50000) {
    3df6:	8f 81       	ldd	r24, Y+7	; 0x07
    3df8:	98 85       	ldd	r25, Y+8	; 0x08
    3dfa:	a9 85       	ldd	r26, Y+9	; 0x09
    3dfc:	ba 85       	ldd	r27, Y+10	; 0x0a
    3dfe:	80 35       	cpi	r24, 0x50	; 80
    3e00:	23 ec       	ldi	r18, 0xC3	; 195
    3e02:	92 07       	cpc	r25, r18
    3e04:	20 e0       	ldi	r18, 0x00	; 0
    3e06:	a2 07       	cpc	r26, r18
    3e08:	20 e0       	ldi	r18, 0x00	; 0
    3e0a:	b2 07       	cpc	r27, r18
    3e0c:	48 f4       	brcc	.+18     	; 0x3e20 <update_display+0xa6>
        LCD_writestr((u8*)"Place Finger    ");
    3e0e:	83 ee       	ldi	r24, 0xE3	; 227
    3e10:	90 e0       	ldi	r25, 0x00	; 0
    3e12:	0e 94 bc 27 	call	0x4f78	; 0x4f78 <LCD_writestr>
        USART_SendString("No Finger Detected\r\n");
    3e16:	84 ef       	ldi	r24, 0xF4	; 244
    3e18:	90 e0       	ldi	r25, 0x00	; 0
    3e1a:	0e 94 c2 08 	call	0x1184	; 0x1184 <USART_SendString>
    3e1e:	2c c0       	rjmp	.+88     	; 0x3e78 <update_display+0xfe>
    }
    else {
        // If finger is there, show the heart rate status
        if (avgBPM == 0) {
    3e20:	8e 81       	ldd	r24, Y+6	; 0x06
    3e22:	88 23       	and	r24, r24
    3e24:	49 f4       	brne	.+18     	; 0x3e38 <update_display+0xbe>
            LCD_writestr((u8*)"Processing...   ");
    3e26:	89 e0       	ldi	r24, 0x09	; 9
    3e28:	91 e0       	ldi	r25, 0x01	; 1
    3e2a:	0e 94 bc 27 	call	0x4f78	; 0x4f78 <LCD_writestr>
            USART_SendString("Calculating BPM...\r\n");
    3e2e:	8a e1       	ldi	r24, 0x1A	; 26
    3e30:	91 e0       	ldi	r25, 0x01	; 1
    3e32:	0e 94 c2 08 	call	0x1184	; 0x1184 <USART_SendString>
    3e36:	20 c0       	rjmp	.+64     	; 0x3e78 <update_display+0xfe>
        }
        else if (avgBPM < 60) {
    3e38:	8e 81       	ldd	r24, Y+6	; 0x06
    3e3a:	8c 33       	cpi	r24, 0x3C	; 60
    3e3c:	48 f4       	brcc	.+18     	; 0x3e50 <update_display+0xd6>
            LCD_writestr((u8*)"Low Heart Rate  ");
    3e3e:	8f e2       	ldi	r24, 0x2F	; 47
    3e40:	91 e0       	ldi	r25, 0x01	; 1
    3e42:	0e 94 bc 27 	call	0x4f78	; 0x4f78 <LCD_writestr>
            USART_SendString("Low Heart Rate\r\n");
    3e46:	80 e4       	ldi	r24, 0x40	; 64
    3e48:	91 e0       	ldi	r25, 0x01	; 1
    3e4a:	0e 94 c2 08 	call	0x1184	; 0x1184 <USART_SendString>
    3e4e:	14 c0       	rjmp	.+40     	; 0x3e78 <update_display+0xfe>
        }
        else if (avgBPM <= 105) {
    3e50:	8e 81       	ldd	r24, Y+6	; 0x06
    3e52:	8a 36       	cpi	r24, 0x6A	; 106
    3e54:	48 f4       	brcc	.+18     	; 0x3e68 <update_display+0xee>
            LCD_writestr((u8*)"Normal Rate     ");
    3e56:	81 e5       	ldi	r24, 0x51	; 81
    3e58:	91 e0       	ldi	r25, 0x01	; 1
    3e5a:	0e 94 bc 27 	call	0x4f78	; 0x4f78 <LCD_writestr>
            USART_SendString("Normal Heart Rate\r\n");
    3e5e:	82 e6       	ldi	r24, 0x62	; 98
    3e60:	91 e0       	ldi	r25, 0x01	; 1
    3e62:	0e 94 c2 08 	call	0x1184	; 0x1184 <USART_SendString>
    3e66:	08 c0       	rjmp	.+16     	; 0x3e78 <update_display+0xfe>
        }
        else {
            LCD_writestr((u8*)"High Heart Rate ");
    3e68:	86 e7       	ldi	r24, 0x76	; 118
    3e6a:	91 e0       	ldi	r25, 0x01	; 1
    3e6c:	0e 94 bc 27 	call	0x4f78	; 0x4f78 <LCD_writestr>
            USART_SendString("High Heart Rate\r\n");
    3e70:	87 e8       	ldi	r24, 0x87	; 135
    3e72:	91 e0       	ldi	r25, 0x01	; 1
    3e74:	0e 94 c2 08 	call	0x1184	; 0x1184 <USART_SendString>
        }
    }
    USART_SendString("--------------------\r\n");
    3e78:	89 e9       	ldi	r24, 0x99	; 153
    3e7a:	91 e0       	ldi	r25, 0x01	; 1
    3e7c:	0e 94 c2 08 	call	0x1184	; 0x1184 <USART_SendString>
}
    3e80:	2a 96       	adiw	r28, 0x0a	; 10
    3e82:	0f b6       	in	r0, 0x3f	; 63
    3e84:	f8 94       	cli
    3e86:	de bf       	out	0x3e, r29	; 62
    3e88:	0f be       	out	0x3f, r0	; 63
    3e8a:	cd bf       	out	0x3d, r28	; 61
    3e8c:	cf 91       	pop	r28
    3e8e:	df 91       	pop	r29
    3e90:	08 95       	ret

00003e92 <LED_init>:
#include "../../MCAL/DIO/DIO.h"
#include "LED.h"


void LED_init(u8 LedPort, u8 LedPin)
{
    3e92:	df 93       	push	r29
    3e94:	cf 93       	push	r28
    3e96:	00 d0       	rcall	.+0      	; 0x3e98 <LED_init+0x6>
    3e98:	cd b7       	in	r28, 0x3d	; 61
    3e9a:	de b7       	in	r29, 0x3e	; 62
    3e9c:	89 83       	std	Y+1, r24	; 0x01
    3e9e:	6a 83       	std	Y+2, r22	; 0x02
	DIO_InitPin(LedPort , LedPin , DIO_OUTPUT ) ;
    3ea0:	89 81       	ldd	r24, Y+1	; 0x01
    3ea2:	6a 81       	ldd	r22, Y+2	; 0x02
    3ea4:	41 e0       	ldi	r20, 0x01	; 1
    3ea6:	0e 94 f0 12 	call	0x25e0	; 0x25e0 <DIO_InitPin>
}
    3eaa:	0f 90       	pop	r0
    3eac:	0f 90       	pop	r0
    3eae:	cf 91       	pop	r28
    3eb0:	df 91       	pop	r29
    3eb2:	08 95       	ret

00003eb4 <LED_ON>:

void LED_ON(u8 LedPort, u8 LedPin)
{
    3eb4:	df 93       	push	r29
    3eb6:	cf 93       	push	r28
    3eb8:	00 d0       	rcall	.+0      	; 0x3eba <LED_ON+0x6>
    3eba:	cd b7       	in	r28, 0x3d	; 61
    3ebc:	de b7       	in	r29, 0x3e	; 62
    3ebe:	89 83       	std	Y+1, r24	; 0x01
    3ec0:	6a 83       	std	Y+2, r22	; 0x02
	DIO_SetPinValue(LedPort, LedPin, DIO_HIGH);
    3ec2:	89 81       	ldd	r24, Y+1	; 0x01
    3ec4:	6a 81       	ldd	r22, Y+2	; 0x02
    3ec6:	41 e0       	ldi	r20, 0x01	; 1
    3ec8:	0e 94 ef 13 	call	0x27de	; 0x27de <DIO_SetPinValue>
}
    3ecc:	0f 90       	pop	r0
    3ece:	0f 90       	pop	r0
    3ed0:	cf 91       	pop	r28
    3ed2:	df 91       	pop	r29
    3ed4:	08 95       	ret

00003ed6 <LED_OFF>:

void LED_OFF(u8 LedPort, u8 LedPin)
{
    3ed6:	df 93       	push	r29
    3ed8:	cf 93       	push	r28
    3eda:	00 d0       	rcall	.+0      	; 0x3edc <LED_OFF+0x6>
    3edc:	cd b7       	in	r28, 0x3d	; 61
    3ede:	de b7       	in	r29, 0x3e	; 62
    3ee0:	89 83       	std	Y+1, r24	; 0x01
    3ee2:	6a 83       	std	Y+2, r22	; 0x02
	DIO_SetPinValue(LedPort, LedPin, DIO_LOW);
    3ee4:	89 81       	ldd	r24, Y+1	; 0x01
    3ee6:	6a 81       	ldd	r22, Y+2	; 0x02
    3ee8:	40 e0       	ldi	r20, 0x00	; 0
    3eea:	0e 94 ef 13 	call	0x27de	; 0x27de <DIO_SetPinValue>
}
    3eee:	0f 90       	pop	r0
    3ef0:	0f 90       	pop	r0
    3ef2:	cf 91       	pop	r28
    3ef4:	df 91       	pop	r29
    3ef6:	08 95       	ret

00003ef8 <LED_TOG>:

void LED_TOG(u8 LedPort, u8 LedPin)
{
    3ef8:	df 93       	push	r29
    3efa:	cf 93       	push	r28
    3efc:	00 d0       	rcall	.+0      	; 0x3efe <LED_TOG+0x6>
    3efe:	cd b7       	in	r28, 0x3d	; 61
    3f00:	de b7       	in	r29, 0x3e	; 62
    3f02:	89 83       	std	Y+1, r24	; 0x01
    3f04:	6a 83       	std	Y+2, r22	; 0x02
	DIO_TogPinValue(LedPort, LedPin);
    3f06:	89 81       	ldd	r24, Y+1	; 0x01
    3f08:	6a 81       	ldd	r22, Y+2	; 0x02
    3f0a:	0e 94 a5 15 	call	0x2b4a	; 0x2b4a <DIO_TogPinValue>
}
    3f0e:	0f 90       	pop	r0
    3f10:	0f 90       	pop	r0
    3f12:	cf 91       	pop	r28
    3f14:	df 91       	pop	r29
    3f16:	08 95       	ret

00003f18 <LCD_writedata>:
#include "../../LIB/STD_TYPES.h"
#include "../../MCAL/DIO/DIO.h"
#include "LCD.h"
#include <util/delay.h>

void LCD_writedata(u8 data) {
    3f18:	df 93       	push	r29
    3f1a:	cf 93       	push	r28
    3f1c:	cd b7       	in	r28, 0x3d	; 61
    3f1e:	de b7       	in	r29, 0x3e	; 62
    3f20:	eb 97       	sbiw	r28, 0x3b	; 59
    3f22:	0f b6       	in	r0, 0x3f	; 63
    3f24:	f8 94       	cli
    3f26:	de bf       	out	0x3e, r29	; 62
    3f28:	0f be       	out	0x3f, r0	; 63
    3f2a:	cd bf       	out	0x3d, r28	; 61
    3f2c:	8b af       	std	Y+59, r24	; 0x3b
	DIO_SetPinValue(E_PORT, E_PIN, DIO_LOW);
	_delay_ms(1);

#else if MODE == 4
	//send data by 2 steps (higher 4 then lower 4)
	u8 LowNibble = data & 0x0F;
    3f2e:	8b ad       	ldd	r24, Y+59	; 0x3b
    3f30:	8f 70       	andi	r24, 0x0F	; 15
    3f32:	8a af       	std	Y+58, r24	; 0x3a
	u8 HighNibble = data >> 4;
    3f34:	8b ad       	ldd	r24, Y+59	; 0x3b
    3f36:	82 95       	swap	r24
    3f38:	8f 70       	andi	r24, 0x0F	; 15
    3f3a:	89 af       	std	Y+57, r24	; 0x39

	//send the highnibble first then low nibble
	DIO_SetPinValue(LCD_PORT, 3, READ_BIT(HighNibble, 0));
    3f3c:	89 ad       	ldd	r24, Y+57	; 0x39
    3f3e:	98 2f       	mov	r25, r24
    3f40:	91 70       	andi	r25, 0x01	; 1
    3f42:	81 e0       	ldi	r24, 0x01	; 1
    3f44:	63 e0       	ldi	r22, 0x03	; 3
    3f46:	49 2f       	mov	r20, r25
    3f48:	0e 94 ef 13 	call	0x27de	; 0x27de <DIO_SetPinValue>
	DIO_SetPinValue(LCD_PORT, 4, READ_BIT(HighNibble, 1));
    3f4c:	89 ad       	ldd	r24, Y+57	; 0x39
    3f4e:	88 2f       	mov	r24, r24
    3f50:	90 e0       	ldi	r25, 0x00	; 0
    3f52:	82 70       	andi	r24, 0x02	; 2
    3f54:	90 70       	andi	r25, 0x00	; 0
    3f56:	95 95       	asr	r25
    3f58:	87 95       	ror	r24
    3f5a:	98 2f       	mov	r25, r24
    3f5c:	81 e0       	ldi	r24, 0x01	; 1
    3f5e:	64 e0       	ldi	r22, 0x04	; 4
    3f60:	49 2f       	mov	r20, r25
    3f62:	0e 94 ef 13 	call	0x27de	; 0x27de <DIO_SetPinValue>
	DIO_SetPinValue(LCD_PORT, 5, READ_BIT(HighNibble, 2));
    3f66:	89 ad       	ldd	r24, Y+57	; 0x39
    3f68:	88 2f       	mov	r24, r24
    3f6a:	90 e0       	ldi	r25, 0x00	; 0
    3f6c:	84 70       	andi	r24, 0x04	; 4
    3f6e:	90 70       	andi	r25, 0x00	; 0
    3f70:	95 95       	asr	r25
    3f72:	87 95       	ror	r24
    3f74:	95 95       	asr	r25
    3f76:	87 95       	ror	r24
    3f78:	98 2f       	mov	r25, r24
    3f7a:	81 e0       	ldi	r24, 0x01	; 1
    3f7c:	65 e0       	ldi	r22, 0x05	; 5
    3f7e:	49 2f       	mov	r20, r25
    3f80:	0e 94 ef 13 	call	0x27de	; 0x27de <DIO_SetPinValue>
	DIO_SetPinValue(LCD_PORT, 6, READ_BIT(HighNibble, 3));
    3f84:	89 ad       	ldd	r24, Y+57	; 0x39
    3f86:	88 2f       	mov	r24, r24
    3f88:	90 e0       	ldi	r25, 0x00	; 0
    3f8a:	88 70       	andi	r24, 0x08	; 8
    3f8c:	90 70       	andi	r25, 0x00	; 0
    3f8e:	95 95       	asr	r25
    3f90:	87 95       	ror	r24
    3f92:	95 95       	asr	r25
    3f94:	87 95       	ror	r24
    3f96:	95 95       	asr	r25
    3f98:	87 95       	ror	r24
    3f9a:	98 2f       	mov	r25, r24
    3f9c:	81 e0       	ldi	r24, 0x01	; 1
    3f9e:	66 e0       	ldi	r22, 0x06	; 6
    3fa0:	49 2f       	mov	r20, r25
    3fa2:	0e 94 ef 13 	call	0x27de	; 0x27de <DIO_SetPinValue>

	DIO_SetPinValue(RW_PORT, RW_PIN, DIO_LOW);
    3fa6:	81 e0       	ldi	r24, 0x01	; 1
    3fa8:	67 e0       	ldi	r22, 0x07	; 7
    3faa:	40 e0       	ldi	r20, 0x00	; 0
    3fac:	0e 94 ef 13 	call	0x27de	; 0x27de <DIO_SetPinValue>
	DIO_SetPinValue(RS_PORT, RS_PIN, DIO_HIGH);
    3fb0:	81 e0       	ldi	r24, 0x01	; 1
    3fb2:	61 e0       	ldi	r22, 0x01	; 1
    3fb4:	41 e0       	ldi	r20, 0x01	; 1
    3fb6:	0e 94 ef 13 	call	0x27de	; 0x27de <DIO_SetPinValue>
	//E-Pulse
	DIO_SetPinValue(E_PORT, E_PIN, DIO_HIGH);
    3fba:	81 e0       	ldi	r24, 0x01	; 1
    3fbc:	62 e0       	ldi	r22, 0x02	; 2
    3fbe:	41 e0       	ldi	r20, 0x01	; 1
    3fc0:	0e 94 ef 13 	call	0x27de	; 0x27de <DIO_SetPinValue>
    3fc4:	80 e0       	ldi	r24, 0x00	; 0
    3fc6:	90 e0       	ldi	r25, 0x00	; 0
    3fc8:	a0 e8       	ldi	r26, 0x80	; 128
    3fca:	bf e3       	ldi	r27, 0x3F	; 63
    3fcc:	8d ab       	std	Y+53, r24	; 0x35
    3fce:	9e ab       	std	Y+54, r25	; 0x36
    3fd0:	af ab       	std	Y+55, r26	; 0x37
    3fd2:	b8 af       	std	Y+56, r27	; 0x38
 */
void
_delay_ms(double __ms)
{
	uint16_t __ticks;
	double __tmp = ((F_CPU) / 4e3) * __ms;
    3fd4:	6d a9       	ldd	r22, Y+53	; 0x35
    3fd6:	7e a9       	ldd	r23, Y+54	; 0x36
    3fd8:	8f a9       	ldd	r24, Y+55	; 0x37
    3fda:	98 ad       	ldd	r25, Y+56	; 0x38
    3fdc:	20 e0       	ldi	r18, 0x00	; 0
    3fde:	30 e0       	ldi	r19, 0x00	; 0
    3fe0:	4a e7       	ldi	r20, 0x7A	; 122
    3fe2:	55 e4       	ldi	r21, 0x45	; 69
    3fe4:	0e 94 9c 02 	call	0x538	; 0x538 <__mulsf3>
    3fe8:	dc 01       	movw	r26, r24
    3fea:	cb 01       	movw	r24, r22
    3fec:	89 ab       	std	Y+49, r24	; 0x31
    3fee:	9a ab       	std	Y+50, r25	; 0x32
    3ff0:	ab ab       	std	Y+51, r26	; 0x33
    3ff2:	bc ab       	std	Y+52, r27	; 0x34
	if (__tmp < 1.0)
    3ff4:	69 a9       	ldd	r22, Y+49	; 0x31
    3ff6:	7a a9       	ldd	r23, Y+50	; 0x32
    3ff8:	8b a9       	ldd	r24, Y+51	; 0x33
    3ffa:	9c a9       	ldd	r25, Y+52	; 0x34
    3ffc:	20 e0       	ldi	r18, 0x00	; 0
    3ffe:	30 e0       	ldi	r19, 0x00	; 0
    4000:	40 e8       	ldi	r20, 0x80	; 128
    4002:	5f e3       	ldi	r21, 0x3F	; 63
    4004:	0e 94 02 05 	call	0xa04	; 0xa04 <__ltsf2>
    4008:	88 23       	and	r24, r24
    400a:	2c f4       	brge	.+10     	; 0x4016 <LCD_writedata+0xfe>
		__ticks = 1;
    400c:	81 e0       	ldi	r24, 0x01	; 1
    400e:	90 e0       	ldi	r25, 0x00	; 0
    4010:	98 ab       	std	Y+48, r25	; 0x30
    4012:	8f a7       	std	Y+47, r24	; 0x2f
    4014:	3f c0       	rjmp	.+126    	; 0x4094 <LCD_writedata+0x17c>
	else if (__tmp > 65535)
    4016:	69 a9       	ldd	r22, Y+49	; 0x31
    4018:	7a a9       	ldd	r23, Y+50	; 0x32
    401a:	8b a9       	ldd	r24, Y+51	; 0x33
    401c:	9c a9       	ldd	r25, Y+52	; 0x34
    401e:	20 e0       	ldi	r18, 0x00	; 0
    4020:	3f ef       	ldi	r19, 0xFF	; 255
    4022:	4f e7       	ldi	r20, 0x7F	; 127
    4024:	57 e4       	ldi	r21, 0x47	; 71
    4026:	0e 94 a2 04 	call	0x944	; 0x944 <__gtsf2>
    402a:	18 16       	cp	r1, r24
    402c:	4c f5       	brge	.+82     	; 0x4080 <LCD_writedata+0x168>
	{
		//	__ticks = requested delay in 1/10 ms
		__ticks = (uint16_t) (__ms * 10.0);
    402e:	6d a9       	ldd	r22, Y+53	; 0x35
    4030:	7e a9       	ldd	r23, Y+54	; 0x36
    4032:	8f a9       	ldd	r24, Y+55	; 0x37
    4034:	98 ad       	ldd	r25, Y+56	; 0x38
    4036:	20 e0       	ldi	r18, 0x00	; 0
    4038:	30 e0       	ldi	r19, 0x00	; 0
    403a:	40 e2       	ldi	r20, 0x20	; 32
    403c:	51 e4       	ldi	r21, 0x41	; 65
    403e:	0e 94 9c 02 	call	0x538	; 0x538 <__mulsf3>
    4042:	dc 01       	movw	r26, r24
    4044:	cb 01       	movw	r24, r22
    4046:	bc 01       	movw	r22, r24
    4048:	cd 01       	movw	r24, r26
    404a:	0e 94 c6 00 	call	0x18c	; 0x18c <__fixunssfsi>
    404e:	dc 01       	movw	r26, r24
    4050:	cb 01       	movw	r24, r22
    4052:	98 ab       	std	Y+48, r25	; 0x30
    4054:	8f a7       	std	Y+47, r24	; 0x2f
    4056:	0f c0       	rjmp	.+30     	; 0x4076 <LCD_writedata+0x15e>
    4058:	80 e9       	ldi	r24, 0x90	; 144
    405a:	91 e0       	ldi	r25, 0x01	; 1
    405c:	9e a7       	std	Y+46, r25	; 0x2e
    405e:	8d a7       	std	Y+45, r24	; 0x2d
    4060:	8d a5       	ldd	r24, Y+45	; 0x2d
    4062:	9e a5       	ldd	r25, Y+46	; 0x2e
    4064:	01 97       	sbiw	r24, 0x01	; 1
    4066:	f1 f7       	brne	.-4      	; 0x4064 <LCD_writedata+0x14c>
    4068:	9e a7       	std	Y+46, r25	; 0x2e
    406a:	8d a7       	std	Y+45, r24	; 0x2d
		while(__ticks)
		{
			// wait 1/10 ms
			_delay_loop_2(((F_CPU) / 4e3) / 10);
			__ticks --;
    406c:	8f a5       	ldd	r24, Y+47	; 0x2f
    406e:	98 a9       	ldd	r25, Y+48	; 0x30
    4070:	01 97       	sbiw	r24, 0x01	; 1
    4072:	98 ab       	std	Y+48, r25	; 0x30
    4074:	8f a7       	std	Y+47, r24	; 0x2f
		__ticks = 1;
	else if (__tmp > 65535)
	{
		//	__ticks = requested delay in 1/10 ms
		__ticks = (uint16_t) (__ms * 10.0);
		while(__ticks)
    4076:	8f a5       	ldd	r24, Y+47	; 0x2f
    4078:	98 a9       	ldd	r25, Y+48	; 0x30
    407a:	00 97       	sbiw	r24, 0x00	; 0
    407c:	69 f7       	brne	.-38     	; 0x4058 <LCD_writedata+0x140>
    407e:	14 c0       	rjmp	.+40     	; 0x40a8 <LCD_writedata+0x190>
			__ticks --;
		}
		return;
	}
	else
		__ticks = (uint16_t)__tmp;
    4080:	69 a9       	ldd	r22, Y+49	; 0x31
    4082:	7a a9       	ldd	r23, Y+50	; 0x32
    4084:	8b a9       	ldd	r24, Y+51	; 0x33
    4086:	9c a9       	ldd	r25, Y+52	; 0x34
    4088:	0e 94 c6 00 	call	0x18c	; 0x18c <__fixunssfsi>
    408c:	dc 01       	movw	r26, r24
    408e:	cb 01       	movw	r24, r22
    4090:	98 ab       	std	Y+48, r25	; 0x30
    4092:	8f a7       	std	Y+47, r24	; 0x2f
    4094:	8f a5       	ldd	r24, Y+47	; 0x2f
    4096:	98 a9       	ldd	r25, Y+48	; 0x30
    4098:	9c a7       	std	Y+44, r25	; 0x2c
    409a:	8b a7       	std	Y+43, r24	; 0x2b
    409c:	8b a5       	ldd	r24, Y+43	; 0x2b
    409e:	9c a5       	ldd	r25, Y+44	; 0x2c
    40a0:	01 97       	sbiw	r24, 0x01	; 1
    40a2:	f1 f7       	brne	.-4      	; 0x40a0 <LCD_writedata+0x188>
    40a4:	9c a7       	std	Y+44, r25	; 0x2c
    40a6:	8b a7       	std	Y+43, r24	; 0x2b
	_delay_ms(1);
	DIO_SetPinValue(E_PORT, E_PIN, DIO_LOW);
    40a8:	81 e0       	ldi	r24, 0x01	; 1
    40aa:	62 e0       	ldi	r22, 0x02	; 2
    40ac:	40 e0       	ldi	r20, 0x00	; 0
    40ae:	0e 94 ef 13 	call	0x27de	; 0x27de <DIO_SetPinValue>
    40b2:	80 e0       	ldi	r24, 0x00	; 0
    40b4:	90 e0       	ldi	r25, 0x00	; 0
    40b6:	a0 e8       	ldi	r26, 0x80	; 128
    40b8:	bf e3       	ldi	r27, 0x3F	; 63
    40ba:	8f a3       	std	Y+39, r24	; 0x27
    40bc:	98 a7       	std	Y+40, r25	; 0x28
    40be:	a9 a7       	std	Y+41, r26	; 0x29
    40c0:	ba a7       	std	Y+42, r27	; 0x2a
 */
void
_delay_ms(double __ms)
{
	uint16_t __ticks;
	double __tmp = ((F_CPU) / 4e3) * __ms;
    40c2:	6f a1       	ldd	r22, Y+39	; 0x27
    40c4:	78 a5       	ldd	r23, Y+40	; 0x28
    40c6:	89 a5       	ldd	r24, Y+41	; 0x29
    40c8:	9a a5       	ldd	r25, Y+42	; 0x2a
    40ca:	20 e0       	ldi	r18, 0x00	; 0
    40cc:	30 e0       	ldi	r19, 0x00	; 0
    40ce:	4a e7       	ldi	r20, 0x7A	; 122
    40d0:	55 e4       	ldi	r21, 0x45	; 69
    40d2:	0e 94 9c 02 	call	0x538	; 0x538 <__mulsf3>
    40d6:	dc 01       	movw	r26, r24
    40d8:	cb 01       	movw	r24, r22
    40da:	8b a3       	std	Y+35, r24	; 0x23
    40dc:	9c a3       	std	Y+36, r25	; 0x24
    40de:	ad a3       	std	Y+37, r26	; 0x25
    40e0:	be a3       	std	Y+38, r27	; 0x26
	if (__tmp < 1.0)
    40e2:	6b a1       	ldd	r22, Y+35	; 0x23
    40e4:	7c a1       	ldd	r23, Y+36	; 0x24
    40e6:	8d a1       	ldd	r24, Y+37	; 0x25
    40e8:	9e a1       	ldd	r25, Y+38	; 0x26
    40ea:	20 e0       	ldi	r18, 0x00	; 0
    40ec:	30 e0       	ldi	r19, 0x00	; 0
    40ee:	40 e8       	ldi	r20, 0x80	; 128
    40f0:	5f e3       	ldi	r21, 0x3F	; 63
    40f2:	0e 94 02 05 	call	0xa04	; 0xa04 <__ltsf2>
    40f6:	88 23       	and	r24, r24
    40f8:	2c f4       	brge	.+10     	; 0x4104 <LCD_writedata+0x1ec>
		__ticks = 1;
    40fa:	81 e0       	ldi	r24, 0x01	; 1
    40fc:	90 e0       	ldi	r25, 0x00	; 0
    40fe:	9a a3       	std	Y+34, r25	; 0x22
    4100:	89 a3       	std	Y+33, r24	; 0x21
    4102:	3f c0       	rjmp	.+126    	; 0x4182 <LCD_writedata+0x26a>
	else if (__tmp > 65535)
    4104:	6b a1       	ldd	r22, Y+35	; 0x23
    4106:	7c a1       	ldd	r23, Y+36	; 0x24
    4108:	8d a1       	ldd	r24, Y+37	; 0x25
    410a:	9e a1       	ldd	r25, Y+38	; 0x26
    410c:	20 e0       	ldi	r18, 0x00	; 0
    410e:	3f ef       	ldi	r19, 0xFF	; 255
    4110:	4f e7       	ldi	r20, 0x7F	; 127
    4112:	57 e4       	ldi	r21, 0x47	; 71
    4114:	0e 94 a2 04 	call	0x944	; 0x944 <__gtsf2>
    4118:	18 16       	cp	r1, r24
    411a:	4c f5       	brge	.+82     	; 0x416e <LCD_writedata+0x256>
	{
		//	__ticks = requested delay in 1/10 ms
		__ticks = (uint16_t) (__ms * 10.0);
    411c:	6f a1       	ldd	r22, Y+39	; 0x27
    411e:	78 a5       	ldd	r23, Y+40	; 0x28
    4120:	89 a5       	ldd	r24, Y+41	; 0x29
    4122:	9a a5       	ldd	r25, Y+42	; 0x2a
    4124:	20 e0       	ldi	r18, 0x00	; 0
    4126:	30 e0       	ldi	r19, 0x00	; 0
    4128:	40 e2       	ldi	r20, 0x20	; 32
    412a:	51 e4       	ldi	r21, 0x41	; 65
    412c:	0e 94 9c 02 	call	0x538	; 0x538 <__mulsf3>
    4130:	dc 01       	movw	r26, r24
    4132:	cb 01       	movw	r24, r22
    4134:	bc 01       	movw	r22, r24
    4136:	cd 01       	movw	r24, r26
    4138:	0e 94 c6 00 	call	0x18c	; 0x18c <__fixunssfsi>
    413c:	dc 01       	movw	r26, r24
    413e:	cb 01       	movw	r24, r22
    4140:	9a a3       	std	Y+34, r25	; 0x22
    4142:	89 a3       	std	Y+33, r24	; 0x21
    4144:	0f c0       	rjmp	.+30     	; 0x4164 <LCD_writedata+0x24c>
    4146:	80 e9       	ldi	r24, 0x90	; 144
    4148:	91 e0       	ldi	r25, 0x01	; 1
    414a:	98 a3       	std	Y+32, r25	; 0x20
    414c:	8f 8f       	std	Y+31, r24	; 0x1f
    414e:	8f 8d       	ldd	r24, Y+31	; 0x1f
    4150:	98 a1       	ldd	r25, Y+32	; 0x20
    4152:	01 97       	sbiw	r24, 0x01	; 1
    4154:	f1 f7       	brne	.-4      	; 0x4152 <LCD_writedata+0x23a>
    4156:	98 a3       	std	Y+32, r25	; 0x20
    4158:	8f 8f       	std	Y+31, r24	; 0x1f
		while(__ticks)
		{
			// wait 1/10 ms
			_delay_loop_2(((F_CPU) / 4e3) / 10);
			__ticks --;
    415a:	89 a1       	ldd	r24, Y+33	; 0x21
    415c:	9a a1       	ldd	r25, Y+34	; 0x22
    415e:	01 97       	sbiw	r24, 0x01	; 1
    4160:	9a a3       	std	Y+34, r25	; 0x22
    4162:	89 a3       	std	Y+33, r24	; 0x21
		__ticks = 1;
	else if (__tmp > 65535)
	{
		//	__ticks = requested delay in 1/10 ms
		__ticks = (uint16_t) (__ms * 10.0);
		while(__ticks)
    4164:	89 a1       	ldd	r24, Y+33	; 0x21
    4166:	9a a1       	ldd	r25, Y+34	; 0x22
    4168:	00 97       	sbiw	r24, 0x00	; 0
    416a:	69 f7       	brne	.-38     	; 0x4146 <LCD_writedata+0x22e>
    416c:	14 c0       	rjmp	.+40     	; 0x4196 <LCD_writedata+0x27e>
			__ticks --;
		}
		return;
	}
	else
		__ticks = (uint16_t)__tmp;
    416e:	6b a1       	ldd	r22, Y+35	; 0x23
    4170:	7c a1       	ldd	r23, Y+36	; 0x24
    4172:	8d a1       	ldd	r24, Y+37	; 0x25
    4174:	9e a1       	ldd	r25, Y+38	; 0x26
    4176:	0e 94 c6 00 	call	0x18c	; 0x18c <__fixunssfsi>
    417a:	dc 01       	movw	r26, r24
    417c:	cb 01       	movw	r24, r22
    417e:	9a a3       	std	Y+34, r25	; 0x22
    4180:	89 a3       	std	Y+33, r24	; 0x21
    4182:	89 a1       	ldd	r24, Y+33	; 0x21
    4184:	9a a1       	ldd	r25, Y+34	; 0x22
    4186:	9e 8f       	std	Y+30, r25	; 0x1e
    4188:	8d 8f       	std	Y+29, r24	; 0x1d
    418a:	8d 8d       	ldd	r24, Y+29	; 0x1d
    418c:	9e 8d       	ldd	r25, Y+30	; 0x1e
    418e:	01 97       	sbiw	r24, 0x01	; 1
    4190:	f1 f7       	brne	.-4      	; 0x418e <LCD_writedata+0x276>
    4192:	9e 8f       	std	Y+30, r25	; 0x1e
    4194:	8d 8f       	std	Y+29, r24	; 0x1d
	_delay_ms(1);

	//low nibble
	DIO_SetPinValue(LCD_PORT, 3, READ_BIT(LowNibble, 0));
    4196:	8a ad       	ldd	r24, Y+58	; 0x3a
    4198:	98 2f       	mov	r25, r24
    419a:	91 70       	andi	r25, 0x01	; 1
    419c:	81 e0       	ldi	r24, 0x01	; 1
    419e:	63 e0       	ldi	r22, 0x03	; 3
    41a0:	49 2f       	mov	r20, r25
    41a2:	0e 94 ef 13 	call	0x27de	; 0x27de <DIO_SetPinValue>
	DIO_SetPinValue(LCD_PORT, 4, READ_BIT(LowNibble, 1));
    41a6:	8a ad       	ldd	r24, Y+58	; 0x3a
    41a8:	88 2f       	mov	r24, r24
    41aa:	90 e0       	ldi	r25, 0x00	; 0
    41ac:	82 70       	andi	r24, 0x02	; 2
    41ae:	90 70       	andi	r25, 0x00	; 0
    41b0:	95 95       	asr	r25
    41b2:	87 95       	ror	r24
    41b4:	98 2f       	mov	r25, r24
    41b6:	81 e0       	ldi	r24, 0x01	; 1
    41b8:	64 e0       	ldi	r22, 0x04	; 4
    41ba:	49 2f       	mov	r20, r25
    41bc:	0e 94 ef 13 	call	0x27de	; 0x27de <DIO_SetPinValue>
	DIO_SetPinValue(LCD_PORT, 5, READ_BIT(LowNibble, 2));
    41c0:	8a ad       	ldd	r24, Y+58	; 0x3a
    41c2:	88 2f       	mov	r24, r24
    41c4:	90 e0       	ldi	r25, 0x00	; 0
    41c6:	84 70       	andi	r24, 0x04	; 4
    41c8:	90 70       	andi	r25, 0x00	; 0
    41ca:	95 95       	asr	r25
    41cc:	87 95       	ror	r24
    41ce:	95 95       	asr	r25
    41d0:	87 95       	ror	r24
    41d2:	98 2f       	mov	r25, r24
    41d4:	81 e0       	ldi	r24, 0x01	; 1
    41d6:	65 e0       	ldi	r22, 0x05	; 5
    41d8:	49 2f       	mov	r20, r25
    41da:	0e 94 ef 13 	call	0x27de	; 0x27de <DIO_SetPinValue>
	DIO_SetPinValue(LCD_PORT, 6, READ_BIT(LowNibble, 3));
    41de:	8a ad       	ldd	r24, Y+58	; 0x3a
    41e0:	88 2f       	mov	r24, r24
    41e2:	90 e0       	ldi	r25, 0x00	; 0
    41e4:	88 70       	andi	r24, 0x08	; 8
    41e6:	90 70       	andi	r25, 0x00	; 0
    41e8:	95 95       	asr	r25
    41ea:	87 95       	ror	r24
    41ec:	95 95       	asr	r25
    41ee:	87 95       	ror	r24
    41f0:	95 95       	asr	r25
    41f2:	87 95       	ror	r24
    41f4:	98 2f       	mov	r25, r24
    41f6:	81 e0       	ldi	r24, 0x01	; 1
    41f8:	66 e0       	ldi	r22, 0x06	; 6
    41fa:	49 2f       	mov	r20, r25
    41fc:	0e 94 ef 13 	call	0x27de	; 0x27de <DIO_SetPinValue>

	DIO_SetPinValue(RW_PORT, RW_PIN, DIO_LOW);
    4200:	81 e0       	ldi	r24, 0x01	; 1
    4202:	67 e0       	ldi	r22, 0x07	; 7
    4204:	40 e0       	ldi	r20, 0x00	; 0
    4206:	0e 94 ef 13 	call	0x27de	; 0x27de <DIO_SetPinValue>
	DIO_SetPinValue(RS_PORT, RS_PIN, DIO_HIGH);
    420a:	81 e0       	ldi	r24, 0x01	; 1
    420c:	61 e0       	ldi	r22, 0x01	; 1
    420e:	41 e0       	ldi	r20, 0x01	; 1
    4210:	0e 94 ef 13 	call	0x27de	; 0x27de <DIO_SetPinValue>

	DIO_SetPinValue(E_PORT, E_PIN, DIO_HIGH);
    4214:	81 e0       	ldi	r24, 0x01	; 1
    4216:	62 e0       	ldi	r22, 0x02	; 2
    4218:	41 e0       	ldi	r20, 0x01	; 1
    421a:	0e 94 ef 13 	call	0x27de	; 0x27de <DIO_SetPinValue>
    421e:	80 e0       	ldi	r24, 0x00	; 0
    4220:	90 e0       	ldi	r25, 0x00	; 0
    4222:	a0 e8       	ldi	r26, 0x80	; 128
    4224:	bf e3       	ldi	r27, 0x3F	; 63
    4226:	89 8f       	std	Y+25, r24	; 0x19
    4228:	9a 8f       	std	Y+26, r25	; 0x1a
    422a:	ab 8f       	std	Y+27, r26	; 0x1b
    422c:	bc 8f       	std	Y+28, r27	; 0x1c
 */
void
_delay_ms(double __ms)
{
	uint16_t __ticks;
	double __tmp = ((F_CPU) / 4e3) * __ms;
    422e:	69 8d       	ldd	r22, Y+25	; 0x19
    4230:	7a 8d       	ldd	r23, Y+26	; 0x1a
    4232:	8b 8d       	ldd	r24, Y+27	; 0x1b
    4234:	9c 8d       	ldd	r25, Y+28	; 0x1c
    4236:	20 e0       	ldi	r18, 0x00	; 0
    4238:	30 e0       	ldi	r19, 0x00	; 0
    423a:	4a e7       	ldi	r20, 0x7A	; 122
    423c:	55 e4       	ldi	r21, 0x45	; 69
    423e:	0e 94 9c 02 	call	0x538	; 0x538 <__mulsf3>
    4242:	dc 01       	movw	r26, r24
    4244:	cb 01       	movw	r24, r22
    4246:	8d 8b       	std	Y+21, r24	; 0x15
    4248:	9e 8b       	std	Y+22, r25	; 0x16
    424a:	af 8b       	std	Y+23, r26	; 0x17
    424c:	b8 8f       	std	Y+24, r27	; 0x18
	if (__tmp < 1.0)
    424e:	6d 89       	ldd	r22, Y+21	; 0x15
    4250:	7e 89       	ldd	r23, Y+22	; 0x16
    4252:	8f 89       	ldd	r24, Y+23	; 0x17
    4254:	98 8d       	ldd	r25, Y+24	; 0x18
    4256:	20 e0       	ldi	r18, 0x00	; 0
    4258:	30 e0       	ldi	r19, 0x00	; 0
    425a:	40 e8       	ldi	r20, 0x80	; 128
    425c:	5f e3       	ldi	r21, 0x3F	; 63
    425e:	0e 94 02 05 	call	0xa04	; 0xa04 <__ltsf2>
    4262:	88 23       	and	r24, r24
    4264:	2c f4       	brge	.+10     	; 0x4270 <LCD_writedata+0x358>
		__ticks = 1;
    4266:	81 e0       	ldi	r24, 0x01	; 1
    4268:	90 e0       	ldi	r25, 0x00	; 0
    426a:	9c 8b       	std	Y+20, r25	; 0x14
    426c:	8b 8b       	std	Y+19, r24	; 0x13
    426e:	3f c0       	rjmp	.+126    	; 0x42ee <LCD_writedata+0x3d6>
	else if (__tmp > 65535)
    4270:	6d 89       	ldd	r22, Y+21	; 0x15
    4272:	7e 89       	ldd	r23, Y+22	; 0x16
    4274:	8f 89       	ldd	r24, Y+23	; 0x17
    4276:	98 8d       	ldd	r25, Y+24	; 0x18
    4278:	20 e0       	ldi	r18, 0x00	; 0
    427a:	3f ef       	ldi	r19, 0xFF	; 255
    427c:	4f e7       	ldi	r20, 0x7F	; 127
    427e:	57 e4       	ldi	r21, 0x47	; 71
    4280:	0e 94 a2 04 	call	0x944	; 0x944 <__gtsf2>
    4284:	18 16       	cp	r1, r24
    4286:	4c f5       	brge	.+82     	; 0x42da <LCD_writedata+0x3c2>
	{
		//	__ticks = requested delay in 1/10 ms
		__ticks = (uint16_t) (__ms * 10.0);
    4288:	69 8d       	ldd	r22, Y+25	; 0x19
    428a:	7a 8d       	ldd	r23, Y+26	; 0x1a
    428c:	8b 8d       	ldd	r24, Y+27	; 0x1b
    428e:	9c 8d       	ldd	r25, Y+28	; 0x1c
    4290:	20 e0       	ldi	r18, 0x00	; 0
    4292:	30 e0       	ldi	r19, 0x00	; 0
    4294:	40 e2       	ldi	r20, 0x20	; 32
    4296:	51 e4       	ldi	r21, 0x41	; 65
    4298:	0e 94 9c 02 	call	0x538	; 0x538 <__mulsf3>
    429c:	dc 01       	movw	r26, r24
    429e:	cb 01       	movw	r24, r22
    42a0:	bc 01       	movw	r22, r24
    42a2:	cd 01       	movw	r24, r26
    42a4:	0e 94 c6 00 	call	0x18c	; 0x18c <__fixunssfsi>
    42a8:	dc 01       	movw	r26, r24
    42aa:	cb 01       	movw	r24, r22
    42ac:	9c 8b       	std	Y+20, r25	; 0x14
    42ae:	8b 8b       	std	Y+19, r24	; 0x13
    42b0:	0f c0       	rjmp	.+30     	; 0x42d0 <LCD_writedata+0x3b8>
    42b2:	80 e9       	ldi	r24, 0x90	; 144
    42b4:	91 e0       	ldi	r25, 0x01	; 1
    42b6:	9a 8b       	std	Y+18, r25	; 0x12
    42b8:	89 8b       	std	Y+17, r24	; 0x11
    42ba:	89 89       	ldd	r24, Y+17	; 0x11
    42bc:	9a 89       	ldd	r25, Y+18	; 0x12
    42be:	01 97       	sbiw	r24, 0x01	; 1
    42c0:	f1 f7       	brne	.-4      	; 0x42be <LCD_writedata+0x3a6>
    42c2:	9a 8b       	std	Y+18, r25	; 0x12
    42c4:	89 8b       	std	Y+17, r24	; 0x11
		while(__ticks)
		{
			// wait 1/10 ms
			_delay_loop_2(((F_CPU) / 4e3) / 10);
			__ticks --;
    42c6:	8b 89       	ldd	r24, Y+19	; 0x13
    42c8:	9c 89       	ldd	r25, Y+20	; 0x14
    42ca:	01 97       	sbiw	r24, 0x01	; 1
    42cc:	9c 8b       	std	Y+20, r25	; 0x14
    42ce:	8b 8b       	std	Y+19, r24	; 0x13
		__ticks = 1;
	else if (__tmp > 65535)
	{
		//	__ticks = requested delay in 1/10 ms
		__ticks = (uint16_t) (__ms * 10.0);
		while(__ticks)
    42d0:	8b 89       	ldd	r24, Y+19	; 0x13
    42d2:	9c 89       	ldd	r25, Y+20	; 0x14
    42d4:	00 97       	sbiw	r24, 0x00	; 0
    42d6:	69 f7       	brne	.-38     	; 0x42b2 <LCD_writedata+0x39a>
    42d8:	14 c0       	rjmp	.+40     	; 0x4302 <LCD_writedata+0x3ea>
			__ticks --;
		}
		return;
	}
	else
		__ticks = (uint16_t)__tmp;
    42da:	6d 89       	ldd	r22, Y+21	; 0x15
    42dc:	7e 89       	ldd	r23, Y+22	; 0x16
    42de:	8f 89       	ldd	r24, Y+23	; 0x17
    42e0:	98 8d       	ldd	r25, Y+24	; 0x18
    42e2:	0e 94 c6 00 	call	0x18c	; 0x18c <__fixunssfsi>
    42e6:	dc 01       	movw	r26, r24
    42e8:	cb 01       	movw	r24, r22
    42ea:	9c 8b       	std	Y+20, r25	; 0x14
    42ec:	8b 8b       	std	Y+19, r24	; 0x13
    42ee:	8b 89       	ldd	r24, Y+19	; 0x13
    42f0:	9c 89       	ldd	r25, Y+20	; 0x14
    42f2:	98 8b       	std	Y+16, r25	; 0x10
    42f4:	8f 87       	std	Y+15, r24	; 0x0f
    42f6:	8f 85       	ldd	r24, Y+15	; 0x0f
    42f8:	98 89       	ldd	r25, Y+16	; 0x10
    42fa:	01 97       	sbiw	r24, 0x01	; 1
    42fc:	f1 f7       	brne	.-4      	; 0x42fa <LCD_writedata+0x3e2>
    42fe:	98 8b       	std	Y+16, r25	; 0x10
    4300:	8f 87       	std	Y+15, r24	; 0x0f
	_delay_ms(1);
	DIO_SetPinValue(E_PORT, E_PIN, DIO_LOW);
    4302:	81 e0       	ldi	r24, 0x01	; 1
    4304:	62 e0       	ldi	r22, 0x02	; 2
    4306:	40 e0       	ldi	r20, 0x00	; 0
    4308:	0e 94 ef 13 	call	0x27de	; 0x27de <DIO_SetPinValue>
    430c:	80 e0       	ldi	r24, 0x00	; 0
    430e:	90 e0       	ldi	r25, 0x00	; 0
    4310:	a0 e8       	ldi	r26, 0x80	; 128
    4312:	bf e3       	ldi	r27, 0x3F	; 63
    4314:	8b 87       	std	Y+11, r24	; 0x0b
    4316:	9c 87       	std	Y+12, r25	; 0x0c
    4318:	ad 87       	std	Y+13, r26	; 0x0d
    431a:	be 87       	std	Y+14, r27	; 0x0e
 */
void
_delay_ms(double __ms)
{
	uint16_t __ticks;
	double __tmp = ((F_CPU) / 4e3) * __ms;
    431c:	6b 85       	ldd	r22, Y+11	; 0x0b
    431e:	7c 85       	ldd	r23, Y+12	; 0x0c
    4320:	8d 85       	ldd	r24, Y+13	; 0x0d
    4322:	9e 85       	ldd	r25, Y+14	; 0x0e
    4324:	20 e0       	ldi	r18, 0x00	; 0
    4326:	30 e0       	ldi	r19, 0x00	; 0
    4328:	4a e7       	ldi	r20, 0x7A	; 122
    432a:	55 e4       	ldi	r21, 0x45	; 69
    432c:	0e 94 9c 02 	call	0x538	; 0x538 <__mulsf3>
    4330:	dc 01       	movw	r26, r24
    4332:	cb 01       	movw	r24, r22
    4334:	8f 83       	std	Y+7, r24	; 0x07
    4336:	98 87       	std	Y+8, r25	; 0x08
    4338:	a9 87       	std	Y+9, r26	; 0x09
    433a:	ba 87       	std	Y+10, r27	; 0x0a
	if (__tmp < 1.0)
    433c:	6f 81       	ldd	r22, Y+7	; 0x07
    433e:	78 85       	ldd	r23, Y+8	; 0x08
    4340:	89 85       	ldd	r24, Y+9	; 0x09
    4342:	9a 85       	ldd	r25, Y+10	; 0x0a
    4344:	20 e0       	ldi	r18, 0x00	; 0
    4346:	30 e0       	ldi	r19, 0x00	; 0
    4348:	40 e8       	ldi	r20, 0x80	; 128
    434a:	5f e3       	ldi	r21, 0x3F	; 63
    434c:	0e 94 02 05 	call	0xa04	; 0xa04 <__ltsf2>
    4350:	88 23       	and	r24, r24
    4352:	2c f4       	brge	.+10     	; 0x435e <LCD_writedata+0x446>
		__ticks = 1;
    4354:	81 e0       	ldi	r24, 0x01	; 1
    4356:	90 e0       	ldi	r25, 0x00	; 0
    4358:	9e 83       	std	Y+6, r25	; 0x06
    435a:	8d 83       	std	Y+5, r24	; 0x05
    435c:	3f c0       	rjmp	.+126    	; 0x43dc <LCD_writedata+0x4c4>
	else if (__tmp > 65535)
    435e:	6f 81       	ldd	r22, Y+7	; 0x07
    4360:	78 85       	ldd	r23, Y+8	; 0x08
    4362:	89 85       	ldd	r24, Y+9	; 0x09
    4364:	9a 85       	ldd	r25, Y+10	; 0x0a
    4366:	20 e0       	ldi	r18, 0x00	; 0
    4368:	3f ef       	ldi	r19, 0xFF	; 255
    436a:	4f e7       	ldi	r20, 0x7F	; 127
    436c:	57 e4       	ldi	r21, 0x47	; 71
    436e:	0e 94 a2 04 	call	0x944	; 0x944 <__gtsf2>
    4372:	18 16       	cp	r1, r24
    4374:	4c f5       	brge	.+82     	; 0x43c8 <LCD_writedata+0x4b0>
	{
		//	__ticks = requested delay in 1/10 ms
		__ticks = (uint16_t) (__ms * 10.0);
    4376:	6b 85       	ldd	r22, Y+11	; 0x0b
    4378:	7c 85       	ldd	r23, Y+12	; 0x0c
    437a:	8d 85       	ldd	r24, Y+13	; 0x0d
    437c:	9e 85       	ldd	r25, Y+14	; 0x0e
    437e:	20 e0       	ldi	r18, 0x00	; 0
    4380:	30 e0       	ldi	r19, 0x00	; 0
    4382:	40 e2       	ldi	r20, 0x20	; 32
    4384:	51 e4       	ldi	r21, 0x41	; 65
    4386:	0e 94 9c 02 	call	0x538	; 0x538 <__mulsf3>
    438a:	dc 01       	movw	r26, r24
    438c:	cb 01       	movw	r24, r22
    438e:	bc 01       	movw	r22, r24
    4390:	cd 01       	movw	r24, r26
    4392:	0e 94 c6 00 	call	0x18c	; 0x18c <__fixunssfsi>
    4396:	dc 01       	movw	r26, r24
    4398:	cb 01       	movw	r24, r22
    439a:	9e 83       	std	Y+6, r25	; 0x06
    439c:	8d 83       	std	Y+5, r24	; 0x05
    439e:	0f c0       	rjmp	.+30     	; 0x43be <LCD_writedata+0x4a6>
    43a0:	80 e9       	ldi	r24, 0x90	; 144
    43a2:	91 e0       	ldi	r25, 0x01	; 1
    43a4:	9c 83       	std	Y+4, r25	; 0x04
    43a6:	8b 83       	std	Y+3, r24	; 0x03
    43a8:	8b 81       	ldd	r24, Y+3	; 0x03
    43aa:	9c 81       	ldd	r25, Y+4	; 0x04
    43ac:	01 97       	sbiw	r24, 0x01	; 1
    43ae:	f1 f7       	brne	.-4      	; 0x43ac <LCD_writedata+0x494>
    43b0:	9c 83       	std	Y+4, r25	; 0x04
    43b2:	8b 83       	std	Y+3, r24	; 0x03
		while(__ticks)
		{
			// wait 1/10 ms
			_delay_loop_2(((F_CPU) / 4e3) / 10);
			__ticks --;
    43b4:	8d 81       	ldd	r24, Y+5	; 0x05
    43b6:	9e 81       	ldd	r25, Y+6	; 0x06
    43b8:	01 97       	sbiw	r24, 0x01	; 1
    43ba:	9e 83       	std	Y+6, r25	; 0x06
    43bc:	8d 83       	std	Y+5, r24	; 0x05
		__ticks = 1;
	else if (__tmp > 65535)
	{
		//	__ticks = requested delay in 1/10 ms
		__ticks = (uint16_t) (__ms * 10.0);
		while(__ticks)
    43be:	8d 81       	ldd	r24, Y+5	; 0x05
    43c0:	9e 81       	ldd	r25, Y+6	; 0x06
    43c2:	00 97       	sbiw	r24, 0x00	; 0
    43c4:	69 f7       	brne	.-38     	; 0x43a0 <LCD_writedata+0x488>
    43c6:	14 c0       	rjmp	.+40     	; 0x43f0 <LCD_writedata+0x4d8>
			__ticks --;
		}
		return;
	}
	else
		__ticks = (uint16_t)__tmp;
    43c8:	6f 81       	ldd	r22, Y+7	; 0x07
    43ca:	78 85       	ldd	r23, Y+8	; 0x08
    43cc:	89 85       	ldd	r24, Y+9	; 0x09
    43ce:	9a 85       	ldd	r25, Y+10	; 0x0a
    43d0:	0e 94 c6 00 	call	0x18c	; 0x18c <__fixunssfsi>
    43d4:	dc 01       	movw	r26, r24
    43d6:	cb 01       	movw	r24, r22
    43d8:	9e 83       	std	Y+6, r25	; 0x06
    43da:	8d 83       	std	Y+5, r24	; 0x05
    43dc:	8d 81       	ldd	r24, Y+5	; 0x05
    43de:	9e 81       	ldd	r25, Y+6	; 0x06
    43e0:	9a 83       	std	Y+2, r25	; 0x02
    43e2:	89 83       	std	Y+1, r24	; 0x01
    43e4:	89 81       	ldd	r24, Y+1	; 0x01
    43e6:	9a 81       	ldd	r25, Y+2	; 0x02
    43e8:	01 97       	sbiw	r24, 0x01	; 1
    43ea:	f1 f7       	brne	.-4      	; 0x43e8 <LCD_writedata+0x4d0>
    43ec:	9a 83       	std	Y+2, r25	; 0x02
    43ee:	89 83       	std	Y+1, r24	; 0x01
	_delay_ms(1);

#endif
}
    43f0:	eb 96       	adiw	r28, 0x3b	; 59
    43f2:	0f b6       	in	r0, 0x3f	; 63
    43f4:	f8 94       	cli
    43f6:	de bf       	out	0x3e, r29	; 62
    43f8:	0f be       	out	0x3f, r0	; 63
    43fa:	cd bf       	out	0x3d, r28	; 61
    43fc:	cf 91       	pop	r28
    43fe:	df 91       	pop	r29
    4400:	08 95       	ret

00004402 <LCD_writecmd>:
void LCD_writecmd(u8 cmd) {
    4402:	df 93       	push	r29
    4404:	cf 93       	push	r28
    4406:	cd b7       	in	r28, 0x3d	; 61
    4408:	de b7       	in	r29, 0x3e	; 62
    440a:	eb 97       	sbiw	r28, 0x3b	; 59
    440c:	0f b6       	in	r0, 0x3f	; 63
    440e:	f8 94       	cli
    4410:	de bf       	out	0x3e, r29	; 62
    4412:	0f be       	out	0x3f, r0	; 63
    4414:	cd bf       	out	0x3d, r28	; 61
    4416:	8b af       	std	Y+59, r24	; 0x3b
	DIO_SetPinValue(E_PORT, E_PIN, DIO_LOW);
	_delay_ms(1);

#else if MODE == 4
	//send data by 2 steps (higher 4 then lower 4)
	u8 LowNibble = cmd & 0x0f;
    4418:	8b ad       	ldd	r24, Y+59	; 0x3b
    441a:	8f 70       	andi	r24, 0x0F	; 15
    441c:	8a af       	std	Y+58, r24	; 0x3a
	u8 HighNibble = cmd >> 4;
    441e:	8b ad       	ldd	r24, Y+59	; 0x3b
    4420:	82 95       	swap	r24
    4422:	8f 70       	andi	r24, 0x0F	; 15
    4424:	89 af       	std	Y+57, r24	; 0x39

	DIO_SetPinValue(LCD_PORT, 3, READ_BIT(HighNibble, 0));
    4426:	89 ad       	ldd	r24, Y+57	; 0x39
    4428:	98 2f       	mov	r25, r24
    442a:	91 70       	andi	r25, 0x01	; 1
    442c:	81 e0       	ldi	r24, 0x01	; 1
    442e:	63 e0       	ldi	r22, 0x03	; 3
    4430:	49 2f       	mov	r20, r25
    4432:	0e 94 ef 13 	call	0x27de	; 0x27de <DIO_SetPinValue>
	DIO_SetPinValue(LCD_PORT, 4, READ_BIT(HighNibble, 1));
    4436:	89 ad       	ldd	r24, Y+57	; 0x39
    4438:	88 2f       	mov	r24, r24
    443a:	90 e0       	ldi	r25, 0x00	; 0
    443c:	82 70       	andi	r24, 0x02	; 2
    443e:	90 70       	andi	r25, 0x00	; 0
    4440:	95 95       	asr	r25
    4442:	87 95       	ror	r24
    4444:	98 2f       	mov	r25, r24
    4446:	81 e0       	ldi	r24, 0x01	; 1
    4448:	64 e0       	ldi	r22, 0x04	; 4
    444a:	49 2f       	mov	r20, r25
    444c:	0e 94 ef 13 	call	0x27de	; 0x27de <DIO_SetPinValue>
	DIO_SetPinValue(LCD_PORT, 5, READ_BIT(HighNibble, 2));
    4450:	89 ad       	ldd	r24, Y+57	; 0x39
    4452:	88 2f       	mov	r24, r24
    4454:	90 e0       	ldi	r25, 0x00	; 0
    4456:	84 70       	andi	r24, 0x04	; 4
    4458:	90 70       	andi	r25, 0x00	; 0
    445a:	95 95       	asr	r25
    445c:	87 95       	ror	r24
    445e:	95 95       	asr	r25
    4460:	87 95       	ror	r24
    4462:	98 2f       	mov	r25, r24
    4464:	81 e0       	ldi	r24, 0x01	; 1
    4466:	65 e0       	ldi	r22, 0x05	; 5
    4468:	49 2f       	mov	r20, r25
    446a:	0e 94 ef 13 	call	0x27de	; 0x27de <DIO_SetPinValue>
	DIO_SetPinValue(LCD_PORT, 6, READ_BIT(HighNibble, 3));
    446e:	89 ad       	ldd	r24, Y+57	; 0x39
    4470:	88 2f       	mov	r24, r24
    4472:	90 e0       	ldi	r25, 0x00	; 0
    4474:	88 70       	andi	r24, 0x08	; 8
    4476:	90 70       	andi	r25, 0x00	; 0
    4478:	95 95       	asr	r25
    447a:	87 95       	ror	r24
    447c:	95 95       	asr	r25
    447e:	87 95       	ror	r24
    4480:	95 95       	asr	r25
    4482:	87 95       	ror	r24
    4484:	98 2f       	mov	r25, r24
    4486:	81 e0       	ldi	r24, 0x01	; 1
    4488:	66 e0       	ldi	r22, 0x06	; 6
    448a:	49 2f       	mov	r20, r25
    448c:	0e 94 ef 13 	call	0x27de	; 0x27de <DIO_SetPinValue>

	DIO_SetPinValue(RS_PORT, RS_PIN, DIO_LOW);
    4490:	81 e0       	ldi	r24, 0x01	; 1
    4492:	61 e0       	ldi	r22, 0x01	; 1
    4494:	40 e0       	ldi	r20, 0x00	; 0
    4496:	0e 94 ef 13 	call	0x27de	; 0x27de <DIO_SetPinValue>
	DIO_SetPinValue(E_PORT, E_PIN, DIO_HIGH);
    449a:	81 e0       	ldi	r24, 0x01	; 1
    449c:	62 e0       	ldi	r22, 0x02	; 2
    449e:	41 e0       	ldi	r20, 0x01	; 1
    44a0:	0e 94 ef 13 	call	0x27de	; 0x27de <DIO_SetPinValue>
    44a4:	80 e0       	ldi	r24, 0x00	; 0
    44a6:	90 e0       	ldi	r25, 0x00	; 0
    44a8:	a0 e8       	ldi	r26, 0x80	; 128
    44aa:	bf e3       	ldi	r27, 0x3F	; 63
    44ac:	8d ab       	std	Y+53, r24	; 0x35
    44ae:	9e ab       	std	Y+54, r25	; 0x36
    44b0:	af ab       	std	Y+55, r26	; 0x37
    44b2:	b8 af       	std	Y+56, r27	; 0x38
 */
void
_delay_ms(double __ms)
{
	uint16_t __ticks;
	double __tmp = ((F_CPU) / 4e3) * __ms;
    44b4:	6d a9       	ldd	r22, Y+53	; 0x35
    44b6:	7e a9       	ldd	r23, Y+54	; 0x36
    44b8:	8f a9       	ldd	r24, Y+55	; 0x37
    44ba:	98 ad       	ldd	r25, Y+56	; 0x38
    44bc:	20 e0       	ldi	r18, 0x00	; 0
    44be:	30 e0       	ldi	r19, 0x00	; 0
    44c0:	4a e7       	ldi	r20, 0x7A	; 122
    44c2:	55 e4       	ldi	r21, 0x45	; 69
    44c4:	0e 94 9c 02 	call	0x538	; 0x538 <__mulsf3>
    44c8:	dc 01       	movw	r26, r24
    44ca:	cb 01       	movw	r24, r22
    44cc:	89 ab       	std	Y+49, r24	; 0x31
    44ce:	9a ab       	std	Y+50, r25	; 0x32
    44d0:	ab ab       	std	Y+51, r26	; 0x33
    44d2:	bc ab       	std	Y+52, r27	; 0x34
	if (__tmp < 1.0)
    44d4:	69 a9       	ldd	r22, Y+49	; 0x31
    44d6:	7a a9       	ldd	r23, Y+50	; 0x32
    44d8:	8b a9       	ldd	r24, Y+51	; 0x33
    44da:	9c a9       	ldd	r25, Y+52	; 0x34
    44dc:	20 e0       	ldi	r18, 0x00	; 0
    44de:	30 e0       	ldi	r19, 0x00	; 0
    44e0:	40 e8       	ldi	r20, 0x80	; 128
    44e2:	5f e3       	ldi	r21, 0x3F	; 63
    44e4:	0e 94 02 05 	call	0xa04	; 0xa04 <__ltsf2>
    44e8:	88 23       	and	r24, r24
    44ea:	2c f4       	brge	.+10     	; 0x44f6 <LCD_writecmd+0xf4>
		__ticks = 1;
    44ec:	81 e0       	ldi	r24, 0x01	; 1
    44ee:	90 e0       	ldi	r25, 0x00	; 0
    44f0:	98 ab       	std	Y+48, r25	; 0x30
    44f2:	8f a7       	std	Y+47, r24	; 0x2f
    44f4:	3f c0       	rjmp	.+126    	; 0x4574 <LCD_writecmd+0x172>
	else if (__tmp > 65535)
    44f6:	69 a9       	ldd	r22, Y+49	; 0x31
    44f8:	7a a9       	ldd	r23, Y+50	; 0x32
    44fa:	8b a9       	ldd	r24, Y+51	; 0x33
    44fc:	9c a9       	ldd	r25, Y+52	; 0x34
    44fe:	20 e0       	ldi	r18, 0x00	; 0
    4500:	3f ef       	ldi	r19, 0xFF	; 255
    4502:	4f e7       	ldi	r20, 0x7F	; 127
    4504:	57 e4       	ldi	r21, 0x47	; 71
    4506:	0e 94 a2 04 	call	0x944	; 0x944 <__gtsf2>
    450a:	18 16       	cp	r1, r24
    450c:	4c f5       	brge	.+82     	; 0x4560 <LCD_writecmd+0x15e>
	{
		//	__ticks = requested delay in 1/10 ms
		__ticks = (uint16_t) (__ms * 10.0);
    450e:	6d a9       	ldd	r22, Y+53	; 0x35
    4510:	7e a9       	ldd	r23, Y+54	; 0x36
    4512:	8f a9       	ldd	r24, Y+55	; 0x37
    4514:	98 ad       	ldd	r25, Y+56	; 0x38
    4516:	20 e0       	ldi	r18, 0x00	; 0
    4518:	30 e0       	ldi	r19, 0x00	; 0
    451a:	40 e2       	ldi	r20, 0x20	; 32
    451c:	51 e4       	ldi	r21, 0x41	; 65
    451e:	0e 94 9c 02 	call	0x538	; 0x538 <__mulsf3>
    4522:	dc 01       	movw	r26, r24
    4524:	cb 01       	movw	r24, r22
    4526:	bc 01       	movw	r22, r24
    4528:	cd 01       	movw	r24, r26
    452a:	0e 94 c6 00 	call	0x18c	; 0x18c <__fixunssfsi>
    452e:	dc 01       	movw	r26, r24
    4530:	cb 01       	movw	r24, r22
    4532:	98 ab       	std	Y+48, r25	; 0x30
    4534:	8f a7       	std	Y+47, r24	; 0x2f
    4536:	0f c0       	rjmp	.+30     	; 0x4556 <LCD_writecmd+0x154>
    4538:	80 e9       	ldi	r24, 0x90	; 144
    453a:	91 e0       	ldi	r25, 0x01	; 1
    453c:	9e a7       	std	Y+46, r25	; 0x2e
    453e:	8d a7       	std	Y+45, r24	; 0x2d
    4540:	8d a5       	ldd	r24, Y+45	; 0x2d
    4542:	9e a5       	ldd	r25, Y+46	; 0x2e
    4544:	01 97       	sbiw	r24, 0x01	; 1
    4546:	f1 f7       	brne	.-4      	; 0x4544 <LCD_writecmd+0x142>
    4548:	9e a7       	std	Y+46, r25	; 0x2e
    454a:	8d a7       	std	Y+45, r24	; 0x2d
		while(__ticks)
		{
			// wait 1/10 ms
			_delay_loop_2(((F_CPU) / 4e3) / 10);
			__ticks --;
    454c:	8f a5       	ldd	r24, Y+47	; 0x2f
    454e:	98 a9       	ldd	r25, Y+48	; 0x30
    4550:	01 97       	sbiw	r24, 0x01	; 1
    4552:	98 ab       	std	Y+48, r25	; 0x30
    4554:	8f a7       	std	Y+47, r24	; 0x2f
		__ticks = 1;
	else if (__tmp > 65535)
	{
		//	__ticks = requested delay in 1/10 ms
		__ticks = (uint16_t) (__ms * 10.0);
		while(__ticks)
    4556:	8f a5       	ldd	r24, Y+47	; 0x2f
    4558:	98 a9       	ldd	r25, Y+48	; 0x30
    455a:	00 97       	sbiw	r24, 0x00	; 0
    455c:	69 f7       	brne	.-38     	; 0x4538 <LCD_writecmd+0x136>
    455e:	14 c0       	rjmp	.+40     	; 0x4588 <LCD_writecmd+0x186>
			__ticks --;
		}
		return;
	}
	else
		__ticks = (uint16_t)__tmp;
    4560:	69 a9       	ldd	r22, Y+49	; 0x31
    4562:	7a a9       	ldd	r23, Y+50	; 0x32
    4564:	8b a9       	ldd	r24, Y+51	; 0x33
    4566:	9c a9       	ldd	r25, Y+52	; 0x34
    4568:	0e 94 c6 00 	call	0x18c	; 0x18c <__fixunssfsi>
    456c:	dc 01       	movw	r26, r24
    456e:	cb 01       	movw	r24, r22
    4570:	98 ab       	std	Y+48, r25	; 0x30
    4572:	8f a7       	std	Y+47, r24	; 0x2f
    4574:	8f a5       	ldd	r24, Y+47	; 0x2f
    4576:	98 a9       	ldd	r25, Y+48	; 0x30
    4578:	9c a7       	std	Y+44, r25	; 0x2c
    457a:	8b a7       	std	Y+43, r24	; 0x2b
    457c:	8b a5       	ldd	r24, Y+43	; 0x2b
    457e:	9c a5       	ldd	r25, Y+44	; 0x2c
    4580:	01 97       	sbiw	r24, 0x01	; 1
    4582:	f1 f7       	brne	.-4      	; 0x4580 <LCD_writecmd+0x17e>
    4584:	9c a7       	std	Y+44, r25	; 0x2c
    4586:	8b a7       	std	Y+43, r24	; 0x2b
	_delay_ms(1);
	DIO_SetPinValue(E_PORT, E_PIN, DIO_LOW);
    4588:	81 e0       	ldi	r24, 0x01	; 1
    458a:	62 e0       	ldi	r22, 0x02	; 2
    458c:	40 e0       	ldi	r20, 0x00	; 0
    458e:	0e 94 ef 13 	call	0x27de	; 0x27de <DIO_SetPinValue>
    4592:	80 e0       	ldi	r24, 0x00	; 0
    4594:	90 e0       	ldi	r25, 0x00	; 0
    4596:	a0 e8       	ldi	r26, 0x80	; 128
    4598:	bf e3       	ldi	r27, 0x3F	; 63
    459a:	8f a3       	std	Y+39, r24	; 0x27
    459c:	98 a7       	std	Y+40, r25	; 0x28
    459e:	a9 a7       	std	Y+41, r26	; 0x29
    45a0:	ba a7       	std	Y+42, r27	; 0x2a
 */
void
_delay_ms(double __ms)
{
	uint16_t __ticks;
	double __tmp = ((F_CPU) / 4e3) * __ms;
    45a2:	6f a1       	ldd	r22, Y+39	; 0x27
    45a4:	78 a5       	ldd	r23, Y+40	; 0x28
    45a6:	89 a5       	ldd	r24, Y+41	; 0x29
    45a8:	9a a5       	ldd	r25, Y+42	; 0x2a
    45aa:	20 e0       	ldi	r18, 0x00	; 0
    45ac:	30 e0       	ldi	r19, 0x00	; 0
    45ae:	4a e7       	ldi	r20, 0x7A	; 122
    45b0:	55 e4       	ldi	r21, 0x45	; 69
    45b2:	0e 94 9c 02 	call	0x538	; 0x538 <__mulsf3>
    45b6:	dc 01       	movw	r26, r24
    45b8:	cb 01       	movw	r24, r22
    45ba:	8b a3       	std	Y+35, r24	; 0x23
    45bc:	9c a3       	std	Y+36, r25	; 0x24
    45be:	ad a3       	std	Y+37, r26	; 0x25
    45c0:	be a3       	std	Y+38, r27	; 0x26
	if (__tmp < 1.0)
    45c2:	6b a1       	ldd	r22, Y+35	; 0x23
    45c4:	7c a1       	ldd	r23, Y+36	; 0x24
    45c6:	8d a1       	ldd	r24, Y+37	; 0x25
    45c8:	9e a1       	ldd	r25, Y+38	; 0x26
    45ca:	20 e0       	ldi	r18, 0x00	; 0
    45cc:	30 e0       	ldi	r19, 0x00	; 0
    45ce:	40 e8       	ldi	r20, 0x80	; 128
    45d0:	5f e3       	ldi	r21, 0x3F	; 63
    45d2:	0e 94 02 05 	call	0xa04	; 0xa04 <__ltsf2>
    45d6:	88 23       	and	r24, r24
    45d8:	2c f4       	brge	.+10     	; 0x45e4 <LCD_writecmd+0x1e2>
		__ticks = 1;
    45da:	81 e0       	ldi	r24, 0x01	; 1
    45dc:	90 e0       	ldi	r25, 0x00	; 0
    45de:	9a a3       	std	Y+34, r25	; 0x22
    45e0:	89 a3       	std	Y+33, r24	; 0x21
    45e2:	3f c0       	rjmp	.+126    	; 0x4662 <LCD_writecmd+0x260>
	else if (__tmp > 65535)
    45e4:	6b a1       	ldd	r22, Y+35	; 0x23
    45e6:	7c a1       	ldd	r23, Y+36	; 0x24
    45e8:	8d a1       	ldd	r24, Y+37	; 0x25
    45ea:	9e a1       	ldd	r25, Y+38	; 0x26
    45ec:	20 e0       	ldi	r18, 0x00	; 0
    45ee:	3f ef       	ldi	r19, 0xFF	; 255
    45f0:	4f e7       	ldi	r20, 0x7F	; 127
    45f2:	57 e4       	ldi	r21, 0x47	; 71
    45f4:	0e 94 a2 04 	call	0x944	; 0x944 <__gtsf2>
    45f8:	18 16       	cp	r1, r24
    45fa:	4c f5       	brge	.+82     	; 0x464e <LCD_writecmd+0x24c>
	{
		//	__ticks = requested delay in 1/10 ms
		__ticks = (uint16_t) (__ms * 10.0);
    45fc:	6f a1       	ldd	r22, Y+39	; 0x27
    45fe:	78 a5       	ldd	r23, Y+40	; 0x28
    4600:	89 a5       	ldd	r24, Y+41	; 0x29
    4602:	9a a5       	ldd	r25, Y+42	; 0x2a
    4604:	20 e0       	ldi	r18, 0x00	; 0
    4606:	30 e0       	ldi	r19, 0x00	; 0
    4608:	40 e2       	ldi	r20, 0x20	; 32
    460a:	51 e4       	ldi	r21, 0x41	; 65
    460c:	0e 94 9c 02 	call	0x538	; 0x538 <__mulsf3>
    4610:	dc 01       	movw	r26, r24
    4612:	cb 01       	movw	r24, r22
    4614:	bc 01       	movw	r22, r24
    4616:	cd 01       	movw	r24, r26
    4618:	0e 94 c6 00 	call	0x18c	; 0x18c <__fixunssfsi>
    461c:	dc 01       	movw	r26, r24
    461e:	cb 01       	movw	r24, r22
    4620:	9a a3       	std	Y+34, r25	; 0x22
    4622:	89 a3       	std	Y+33, r24	; 0x21
    4624:	0f c0       	rjmp	.+30     	; 0x4644 <LCD_writecmd+0x242>
    4626:	80 e9       	ldi	r24, 0x90	; 144
    4628:	91 e0       	ldi	r25, 0x01	; 1
    462a:	98 a3       	std	Y+32, r25	; 0x20
    462c:	8f 8f       	std	Y+31, r24	; 0x1f
    462e:	8f 8d       	ldd	r24, Y+31	; 0x1f
    4630:	98 a1       	ldd	r25, Y+32	; 0x20
    4632:	01 97       	sbiw	r24, 0x01	; 1
    4634:	f1 f7       	brne	.-4      	; 0x4632 <LCD_writecmd+0x230>
    4636:	98 a3       	std	Y+32, r25	; 0x20
    4638:	8f 8f       	std	Y+31, r24	; 0x1f
		while(__ticks)
		{
			// wait 1/10 ms
			_delay_loop_2(((F_CPU) / 4e3) / 10);
			__ticks --;
    463a:	89 a1       	ldd	r24, Y+33	; 0x21
    463c:	9a a1       	ldd	r25, Y+34	; 0x22
    463e:	01 97       	sbiw	r24, 0x01	; 1
    4640:	9a a3       	std	Y+34, r25	; 0x22
    4642:	89 a3       	std	Y+33, r24	; 0x21
		__ticks = 1;
	else if (__tmp > 65535)
	{
		//	__ticks = requested delay in 1/10 ms
		__ticks = (uint16_t) (__ms * 10.0);
		while(__ticks)
    4644:	89 a1       	ldd	r24, Y+33	; 0x21
    4646:	9a a1       	ldd	r25, Y+34	; 0x22
    4648:	00 97       	sbiw	r24, 0x00	; 0
    464a:	69 f7       	brne	.-38     	; 0x4626 <LCD_writecmd+0x224>
    464c:	14 c0       	rjmp	.+40     	; 0x4676 <LCD_writecmd+0x274>
			__ticks --;
		}
		return;
	}
	else
		__ticks = (uint16_t)__tmp;
    464e:	6b a1       	ldd	r22, Y+35	; 0x23
    4650:	7c a1       	ldd	r23, Y+36	; 0x24
    4652:	8d a1       	ldd	r24, Y+37	; 0x25
    4654:	9e a1       	ldd	r25, Y+38	; 0x26
    4656:	0e 94 c6 00 	call	0x18c	; 0x18c <__fixunssfsi>
    465a:	dc 01       	movw	r26, r24
    465c:	cb 01       	movw	r24, r22
    465e:	9a a3       	std	Y+34, r25	; 0x22
    4660:	89 a3       	std	Y+33, r24	; 0x21
    4662:	89 a1       	ldd	r24, Y+33	; 0x21
    4664:	9a a1       	ldd	r25, Y+34	; 0x22
    4666:	9e 8f       	std	Y+30, r25	; 0x1e
    4668:	8d 8f       	std	Y+29, r24	; 0x1d
    466a:	8d 8d       	ldd	r24, Y+29	; 0x1d
    466c:	9e 8d       	ldd	r25, Y+30	; 0x1e
    466e:	01 97       	sbiw	r24, 0x01	; 1
    4670:	f1 f7       	brne	.-4      	; 0x466e <LCD_writecmd+0x26c>
    4672:	9e 8f       	std	Y+30, r25	; 0x1e
    4674:	8d 8f       	std	Y+29, r24	; 0x1d
	_delay_ms(1);


	DIO_SetPinValue(LCD_PORT, 3, READ_BIT(LowNibble, 0));
    4676:	8a ad       	ldd	r24, Y+58	; 0x3a
    4678:	98 2f       	mov	r25, r24
    467a:	91 70       	andi	r25, 0x01	; 1
    467c:	81 e0       	ldi	r24, 0x01	; 1
    467e:	63 e0       	ldi	r22, 0x03	; 3
    4680:	49 2f       	mov	r20, r25
    4682:	0e 94 ef 13 	call	0x27de	; 0x27de <DIO_SetPinValue>
	DIO_SetPinValue(LCD_PORT, 4, READ_BIT(LowNibble, 1));
    4686:	8a ad       	ldd	r24, Y+58	; 0x3a
    4688:	88 2f       	mov	r24, r24
    468a:	90 e0       	ldi	r25, 0x00	; 0
    468c:	82 70       	andi	r24, 0x02	; 2
    468e:	90 70       	andi	r25, 0x00	; 0
    4690:	95 95       	asr	r25
    4692:	87 95       	ror	r24
    4694:	98 2f       	mov	r25, r24
    4696:	81 e0       	ldi	r24, 0x01	; 1
    4698:	64 e0       	ldi	r22, 0x04	; 4
    469a:	49 2f       	mov	r20, r25
    469c:	0e 94 ef 13 	call	0x27de	; 0x27de <DIO_SetPinValue>
	DIO_SetPinValue(LCD_PORT, 5, READ_BIT(LowNibble, 2));
    46a0:	8a ad       	ldd	r24, Y+58	; 0x3a
    46a2:	88 2f       	mov	r24, r24
    46a4:	90 e0       	ldi	r25, 0x00	; 0
    46a6:	84 70       	andi	r24, 0x04	; 4
    46a8:	90 70       	andi	r25, 0x00	; 0
    46aa:	95 95       	asr	r25
    46ac:	87 95       	ror	r24
    46ae:	95 95       	asr	r25
    46b0:	87 95       	ror	r24
    46b2:	98 2f       	mov	r25, r24
    46b4:	81 e0       	ldi	r24, 0x01	; 1
    46b6:	65 e0       	ldi	r22, 0x05	; 5
    46b8:	49 2f       	mov	r20, r25
    46ba:	0e 94 ef 13 	call	0x27de	; 0x27de <DIO_SetPinValue>
	DIO_SetPinValue(LCD_PORT, 6, READ_BIT(LowNibble, 3));
    46be:	8a ad       	ldd	r24, Y+58	; 0x3a
    46c0:	88 2f       	mov	r24, r24
    46c2:	90 e0       	ldi	r25, 0x00	; 0
    46c4:	88 70       	andi	r24, 0x08	; 8
    46c6:	90 70       	andi	r25, 0x00	; 0
    46c8:	95 95       	asr	r25
    46ca:	87 95       	ror	r24
    46cc:	95 95       	asr	r25
    46ce:	87 95       	ror	r24
    46d0:	95 95       	asr	r25
    46d2:	87 95       	ror	r24
    46d4:	98 2f       	mov	r25, r24
    46d6:	81 e0       	ldi	r24, 0x01	; 1
    46d8:	66 e0       	ldi	r22, 0x06	; 6
    46da:	49 2f       	mov	r20, r25
    46dc:	0e 94 ef 13 	call	0x27de	; 0x27de <DIO_SetPinValue>

	DIO_SetPinValue(RW_PORT, RW_PIN, DIO_LOW);
    46e0:	81 e0       	ldi	r24, 0x01	; 1
    46e2:	67 e0       	ldi	r22, 0x07	; 7
    46e4:	40 e0       	ldi	r20, 0x00	; 0
    46e6:	0e 94 ef 13 	call	0x27de	; 0x27de <DIO_SetPinValue>
	DIO_SetPinValue(RS_PORT, RS_PIN, DIO_LOW);
    46ea:	81 e0       	ldi	r24, 0x01	; 1
    46ec:	61 e0       	ldi	r22, 0x01	; 1
    46ee:	40 e0       	ldi	r20, 0x00	; 0
    46f0:	0e 94 ef 13 	call	0x27de	; 0x27de <DIO_SetPinValue>
	DIO_SetPinValue(E_PORT, E_PIN, DIO_HIGH);
    46f4:	81 e0       	ldi	r24, 0x01	; 1
    46f6:	62 e0       	ldi	r22, 0x02	; 2
    46f8:	41 e0       	ldi	r20, 0x01	; 1
    46fa:	0e 94 ef 13 	call	0x27de	; 0x27de <DIO_SetPinValue>
    46fe:	80 e0       	ldi	r24, 0x00	; 0
    4700:	90 e0       	ldi	r25, 0x00	; 0
    4702:	a0 e8       	ldi	r26, 0x80	; 128
    4704:	bf e3       	ldi	r27, 0x3F	; 63
    4706:	89 8f       	std	Y+25, r24	; 0x19
    4708:	9a 8f       	std	Y+26, r25	; 0x1a
    470a:	ab 8f       	std	Y+27, r26	; 0x1b
    470c:	bc 8f       	std	Y+28, r27	; 0x1c
 */
void
_delay_ms(double __ms)
{
	uint16_t __ticks;
	double __tmp = ((F_CPU) / 4e3) * __ms;
    470e:	69 8d       	ldd	r22, Y+25	; 0x19
    4710:	7a 8d       	ldd	r23, Y+26	; 0x1a
    4712:	8b 8d       	ldd	r24, Y+27	; 0x1b
    4714:	9c 8d       	ldd	r25, Y+28	; 0x1c
    4716:	20 e0       	ldi	r18, 0x00	; 0
    4718:	30 e0       	ldi	r19, 0x00	; 0
    471a:	4a e7       	ldi	r20, 0x7A	; 122
    471c:	55 e4       	ldi	r21, 0x45	; 69
    471e:	0e 94 9c 02 	call	0x538	; 0x538 <__mulsf3>
    4722:	dc 01       	movw	r26, r24
    4724:	cb 01       	movw	r24, r22
    4726:	8d 8b       	std	Y+21, r24	; 0x15
    4728:	9e 8b       	std	Y+22, r25	; 0x16
    472a:	af 8b       	std	Y+23, r26	; 0x17
    472c:	b8 8f       	std	Y+24, r27	; 0x18
	if (__tmp < 1.0)
    472e:	6d 89       	ldd	r22, Y+21	; 0x15
    4730:	7e 89       	ldd	r23, Y+22	; 0x16
    4732:	8f 89       	ldd	r24, Y+23	; 0x17
    4734:	98 8d       	ldd	r25, Y+24	; 0x18
    4736:	20 e0       	ldi	r18, 0x00	; 0
    4738:	30 e0       	ldi	r19, 0x00	; 0
    473a:	40 e8       	ldi	r20, 0x80	; 128
    473c:	5f e3       	ldi	r21, 0x3F	; 63
    473e:	0e 94 02 05 	call	0xa04	; 0xa04 <__ltsf2>
    4742:	88 23       	and	r24, r24
    4744:	2c f4       	brge	.+10     	; 0x4750 <LCD_writecmd+0x34e>
		__ticks = 1;
    4746:	81 e0       	ldi	r24, 0x01	; 1
    4748:	90 e0       	ldi	r25, 0x00	; 0
    474a:	9c 8b       	std	Y+20, r25	; 0x14
    474c:	8b 8b       	std	Y+19, r24	; 0x13
    474e:	3f c0       	rjmp	.+126    	; 0x47ce <LCD_writecmd+0x3cc>
	else if (__tmp > 65535)
    4750:	6d 89       	ldd	r22, Y+21	; 0x15
    4752:	7e 89       	ldd	r23, Y+22	; 0x16
    4754:	8f 89       	ldd	r24, Y+23	; 0x17
    4756:	98 8d       	ldd	r25, Y+24	; 0x18
    4758:	20 e0       	ldi	r18, 0x00	; 0
    475a:	3f ef       	ldi	r19, 0xFF	; 255
    475c:	4f e7       	ldi	r20, 0x7F	; 127
    475e:	57 e4       	ldi	r21, 0x47	; 71
    4760:	0e 94 a2 04 	call	0x944	; 0x944 <__gtsf2>
    4764:	18 16       	cp	r1, r24
    4766:	4c f5       	brge	.+82     	; 0x47ba <LCD_writecmd+0x3b8>
	{
		//	__ticks = requested delay in 1/10 ms
		__ticks = (uint16_t) (__ms * 10.0);
    4768:	69 8d       	ldd	r22, Y+25	; 0x19
    476a:	7a 8d       	ldd	r23, Y+26	; 0x1a
    476c:	8b 8d       	ldd	r24, Y+27	; 0x1b
    476e:	9c 8d       	ldd	r25, Y+28	; 0x1c
    4770:	20 e0       	ldi	r18, 0x00	; 0
    4772:	30 e0       	ldi	r19, 0x00	; 0
    4774:	40 e2       	ldi	r20, 0x20	; 32
    4776:	51 e4       	ldi	r21, 0x41	; 65
    4778:	0e 94 9c 02 	call	0x538	; 0x538 <__mulsf3>
    477c:	dc 01       	movw	r26, r24
    477e:	cb 01       	movw	r24, r22
    4780:	bc 01       	movw	r22, r24
    4782:	cd 01       	movw	r24, r26
    4784:	0e 94 c6 00 	call	0x18c	; 0x18c <__fixunssfsi>
    4788:	dc 01       	movw	r26, r24
    478a:	cb 01       	movw	r24, r22
    478c:	9c 8b       	std	Y+20, r25	; 0x14
    478e:	8b 8b       	std	Y+19, r24	; 0x13
    4790:	0f c0       	rjmp	.+30     	; 0x47b0 <LCD_writecmd+0x3ae>
    4792:	80 e9       	ldi	r24, 0x90	; 144
    4794:	91 e0       	ldi	r25, 0x01	; 1
    4796:	9a 8b       	std	Y+18, r25	; 0x12
    4798:	89 8b       	std	Y+17, r24	; 0x11
    479a:	89 89       	ldd	r24, Y+17	; 0x11
    479c:	9a 89       	ldd	r25, Y+18	; 0x12
    479e:	01 97       	sbiw	r24, 0x01	; 1
    47a0:	f1 f7       	brne	.-4      	; 0x479e <LCD_writecmd+0x39c>
    47a2:	9a 8b       	std	Y+18, r25	; 0x12
    47a4:	89 8b       	std	Y+17, r24	; 0x11
		while(__ticks)
		{
			// wait 1/10 ms
			_delay_loop_2(((F_CPU) / 4e3) / 10);
			__ticks --;
    47a6:	8b 89       	ldd	r24, Y+19	; 0x13
    47a8:	9c 89       	ldd	r25, Y+20	; 0x14
    47aa:	01 97       	sbiw	r24, 0x01	; 1
    47ac:	9c 8b       	std	Y+20, r25	; 0x14
    47ae:	8b 8b       	std	Y+19, r24	; 0x13
		__ticks = 1;
	else if (__tmp > 65535)
	{
		//	__ticks = requested delay in 1/10 ms
		__ticks = (uint16_t) (__ms * 10.0);
		while(__ticks)
    47b0:	8b 89       	ldd	r24, Y+19	; 0x13
    47b2:	9c 89       	ldd	r25, Y+20	; 0x14
    47b4:	00 97       	sbiw	r24, 0x00	; 0
    47b6:	69 f7       	brne	.-38     	; 0x4792 <LCD_writecmd+0x390>
    47b8:	14 c0       	rjmp	.+40     	; 0x47e2 <LCD_writecmd+0x3e0>
			__ticks --;
		}
		return;
	}
	else
		__ticks = (uint16_t)__tmp;
    47ba:	6d 89       	ldd	r22, Y+21	; 0x15
    47bc:	7e 89       	ldd	r23, Y+22	; 0x16
    47be:	8f 89       	ldd	r24, Y+23	; 0x17
    47c0:	98 8d       	ldd	r25, Y+24	; 0x18
    47c2:	0e 94 c6 00 	call	0x18c	; 0x18c <__fixunssfsi>
    47c6:	dc 01       	movw	r26, r24
    47c8:	cb 01       	movw	r24, r22
    47ca:	9c 8b       	std	Y+20, r25	; 0x14
    47cc:	8b 8b       	std	Y+19, r24	; 0x13
    47ce:	8b 89       	ldd	r24, Y+19	; 0x13
    47d0:	9c 89       	ldd	r25, Y+20	; 0x14
    47d2:	98 8b       	std	Y+16, r25	; 0x10
    47d4:	8f 87       	std	Y+15, r24	; 0x0f
    47d6:	8f 85       	ldd	r24, Y+15	; 0x0f
    47d8:	98 89       	ldd	r25, Y+16	; 0x10
    47da:	01 97       	sbiw	r24, 0x01	; 1
    47dc:	f1 f7       	brne	.-4      	; 0x47da <LCD_writecmd+0x3d8>
    47de:	98 8b       	std	Y+16, r25	; 0x10
    47e0:	8f 87       	std	Y+15, r24	; 0x0f
	_delay_ms(1);
	DIO_SetPinValue(E_PORT, E_PIN, DIO_LOW);
    47e2:	81 e0       	ldi	r24, 0x01	; 1
    47e4:	62 e0       	ldi	r22, 0x02	; 2
    47e6:	40 e0       	ldi	r20, 0x00	; 0
    47e8:	0e 94 ef 13 	call	0x27de	; 0x27de <DIO_SetPinValue>
    47ec:	80 e0       	ldi	r24, 0x00	; 0
    47ee:	90 e0       	ldi	r25, 0x00	; 0
    47f0:	a0 e8       	ldi	r26, 0x80	; 128
    47f2:	bf e3       	ldi	r27, 0x3F	; 63
    47f4:	8b 87       	std	Y+11, r24	; 0x0b
    47f6:	9c 87       	std	Y+12, r25	; 0x0c
    47f8:	ad 87       	std	Y+13, r26	; 0x0d
    47fa:	be 87       	std	Y+14, r27	; 0x0e
 */
void
_delay_ms(double __ms)
{
	uint16_t __ticks;
	double __tmp = ((F_CPU) / 4e3) * __ms;
    47fc:	6b 85       	ldd	r22, Y+11	; 0x0b
    47fe:	7c 85       	ldd	r23, Y+12	; 0x0c
    4800:	8d 85       	ldd	r24, Y+13	; 0x0d
    4802:	9e 85       	ldd	r25, Y+14	; 0x0e
    4804:	20 e0       	ldi	r18, 0x00	; 0
    4806:	30 e0       	ldi	r19, 0x00	; 0
    4808:	4a e7       	ldi	r20, 0x7A	; 122
    480a:	55 e4       	ldi	r21, 0x45	; 69
    480c:	0e 94 9c 02 	call	0x538	; 0x538 <__mulsf3>
    4810:	dc 01       	movw	r26, r24
    4812:	cb 01       	movw	r24, r22
    4814:	8f 83       	std	Y+7, r24	; 0x07
    4816:	98 87       	std	Y+8, r25	; 0x08
    4818:	a9 87       	std	Y+9, r26	; 0x09
    481a:	ba 87       	std	Y+10, r27	; 0x0a
	if (__tmp < 1.0)
    481c:	6f 81       	ldd	r22, Y+7	; 0x07
    481e:	78 85       	ldd	r23, Y+8	; 0x08
    4820:	89 85       	ldd	r24, Y+9	; 0x09
    4822:	9a 85       	ldd	r25, Y+10	; 0x0a
    4824:	20 e0       	ldi	r18, 0x00	; 0
    4826:	30 e0       	ldi	r19, 0x00	; 0
    4828:	40 e8       	ldi	r20, 0x80	; 128
    482a:	5f e3       	ldi	r21, 0x3F	; 63
    482c:	0e 94 02 05 	call	0xa04	; 0xa04 <__ltsf2>
    4830:	88 23       	and	r24, r24
    4832:	2c f4       	brge	.+10     	; 0x483e <LCD_writecmd+0x43c>
		__ticks = 1;
    4834:	81 e0       	ldi	r24, 0x01	; 1
    4836:	90 e0       	ldi	r25, 0x00	; 0
    4838:	9e 83       	std	Y+6, r25	; 0x06
    483a:	8d 83       	std	Y+5, r24	; 0x05
    483c:	3f c0       	rjmp	.+126    	; 0x48bc <LCD_writecmd+0x4ba>
	else if (__tmp > 65535)
    483e:	6f 81       	ldd	r22, Y+7	; 0x07
    4840:	78 85       	ldd	r23, Y+8	; 0x08
    4842:	89 85       	ldd	r24, Y+9	; 0x09
    4844:	9a 85       	ldd	r25, Y+10	; 0x0a
    4846:	20 e0       	ldi	r18, 0x00	; 0
    4848:	3f ef       	ldi	r19, 0xFF	; 255
    484a:	4f e7       	ldi	r20, 0x7F	; 127
    484c:	57 e4       	ldi	r21, 0x47	; 71
    484e:	0e 94 a2 04 	call	0x944	; 0x944 <__gtsf2>
    4852:	18 16       	cp	r1, r24
    4854:	4c f5       	brge	.+82     	; 0x48a8 <LCD_writecmd+0x4a6>
	{
		//	__ticks = requested delay in 1/10 ms
		__ticks = (uint16_t) (__ms * 10.0);
    4856:	6b 85       	ldd	r22, Y+11	; 0x0b
    4858:	7c 85       	ldd	r23, Y+12	; 0x0c
    485a:	8d 85       	ldd	r24, Y+13	; 0x0d
    485c:	9e 85       	ldd	r25, Y+14	; 0x0e
    485e:	20 e0       	ldi	r18, 0x00	; 0
    4860:	30 e0       	ldi	r19, 0x00	; 0
    4862:	40 e2       	ldi	r20, 0x20	; 32
    4864:	51 e4       	ldi	r21, 0x41	; 65
    4866:	0e 94 9c 02 	call	0x538	; 0x538 <__mulsf3>
    486a:	dc 01       	movw	r26, r24
    486c:	cb 01       	movw	r24, r22
    486e:	bc 01       	movw	r22, r24
    4870:	cd 01       	movw	r24, r26
    4872:	0e 94 c6 00 	call	0x18c	; 0x18c <__fixunssfsi>
    4876:	dc 01       	movw	r26, r24
    4878:	cb 01       	movw	r24, r22
    487a:	9e 83       	std	Y+6, r25	; 0x06
    487c:	8d 83       	std	Y+5, r24	; 0x05
    487e:	0f c0       	rjmp	.+30     	; 0x489e <LCD_writecmd+0x49c>
    4880:	80 e9       	ldi	r24, 0x90	; 144
    4882:	91 e0       	ldi	r25, 0x01	; 1
    4884:	9c 83       	std	Y+4, r25	; 0x04
    4886:	8b 83       	std	Y+3, r24	; 0x03
    4888:	8b 81       	ldd	r24, Y+3	; 0x03
    488a:	9c 81       	ldd	r25, Y+4	; 0x04
    488c:	01 97       	sbiw	r24, 0x01	; 1
    488e:	f1 f7       	brne	.-4      	; 0x488c <LCD_writecmd+0x48a>
    4890:	9c 83       	std	Y+4, r25	; 0x04
    4892:	8b 83       	std	Y+3, r24	; 0x03
		while(__ticks)
		{
			// wait 1/10 ms
			_delay_loop_2(((F_CPU) / 4e3) / 10);
			__ticks --;
    4894:	8d 81       	ldd	r24, Y+5	; 0x05
    4896:	9e 81       	ldd	r25, Y+6	; 0x06
    4898:	01 97       	sbiw	r24, 0x01	; 1
    489a:	9e 83       	std	Y+6, r25	; 0x06
    489c:	8d 83       	std	Y+5, r24	; 0x05
		__ticks = 1;
	else if (__tmp > 65535)
	{
		//	__ticks = requested delay in 1/10 ms
		__ticks = (uint16_t) (__ms * 10.0);
		while(__ticks)
    489e:	8d 81       	ldd	r24, Y+5	; 0x05
    48a0:	9e 81       	ldd	r25, Y+6	; 0x06
    48a2:	00 97       	sbiw	r24, 0x00	; 0
    48a4:	69 f7       	brne	.-38     	; 0x4880 <LCD_writecmd+0x47e>
    48a6:	14 c0       	rjmp	.+40     	; 0x48d0 <LCD_writecmd+0x4ce>
			__ticks --;
		}
		return;
	}
	else
		__ticks = (uint16_t)__tmp;
    48a8:	6f 81       	ldd	r22, Y+7	; 0x07
    48aa:	78 85       	ldd	r23, Y+8	; 0x08
    48ac:	89 85       	ldd	r24, Y+9	; 0x09
    48ae:	9a 85       	ldd	r25, Y+10	; 0x0a
    48b0:	0e 94 c6 00 	call	0x18c	; 0x18c <__fixunssfsi>
    48b4:	dc 01       	movw	r26, r24
    48b6:	cb 01       	movw	r24, r22
    48b8:	9e 83       	std	Y+6, r25	; 0x06
    48ba:	8d 83       	std	Y+5, r24	; 0x05
    48bc:	8d 81       	ldd	r24, Y+5	; 0x05
    48be:	9e 81       	ldd	r25, Y+6	; 0x06
    48c0:	9a 83       	std	Y+2, r25	; 0x02
    48c2:	89 83       	std	Y+1, r24	; 0x01
    48c4:	89 81       	ldd	r24, Y+1	; 0x01
    48c6:	9a 81       	ldd	r25, Y+2	; 0x02
    48c8:	01 97       	sbiw	r24, 0x01	; 1
    48ca:	f1 f7       	brne	.-4      	; 0x48c8 <LCD_writecmd+0x4c6>
    48cc:	9a 83       	std	Y+2, r25	; 0x02
    48ce:	89 83       	std	Y+1, r24	; 0x01
	_delay_ms(1);

#endif
}
    48d0:	eb 96       	adiw	r28, 0x3b	; 59
    48d2:	0f b6       	in	r0, 0x3f	; 63
    48d4:	f8 94       	cli
    48d6:	de bf       	out	0x3e, r29	; 62
    48d8:	0f be       	out	0x3f, r0	; 63
    48da:	cd bf       	out	0x3d, r28	; 61
    48dc:	cf 91       	pop	r28
    48de:	df 91       	pop	r29
    48e0:	08 95       	ret

000048e2 <LCD_init>:

void LCD_init(void) {
    48e2:	0f 93       	push	r16
    48e4:	1f 93       	push	r17
    48e6:	df 93       	push	r29
    48e8:	cf 93       	push	r28
    48ea:	cd b7       	in	r28, 0x3d	; 61
    48ec:	de b7       	in	r29, 0x3e	; 62
    48ee:	c4 55       	subi	r28, 0x54	; 84
    48f0:	d0 40       	sbci	r29, 0x00	; 0
    48f2:	0f b6       	in	r0, 0x3f	; 63
    48f4:	f8 94       	cli
    48f6:	de bf       	out	0x3e, r29	; 62
    48f8:	0f be       	out	0x3f, r0	; 63
    48fa:	cd bf       	out	0x3d, r28	; 61
    48fc:	fe 01       	movw	r30, r28
    48fe:	ef 5a       	subi	r30, 0xAF	; 175
    4900:	ff 4f       	sbci	r31, 0xFF	; 255
    4902:	80 e0       	ldi	r24, 0x00	; 0
    4904:	90 e0       	ldi	r25, 0x00	; 0
    4906:	a8 e4       	ldi	r26, 0x48	; 72
    4908:	b2 e4       	ldi	r27, 0x42	; 66
    490a:	80 83       	st	Z, r24
    490c:	91 83       	std	Z+1, r25	; 0x01
    490e:	a2 83       	std	Z+2, r26	; 0x02
    4910:	b3 83       	std	Z+3, r27	; 0x03
 */
void
_delay_ms(double __ms)
{
	uint16_t __ticks;
	double __tmp = ((F_CPU) / 4e3) * __ms;
    4912:	8e 01       	movw	r16, r28
    4914:	03 5b       	subi	r16, 0xB3	; 179
    4916:	1f 4f       	sbci	r17, 0xFF	; 255
    4918:	fe 01       	movw	r30, r28
    491a:	ef 5a       	subi	r30, 0xAF	; 175
    491c:	ff 4f       	sbci	r31, 0xFF	; 255
    491e:	60 81       	ld	r22, Z
    4920:	71 81       	ldd	r23, Z+1	; 0x01
    4922:	82 81       	ldd	r24, Z+2	; 0x02
    4924:	93 81       	ldd	r25, Z+3	; 0x03
    4926:	20 e0       	ldi	r18, 0x00	; 0
    4928:	30 e0       	ldi	r19, 0x00	; 0
    492a:	4a e7       	ldi	r20, 0x7A	; 122
    492c:	55 e4       	ldi	r21, 0x45	; 69
    492e:	0e 94 9c 02 	call	0x538	; 0x538 <__mulsf3>
    4932:	dc 01       	movw	r26, r24
    4934:	cb 01       	movw	r24, r22
    4936:	f8 01       	movw	r30, r16
    4938:	80 83       	st	Z, r24
    493a:	91 83       	std	Z+1, r25	; 0x01
    493c:	a2 83       	std	Z+2, r26	; 0x02
    493e:	b3 83       	std	Z+3, r27	; 0x03
	if (__tmp < 1.0)
    4940:	fe 01       	movw	r30, r28
    4942:	e3 5b       	subi	r30, 0xB3	; 179
    4944:	ff 4f       	sbci	r31, 0xFF	; 255
    4946:	60 81       	ld	r22, Z
    4948:	71 81       	ldd	r23, Z+1	; 0x01
    494a:	82 81       	ldd	r24, Z+2	; 0x02
    494c:	93 81       	ldd	r25, Z+3	; 0x03
    494e:	20 e0       	ldi	r18, 0x00	; 0
    4950:	30 e0       	ldi	r19, 0x00	; 0
    4952:	40 e8       	ldi	r20, 0x80	; 128
    4954:	5f e3       	ldi	r21, 0x3F	; 63
    4956:	0e 94 02 05 	call	0xa04	; 0xa04 <__ltsf2>
    495a:	88 23       	and	r24, r24
    495c:	44 f4       	brge	.+16     	; 0x496e <LCD_init+0x8c>
		__ticks = 1;
    495e:	fe 01       	movw	r30, r28
    4960:	e5 5b       	subi	r30, 0xB5	; 181
    4962:	ff 4f       	sbci	r31, 0xFF	; 255
    4964:	81 e0       	ldi	r24, 0x01	; 1
    4966:	90 e0       	ldi	r25, 0x00	; 0
    4968:	91 83       	std	Z+1, r25	; 0x01
    496a:	80 83       	st	Z, r24
    496c:	64 c0       	rjmp	.+200    	; 0x4a36 <LCD_init+0x154>
	else if (__tmp > 65535)
    496e:	fe 01       	movw	r30, r28
    4970:	e3 5b       	subi	r30, 0xB3	; 179
    4972:	ff 4f       	sbci	r31, 0xFF	; 255
    4974:	60 81       	ld	r22, Z
    4976:	71 81       	ldd	r23, Z+1	; 0x01
    4978:	82 81       	ldd	r24, Z+2	; 0x02
    497a:	93 81       	ldd	r25, Z+3	; 0x03
    497c:	20 e0       	ldi	r18, 0x00	; 0
    497e:	3f ef       	ldi	r19, 0xFF	; 255
    4980:	4f e7       	ldi	r20, 0x7F	; 127
    4982:	57 e4       	ldi	r21, 0x47	; 71
    4984:	0e 94 a2 04 	call	0x944	; 0x944 <__gtsf2>
    4988:	18 16       	cp	r1, r24
    498a:	0c f0       	brlt	.+2      	; 0x498e <LCD_init+0xac>
    498c:	43 c0       	rjmp	.+134    	; 0x4a14 <LCD_init+0x132>
	{
		//	__ticks = requested delay in 1/10 ms
		__ticks = (uint16_t) (__ms * 10.0);
    498e:	fe 01       	movw	r30, r28
    4990:	ef 5a       	subi	r30, 0xAF	; 175
    4992:	ff 4f       	sbci	r31, 0xFF	; 255
    4994:	60 81       	ld	r22, Z
    4996:	71 81       	ldd	r23, Z+1	; 0x01
    4998:	82 81       	ldd	r24, Z+2	; 0x02
    499a:	93 81       	ldd	r25, Z+3	; 0x03
    499c:	20 e0       	ldi	r18, 0x00	; 0
    499e:	30 e0       	ldi	r19, 0x00	; 0
    49a0:	40 e2       	ldi	r20, 0x20	; 32
    49a2:	51 e4       	ldi	r21, 0x41	; 65
    49a4:	0e 94 9c 02 	call	0x538	; 0x538 <__mulsf3>
    49a8:	dc 01       	movw	r26, r24
    49aa:	cb 01       	movw	r24, r22
    49ac:	8e 01       	movw	r16, r28
    49ae:	05 5b       	subi	r16, 0xB5	; 181
    49b0:	1f 4f       	sbci	r17, 0xFF	; 255
    49b2:	bc 01       	movw	r22, r24
    49b4:	cd 01       	movw	r24, r26
    49b6:	0e 94 c6 00 	call	0x18c	; 0x18c <__fixunssfsi>
    49ba:	dc 01       	movw	r26, r24
    49bc:	cb 01       	movw	r24, r22
    49be:	f8 01       	movw	r30, r16
    49c0:	91 83       	std	Z+1, r25	; 0x01
    49c2:	80 83       	st	Z, r24
    49c4:	1f c0       	rjmp	.+62     	; 0x4a04 <LCD_init+0x122>
    49c6:	fe 01       	movw	r30, r28
    49c8:	e7 5b       	subi	r30, 0xB7	; 183
    49ca:	ff 4f       	sbci	r31, 0xFF	; 255
    49cc:	80 e9       	ldi	r24, 0x90	; 144
    49ce:	91 e0       	ldi	r25, 0x01	; 1
    49d0:	91 83       	std	Z+1, r25	; 0x01
    49d2:	80 83       	st	Z, r24
    49d4:	fe 01       	movw	r30, r28
    49d6:	e7 5b       	subi	r30, 0xB7	; 183
    49d8:	ff 4f       	sbci	r31, 0xFF	; 255
    49da:	80 81       	ld	r24, Z
    49dc:	91 81       	ldd	r25, Z+1	; 0x01
    49de:	01 97       	sbiw	r24, 0x01	; 1
    49e0:	f1 f7       	brne	.-4      	; 0x49de <LCD_init+0xfc>
    49e2:	fe 01       	movw	r30, r28
    49e4:	e7 5b       	subi	r30, 0xB7	; 183
    49e6:	ff 4f       	sbci	r31, 0xFF	; 255
    49e8:	91 83       	std	Z+1, r25	; 0x01
    49ea:	80 83       	st	Z, r24
		while(__ticks)
		{
			// wait 1/10 ms
			_delay_loop_2(((F_CPU) / 4e3) / 10);
			__ticks --;
    49ec:	de 01       	movw	r26, r28
    49ee:	a5 5b       	subi	r26, 0xB5	; 181
    49f0:	bf 4f       	sbci	r27, 0xFF	; 255
    49f2:	fe 01       	movw	r30, r28
    49f4:	e5 5b       	subi	r30, 0xB5	; 181
    49f6:	ff 4f       	sbci	r31, 0xFF	; 255
    49f8:	80 81       	ld	r24, Z
    49fa:	91 81       	ldd	r25, Z+1	; 0x01
    49fc:	01 97       	sbiw	r24, 0x01	; 1
    49fe:	11 96       	adiw	r26, 0x01	; 1
    4a00:	9c 93       	st	X, r25
    4a02:	8e 93       	st	-X, r24
		__ticks = 1;
	else if (__tmp > 65535)
	{
		//	__ticks = requested delay in 1/10 ms
		__ticks = (uint16_t) (__ms * 10.0);
		while(__ticks)
    4a04:	fe 01       	movw	r30, r28
    4a06:	e5 5b       	subi	r30, 0xB5	; 181
    4a08:	ff 4f       	sbci	r31, 0xFF	; 255
    4a0a:	80 81       	ld	r24, Z
    4a0c:	91 81       	ldd	r25, Z+1	; 0x01
    4a0e:	00 97       	sbiw	r24, 0x00	; 0
    4a10:	d1 f6       	brne	.-76     	; 0x49c6 <LCD_init+0xe4>
    4a12:	27 c0       	rjmp	.+78     	; 0x4a62 <LCD_init+0x180>
			__ticks --;
		}
		return;
	}
	else
		__ticks = (uint16_t)__tmp;
    4a14:	8e 01       	movw	r16, r28
    4a16:	05 5b       	subi	r16, 0xB5	; 181
    4a18:	1f 4f       	sbci	r17, 0xFF	; 255
    4a1a:	fe 01       	movw	r30, r28
    4a1c:	e3 5b       	subi	r30, 0xB3	; 179
    4a1e:	ff 4f       	sbci	r31, 0xFF	; 255
    4a20:	60 81       	ld	r22, Z
    4a22:	71 81       	ldd	r23, Z+1	; 0x01
    4a24:	82 81       	ldd	r24, Z+2	; 0x02
    4a26:	93 81       	ldd	r25, Z+3	; 0x03
    4a28:	0e 94 c6 00 	call	0x18c	; 0x18c <__fixunssfsi>
    4a2c:	dc 01       	movw	r26, r24
    4a2e:	cb 01       	movw	r24, r22
    4a30:	f8 01       	movw	r30, r16
    4a32:	91 83       	std	Z+1, r25	; 0x01
    4a34:	80 83       	st	Z, r24
    4a36:	de 01       	movw	r26, r28
    4a38:	a9 5b       	subi	r26, 0xB9	; 185
    4a3a:	bf 4f       	sbci	r27, 0xFF	; 255
    4a3c:	fe 01       	movw	r30, r28
    4a3e:	e5 5b       	subi	r30, 0xB5	; 181
    4a40:	ff 4f       	sbci	r31, 0xFF	; 255
    4a42:	80 81       	ld	r24, Z
    4a44:	91 81       	ldd	r25, Z+1	; 0x01
    4a46:	8d 93       	st	X+, r24
    4a48:	9c 93       	st	X, r25
    4a4a:	fe 01       	movw	r30, r28
    4a4c:	e9 5b       	subi	r30, 0xB9	; 185
    4a4e:	ff 4f       	sbci	r31, 0xFF	; 255
    4a50:	80 81       	ld	r24, Z
    4a52:	91 81       	ldd	r25, Z+1	; 0x01
    4a54:	01 97       	sbiw	r24, 0x01	; 1
    4a56:	f1 f7       	brne	.-4      	; 0x4a54 <LCD_init+0x172>
    4a58:	fe 01       	movw	r30, r28
    4a5a:	e9 5b       	subi	r30, 0xB9	; 185
    4a5c:	ff 4f       	sbci	r31, 0xFF	; 255
    4a5e:	91 83       	std	Z+1, r25	; 0x01
    4a60:	80 83       	st	Z, r24
	_delay_ms(1);

#elif MODE == 4
	_delay_ms(50);
	//here
	DIO_InitPin(LCD_PORT, 3, DIO_OUTPUT ); //only using last 4 pins
    4a62:	81 e0       	ldi	r24, 0x01	; 1
    4a64:	63 e0       	ldi	r22, 0x03	; 3
    4a66:	41 e0       	ldi	r20, 0x01	; 1
    4a68:	0e 94 f0 12 	call	0x25e0	; 0x25e0 <DIO_InitPin>
	DIO_InitPin(LCD_PORT, 4, DIO_OUTPUT );
    4a6c:	81 e0       	ldi	r24, 0x01	; 1
    4a6e:	64 e0       	ldi	r22, 0x04	; 4
    4a70:	41 e0       	ldi	r20, 0x01	; 1
    4a72:	0e 94 f0 12 	call	0x25e0	; 0x25e0 <DIO_InitPin>
	DIO_InitPin(LCD_PORT, 5, DIO_OUTPUT );
    4a76:	81 e0       	ldi	r24, 0x01	; 1
    4a78:	65 e0       	ldi	r22, 0x05	; 5
    4a7a:	41 e0       	ldi	r20, 0x01	; 1
    4a7c:	0e 94 f0 12 	call	0x25e0	; 0x25e0 <DIO_InitPin>
	DIO_InitPin(LCD_PORT, 6, DIO_OUTPUT );
    4a80:	81 e0       	ldi	r24, 0x01	; 1
    4a82:	66 e0       	ldi	r22, 0x06	; 6
    4a84:	41 e0       	ldi	r20, 0x01	; 1
    4a86:	0e 94 f0 12 	call	0x25e0	; 0x25e0 <DIO_InitPin>

	DIO_InitPin(RW_PORT, RW_PIN, DIO_OUTPUT );
    4a8a:	81 e0       	ldi	r24, 0x01	; 1
    4a8c:	67 e0       	ldi	r22, 0x07	; 7
    4a8e:	41 e0       	ldi	r20, 0x01	; 1
    4a90:	0e 94 f0 12 	call	0x25e0	; 0x25e0 <DIO_InitPin>
	DIO_InitPin(RS_PORT, RS_PIN, DIO_OUTPUT );
    4a94:	81 e0       	ldi	r24, 0x01	; 1
    4a96:	61 e0       	ldi	r22, 0x01	; 1
    4a98:	41 e0       	ldi	r20, 0x01	; 1
    4a9a:	0e 94 f0 12 	call	0x25e0	; 0x25e0 <DIO_InitPin>
	DIO_InitPin(E_PORT, E_PIN, DIO_OUTPUT );
    4a9e:	81 e0       	ldi	r24, 0x01	; 1
    4aa0:	62 e0       	ldi	r22, 0x02	; 2
    4aa2:	41 e0       	ldi	r20, 0x01	; 1
    4aa4:	0e 94 f0 12 	call	0x25e0	; 0x25e0 <DIO_InitPin>

	LCD_writecmd(0x02);
    4aa8:	82 e0       	ldi	r24, 0x02	; 2
    4aaa:	0e 94 01 22 	call	0x4402	; 0x4402 <LCD_writecmd>
    4aae:	fe 01       	movw	r30, r28
    4ab0:	ed 5b       	subi	r30, 0xBD	; 189
    4ab2:	ff 4f       	sbci	r31, 0xFF	; 255
    4ab4:	80 e0       	ldi	r24, 0x00	; 0
    4ab6:	90 e0       	ldi	r25, 0x00	; 0
    4ab8:	a0 e8       	ldi	r26, 0x80	; 128
    4aba:	bf e3       	ldi	r27, 0x3F	; 63
    4abc:	80 83       	st	Z, r24
    4abe:	91 83       	std	Z+1, r25	; 0x01
    4ac0:	a2 83       	std	Z+2, r26	; 0x02
    4ac2:	b3 83       	std	Z+3, r27	; 0x03
 */
void
_delay_ms(double __ms)
{
	uint16_t __ticks;
	double __tmp = ((F_CPU) / 4e3) * __ms;
    4ac4:	8e 01       	movw	r16, r28
    4ac6:	01 5c       	subi	r16, 0xC1	; 193
    4ac8:	1f 4f       	sbci	r17, 0xFF	; 255
    4aca:	fe 01       	movw	r30, r28
    4acc:	ed 5b       	subi	r30, 0xBD	; 189
    4ace:	ff 4f       	sbci	r31, 0xFF	; 255
    4ad0:	60 81       	ld	r22, Z
    4ad2:	71 81       	ldd	r23, Z+1	; 0x01
    4ad4:	82 81       	ldd	r24, Z+2	; 0x02
    4ad6:	93 81       	ldd	r25, Z+3	; 0x03
    4ad8:	20 e0       	ldi	r18, 0x00	; 0
    4ada:	30 e0       	ldi	r19, 0x00	; 0
    4adc:	4a e7       	ldi	r20, 0x7A	; 122
    4ade:	55 e4       	ldi	r21, 0x45	; 69
    4ae0:	0e 94 9c 02 	call	0x538	; 0x538 <__mulsf3>
    4ae4:	dc 01       	movw	r26, r24
    4ae6:	cb 01       	movw	r24, r22
    4ae8:	f8 01       	movw	r30, r16
    4aea:	80 83       	st	Z, r24
    4aec:	91 83       	std	Z+1, r25	; 0x01
    4aee:	a2 83       	std	Z+2, r26	; 0x02
    4af0:	b3 83       	std	Z+3, r27	; 0x03
	if (__tmp < 1.0)
    4af2:	fe 01       	movw	r30, r28
    4af4:	ff 96       	adiw	r30, 0x3f	; 63
    4af6:	60 81       	ld	r22, Z
    4af8:	71 81       	ldd	r23, Z+1	; 0x01
    4afa:	82 81       	ldd	r24, Z+2	; 0x02
    4afc:	93 81       	ldd	r25, Z+3	; 0x03
    4afe:	20 e0       	ldi	r18, 0x00	; 0
    4b00:	30 e0       	ldi	r19, 0x00	; 0
    4b02:	40 e8       	ldi	r20, 0x80	; 128
    4b04:	5f e3       	ldi	r21, 0x3F	; 63
    4b06:	0e 94 02 05 	call	0xa04	; 0xa04 <__ltsf2>
    4b0a:	88 23       	and	r24, r24
    4b0c:	2c f4       	brge	.+10     	; 0x4b18 <LCD_init+0x236>
		__ticks = 1;
    4b0e:	81 e0       	ldi	r24, 0x01	; 1
    4b10:	90 e0       	ldi	r25, 0x00	; 0
    4b12:	9e af       	std	Y+62, r25	; 0x3e
    4b14:	8d af       	std	Y+61, r24	; 0x3d
    4b16:	46 c0       	rjmp	.+140    	; 0x4ba4 <LCD_init+0x2c2>
	else if (__tmp > 65535)
    4b18:	fe 01       	movw	r30, r28
    4b1a:	ff 96       	adiw	r30, 0x3f	; 63
    4b1c:	60 81       	ld	r22, Z
    4b1e:	71 81       	ldd	r23, Z+1	; 0x01
    4b20:	82 81       	ldd	r24, Z+2	; 0x02
    4b22:	93 81       	ldd	r25, Z+3	; 0x03
    4b24:	20 e0       	ldi	r18, 0x00	; 0
    4b26:	3f ef       	ldi	r19, 0xFF	; 255
    4b28:	4f e7       	ldi	r20, 0x7F	; 127
    4b2a:	57 e4       	ldi	r21, 0x47	; 71
    4b2c:	0e 94 a2 04 	call	0x944	; 0x944 <__gtsf2>
    4b30:	18 16       	cp	r1, r24
    4b32:	64 f5       	brge	.+88     	; 0x4b8c <LCD_init+0x2aa>
	{
		//	__ticks = requested delay in 1/10 ms
		__ticks = (uint16_t) (__ms * 10.0);
    4b34:	fe 01       	movw	r30, r28
    4b36:	ed 5b       	subi	r30, 0xBD	; 189
    4b38:	ff 4f       	sbci	r31, 0xFF	; 255
    4b3a:	60 81       	ld	r22, Z
    4b3c:	71 81       	ldd	r23, Z+1	; 0x01
    4b3e:	82 81       	ldd	r24, Z+2	; 0x02
    4b40:	93 81       	ldd	r25, Z+3	; 0x03
    4b42:	20 e0       	ldi	r18, 0x00	; 0
    4b44:	30 e0       	ldi	r19, 0x00	; 0
    4b46:	40 e2       	ldi	r20, 0x20	; 32
    4b48:	51 e4       	ldi	r21, 0x41	; 65
    4b4a:	0e 94 9c 02 	call	0x538	; 0x538 <__mulsf3>
    4b4e:	dc 01       	movw	r26, r24
    4b50:	cb 01       	movw	r24, r22
    4b52:	bc 01       	movw	r22, r24
    4b54:	cd 01       	movw	r24, r26
    4b56:	0e 94 c6 00 	call	0x18c	; 0x18c <__fixunssfsi>
    4b5a:	dc 01       	movw	r26, r24
    4b5c:	cb 01       	movw	r24, r22
    4b5e:	9e af       	std	Y+62, r25	; 0x3e
    4b60:	8d af       	std	Y+61, r24	; 0x3d
    4b62:	0f c0       	rjmp	.+30     	; 0x4b82 <LCD_init+0x2a0>
    4b64:	80 e9       	ldi	r24, 0x90	; 144
    4b66:	91 e0       	ldi	r25, 0x01	; 1
    4b68:	9c af       	std	Y+60, r25	; 0x3c
    4b6a:	8b af       	std	Y+59, r24	; 0x3b
    4b6c:	8b ad       	ldd	r24, Y+59	; 0x3b
    4b6e:	9c ad       	ldd	r25, Y+60	; 0x3c
    4b70:	01 97       	sbiw	r24, 0x01	; 1
    4b72:	f1 f7       	brne	.-4      	; 0x4b70 <LCD_init+0x28e>
    4b74:	9c af       	std	Y+60, r25	; 0x3c
    4b76:	8b af       	std	Y+59, r24	; 0x3b
		while(__ticks)
		{
			// wait 1/10 ms
			_delay_loop_2(((F_CPU) / 4e3) / 10);
			__ticks --;
    4b78:	8d ad       	ldd	r24, Y+61	; 0x3d
    4b7a:	9e ad       	ldd	r25, Y+62	; 0x3e
    4b7c:	01 97       	sbiw	r24, 0x01	; 1
    4b7e:	9e af       	std	Y+62, r25	; 0x3e
    4b80:	8d af       	std	Y+61, r24	; 0x3d
		__ticks = 1;
	else if (__tmp > 65535)
	{
		//	__ticks = requested delay in 1/10 ms
		__ticks = (uint16_t) (__ms * 10.0);
		while(__ticks)
    4b82:	8d ad       	ldd	r24, Y+61	; 0x3d
    4b84:	9e ad       	ldd	r25, Y+62	; 0x3e
    4b86:	00 97       	sbiw	r24, 0x00	; 0
    4b88:	69 f7       	brne	.-38     	; 0x4b64 <LCD_init+0x282>
    4b8a:	16 c0       	rjmp	.+44     	; 0x4bb8 <LCD_init+0x2d6>
			__ticks --;
		}
		return;
	}
	else
		__ticks = (uint16_t)__tmp;
    4b8c:	fe 01       	movw	r30, r28
    4b8e:	ff 96       	adiw	r30, 0x3f	; 63
    4b90:	60 81       	ld	r22, Z
    4b92:	71 81       	ldd	r23, Z+1	; 0x01
    4b94:	82 81       	ldd	r24, Z+2	; 0x02
    4b96:	93 81       	ldd	r25, Z+3	; 0x03
    4b98:	0e 94 c6 00 	call	0x18c	; 0x18c <__fixunssfsi>
    4b9c:	dc 01       	movw	r26, r24
    4b9e:	cb 01       	movw	r24, r22
    4ba0:	9e af       	std	Y+62, r25	; 0x3e
    4ba2:	8d af       	std	Y+61, r24	; 0x3d
    4ba4:	8d ad       	ldd	r24, Y+61	; 0x3d
    4ba6:	9e ad       	ldd	r25, Y+62	; 0x3e
    4ba8:	9a af       	std	Y+58, r25	; 0x3a
    4baa:	89 af       	std	Y+57, r24	; 0x39
    4bac:	89 ad       	ldd	r24, Y+57	; 0x39
    4bae:	9a ad       	ldd	r25, Y+58	; 0x3a
    4bb0:	01 97       	sbiw	r24, 0x01	; 1
    4bb2:	f1 f7       	brne	.-4      	; 0x4bb0 <LCD_init+0x2ce>
    4bb4:	9a af       	std	Y+58, r25	; 0x3a
    4bb6:	89 af       	std	Y+57, r24	; 0x39
	_delay_ms(1);

	LCD_writecmd(0x28); //same but for 4 bit, bit responsible is 0
    4bb8:	88 e2       	ldi	r24, 0x28	; 40
    4bba:	0e 94 01 22 	call	0x4402	; 0x4402 <LCD_writecmd>
    4bbe:	80 e0       	ldi	r24, 0x00	; 0
    4bc0:	90 e0       	ldi	r25, 0x00	; 0
    4bc2:	a0 e8       	ldi	r26, 0x80	; 128
    4bc4:	bf e3       	ldi	r27, 0x3F	; 63
    4bc6:	8d ab       	std	Y+53, r24	; 0x35
    4bc8:	9e ab       	std	Y+54, r25	; 0x36
    4bca:	af ab       	std	Y+55, r26	; 0x37
    4bcc:	b8 af       	std	Y+56, r27	; 0x38
 */
void
_delay_ms(double __ms)
{
	uint16_t __ticks;
	double __tmp = ((F_CPU) / 4e3) * __ms;
    4bce:	6d a9       	ldd	r22, Y+53	; 0x35
    4bd0:	7e a9       	ldd	r23, Y+54	; 0x36
    4bd2:	8f a9       	ldd	r24, Y+55	; 0x37
    4bd4:	98 ad       	ldd	r25, Y+56	; 0x38
    4bd6:	20 e0       	ldi	r18, 0x00	; 0
    4bd8:	30 e0       	ldi	r19, 0x00	; 0
    4bda:	4a e7       	ldi	r20, 0x7A	; 122
    4bdc:	55 e4       	ldi	r21, 0x45	; 69
    4bde:	0e 94 9c 02 	call	0x538	; 0x538 <__mulsf3>
    4be2:	dc 01       	movw	r26, r24
    4be4:	cb 01       	movw	r24, r22
    4be6:	89 ab       	std	Y+49, r24	; 0x31
    4be8:	9a ab       	std	Y+50, r25	; 0x32
    4bea:	ab ab       	std	Y+51, r26	; 0x33
    4bec:	bc ab       	std	Y+52, r27	; 0x34
	if (__tmp < 1.0)
    4bee:	69 a9       	ldd	r22, Y+49	; 0x31
    4bf0:	7a a9       	ldd	r23, Y+50	; 0x32
    4bf2:	8b a9       	ldd	r24, Y+51	; 0x33
    4bf4:	9c a9       	ldd	r25, Y+52	; 0x34
    4bf6:	20 e0       	ldi	r18, 0x00	; 0
    4bf8:	30 e0       	ldi	r19, 0x00	; 0
    4bfa:	40 e8       	ldi	r20, 0x80	; 128
    4bfc:	5f e3       	ldi	r21, 0x3F	; 63
    4bfe:	0e 94 02 05 	call	0xa04	; 0xa04 <__ltsf2>
    4c02:	88 23       	and	r24, r24
    4c04:	2c f4       	brge	.+10     	; 0x4c10 <LCD_init+0x32e>
		__ticks = 1;
    4c06:	81 e0       	ldi	r24, 0x01	; 1
    4c08:	90 e0       	ldi	r25, 0x00	; 0
    4c0a:	98 ab       	std	Y+48, r25	; 0x30
    4c0c:	8f a7       	std	Y+47, r24	; 0x2f
    4c0e:	3f c0       	rjmp	.+126    	; 0x4c8e <LCD_init+0x3ac>
	else if (__tmp > 65535)
    4c10:	69 a9       	ldd	r22, Y+49	; 0x31
    4c12:	7a a9       	ldd	r23, Y+50	; 0x32
    4c14:	8b a9       	ldd	r24, Y+51	; 0x33
    4c16:	9c a9       	ldd	r25, Y+52	; 0x34
    4c18:	20 e0       	ldi	r18, 0x00	; 0
    4c1a:	3f ef       	ldi	r19, 0xFF	; 255
    4c1c:	4f e7       	ldi	r20, 0x7F	; 127
    4c1e:	57 e4       	ldi	r21, 0x47	; 71
    4c20:	0e 94 a2 04 	call	0x944	; 0x944 <__gtsf2>
    4c24:	18 16       	cp	r1, r24
    4c26:	4c f5       	brge	.+82     	; 0x4c7a <LCD_init+0x398>
	{
		//	__ticks = requested delay in 1/10 ms
		__ticks = (uint16_t) (__ms * 10.0);
    4c28:	6d a9       	ldd	r22, Y+53	; 0x35
    4c2a:	7e a9       	ldd	r23, Y+54	; 0x36
    4c2c:	8f a9       	ldd	r24, Y+55	; 0x37
    4c2e:	98 ad       	ldd	r25, Y+56	; 0x38
    4c30:	20 e0       	ldi	r18, 0x00	; 0
    4c32:	30 e0       	ldi	r19, 0x00	; 0
    4c34:	40 e2       	ldi	r20, 0x20	; 32
    4c36:	51 e4       	ldi	r21, 0x41	; 65
    4c38:	0e 94 9c 02 	call	0x538	; 0x538 <__mulsf3>
    4c3c:	dc 01       	movw	r26, r24
    4c3e:	cb 01       	movw	r24, r22
    4c40:	bc 01       	movw	r22, r24
    4c42:	cd 01       	movw	r24, r26
    4c44:	0e 94 c6 00 	call	0x18c	; 0x18c <__fixunssfsi>
    4c48:	dc 01       	movw	r26, r24
    4c4a:	cb 01       	movw	r24, r22
    4c4c:	98 ab       	std	Y+48, r25	; 0x30
    4c4e:	8f a7       	std	Y+47, r24	; 0x2f
    4c50:	0f c0       	rjmp	.+30     	; 0x4c70 <LCD_init+0x38e>
    4c52:	80 e9       	ldi	r24, 0x90	; 144
    4c54:	91 e0       	ldi	r25, 0x01	; 1
    4c56:	9e a7       	std	Y+46, r25	; 0x2e
    4c58:	8d a7       	std	Y+45, r24	; 0x2d
    4c5a:	8d a5       	ldd	r24, Y+45	; 0x2d
    4c5c:	9e a5       	ldd	r25, Y+46	; 0x2e
    4c5e:	01 97       	sbiw	r24, 0x01	; 1
    4c60:	f1 f7       	brne	.-4      	; 0x4c5e <LCD_init+0x37c>
    4c62:	9e a7       	std	Y+46, r25	; 0x2e
    4c64:	8d a7       	std	Y+45, r24	; 0x2d
		while(__ticks)
		{
			// wait 1/10 ms
			_delay_loop_2(((F_CPU) / 4e3) / 10);
			__ticks --;
    4c66:	8f a5       	ldd	r24, Y+47	; 0x2f
    4c68:	98 a9       	ldd	r25, Y+48	; 0x30
    4c6a:	01 97       	sbiw	r24, 0x01	; 1
    4c6c:	98 ab       	std	Y+48, r25	; 0x30
    4c6e:	8f a7       	std	Y+47, r24	; 0x2f
		__ticks = 1;
	else if (__tmp > 65535)
	{
		//	__ticks = requested delay in 1/10 ms
		__ticks = (uint16_t) (__ms * 10.0);
		while(__ticks)
    4c70:	8f a5       	ldd	r24, Y+47	; 0x2f
    4c72:	98 a9       	ldd	r25, Y+48	; 0x30
    4c74:	00 97       	sbiw	r24, 0x00	; 0
    4c76:	69 f7       	brne	.-38     	; 0x4c52 <LCD_init+0x370>
    4c78:	14 c0       	rjmp	.+40     	; 0x4ca2 <LCD_init+0x3c0>
			__ticks --;
		}
		return;
	}
	else
		__ticks = (uint16_t)__tmp;
    4c7a:	69 a9       	ldd	r22, Y+49	; 0x31
    4c7c:	7a a9       	ldd	r23, Y+50	; 0x32
    4c7e:	8b a9       	ldd	r24, Y+51	; 0x33
    4c80:	9c a9       	ldd	r25, Y+52	; 0x34
    4c82:	0e 94 c6 00 	call	0x18c	; 0x18c <__fixunssfsi>
    4c86:	dc 01       	movw	r26, r24
    4c88:	cb 01       	movw	r24, r22
    4c8a:	98 ab       	std	Y+48, r25	; 0x30
    4c8c:	8f a7       	std	Y+47, r24	; 0x2f
    4c8e:	8f a5       	ldd	r24, Y+47	; 0x2f
    4c90:	98 a9       	ldd	r25, Y+48	; 0x30
    4c92:	9c a7       	std	Y+44, r25	; 0x2c
    4c94:	8b a7       	std	Y+43, r24	; 0x2b
    4c96:	8b a5       	ldd	r24, Y+43	; 0x2b
    4c98:	9c a5       	ldd	r25, Y+44	; 0x2c
    4c9a:	01 97       	sbiw	r24, 0x01	; 1
    4c9c:	f1 f7       	brne	.-4      	; 0x4c9a <LCD_init+0x3b8>
    4c9e:	9c a7       	std	Y+44, r25	; 0x2c
    4ca0:	8b a7       	std	Y+43, r24	; 0x2b
	_delay_ms(1);

	LCD_writecmd(0x0E); //appearing cursor
    4ca2:	8e e0       	ldi	r24, 0x0E	; 14
    4ca4:	0e 94 01 22 	call	0x4402	; 0x4402 <LCD_writecmd>
    4ca8:	80 e0       	ldi	r24, 0x00	; 0
    4caa:	90 e0       	ldi	r25, 0x00	; 0
    4cac:	a0 e8       	ldi	r26, 0x80	; 128
    4cae:	bf e3       	ldi	r27, 0x3F	; 63
    4cb0:	8f a3       	std	Y+39, r24	; 0x27
    4cb2:	98 a7       	std	Y+40, r25	; 0x28
    4cb4:	a9 a7       	std	Y+41, r26	; 0x29
    4cb6:	ba a7       	std	Y+42, r27	; 0x2a
 */
void
_delay_ms(double __ms)
{
	uint16_t __ticks;
	double __tmp = ((F_CPU) / 4e3) * __ms;
    4cb8:	6f a1       	ldd	r22, Y+39	; 0x27
    4cba:	78 a5       	ldd	r23, Y+40	; 0x28
    4cbc:	89 a5       	ldd	r24, Y+41	; 0x29
    4cbe:	9a a5       	ldd	r25, Y+42	; 0x2a
    4cc0:	20 e0       	ldi	r18, 0x00	; 0
    4cc2:	30 e0       	ldi	r19, 0x00	; 0
    4cc4:	4a e7       	ldi	r20, 0x7A	; 122
    4cc6:	55 e4       	ldi	r21, 0x45	; 69
    4cc8:	0e 94 9c 02 	call	0x538	; 0x538 <__mulsf3>
    4ccc:	dc 01       	movw	r26, r24
    4cce:	cb 01       	movw	r24, r22
    4cd0:	8b a3       	std	Y+35, r24	; 0x23
    4cd2:	9c a3       	std	Y+36, r25	; 0x24
    4cd4:	ad a3       	std	Y+37, r26	; 0x25
    4cd6:	be a3       	std	Y+38, r27	; 0x26
	if (__tmp < 1.0)
    4cd8:	6b a1       	ldd	r22, Y+35	; 0x23
    4cda:	7c a1       	ldd	r23, Y+36	; 0x24
    4cdc:	8d a1       	ldd	r24, Y+37	; 0x25
    4cde:	9e a1       	ldd	r25, Y+38	; 0x26
    4ce0:	20 e0       	ldi	r18, 0x00	; 0
    4ce2:	30 e0       	ldi	r19, 0x00	; 0
    4ce4:	40 e8       	ldi	r20, 0x80	; 128
    4ce6:	5f e3       	ldi	r21, 0x3F	; 63
    4ce8:	0e 94 02 05 	call	0xa04	; 0xa04 <__ltsf2>
    4cec:	88 23       	and	r24, r24
    4cee:	2c f4       	brge	.+10     	; 0x4cfa <LCD_init+0x418>
		__ticks = 1;
    4cf0:	81 e0       	ldi	r24, 0x01	; 1
    4cf2:	90 e0       	ldi	r25, 0x00	; 0
    4cf4:	9a a3       	std	Y+34, r25	; 0x22
    4cf6:	89 a3       	std	Y+33, r24	; 0x21
    4cf8:	3f c0       	rjmp	.+126    	; 0x4d78 <LCD_init+0x496>
	else if (__tmp > 65535)
    4cfa:	6b a1       	ldd	r22, Y+35	; 0x23
    4cfc:	7c a1       	ldd	r23, Y+36	; 0x24
    4cfe:	8d a1       	ldd	r24, Y+37	; 0x25
    4d00:	9e a1       	ldd	r25, Y+38	; 0x26
    4d02:	20 e0       	ldi	r18, 0x00	; 0
    4d04:	3f ef       	ldi	r19, 0xFF	; 255
    4d06:	4f e7       	ldi	r20, 0x7F	; 127
    4d08:	57 e4       	ldi	r21, 0x47	; 71
    4d0a:	0e 94 a2 04 	call	0x944	; 0x944 <__gtsf2>
    4d0e:	18 16       	cp	r1, r24
    4d10:	4c f5       	brge	.+82     	; 0x4d64 <LCD_init+0x482>
	{
		//	__ticks = requested delay in 1/10 ms
		__ticks = (uint16_t) (__ms * 10.0);
    4d12:	6f a1       	ldd	r22, Y+39	; 0x27
    4d14:	78 a5       	ldd	r23, Y+40	; 0x28
    4d16:	89 a5       	ldd	r24, Y+41	; 0x29
    4d18:	9a a5       	ldd	r25, Y+42	; 0x2a
    4d1a:	20 e0       	ldi	r18, 0x00	; 0
    4d1c:	30 e0       	ldi	r19, 0x00	; 0
    4d1e:	40 e2       	ldi	r20, 0x20	; 32
    4d20:	51 e4       	ldi	r21, 0x41	; 65
    4d22:	0e 94 9c 02 	call	0x538	; 0x538 <__mulsf3>
    4d26:	dc 01       	movw	r26, r24
    4d28:	cb 01       	movw	r24, r22
    4d2a:	bc 01       	movw	r22, r24
    4d2c:	cd 01       	movw	r24, r26
    4d2e:	0e 94 c6 00 	call	0x18c	; 0x18c <__fixunssfsi>
    4d32:	dc 01       	movw	r26, r24
    4d34:	cb 01       	movw	r24, r22
    4d36:	9a a3       	std	Y+34, r25	; 0x22
    4d38:	89 a3       	std	Y+33, r24	; 0x21
    4d3a:	0f c0       	rjmp	.+30     	; 0x4d5a <LCD_init+0x478>
    4d3c:	80 e9       	ldi	r24, 0x90	; 144
    4d3e:	91 e0       	ldi	r25, 0x01	; 1
    4d40:	98 a3       	std	Y+32, r25	; 0x20
    4d42:	8f 8f       	std	Y+31, r24	; 0x1f
    4d44:	8f 8d       	ldd	r24, Y+31	; 0x1f
    4d46:	98 a1       	ldd	r25, Y+32	; 0x20
    4d48:	01 97       	sbiw	r24, 0x01	; 1
    4d4a:	f1 f7       	brne	.-4      	; 0x4d48 <LCD_init+0x466>
    4d4c:	98 a3       	std	Y+32, r25	; 0x20
    4d4e:	8f 8f       	std	Y+31, r24	; 0x1f
		while(__ticks)
		{
			// wait 1/10 ms
			_delay_loop_2(((F_CPU) / 4e3) / 10);
			__ticks --;
    4d50:	89 a1       	ldd	r24, Y+33	; 0x21
    4d52:	9a a1       	ldd	r25, Y+34	; 0x22
    4d54:	01 97       	sbiw	r24, 0x01	; 1
    4d56:	9a a3       	std	Y+34, r25	; 0x22
    4d58:	89 a3       	std	Y+33, r24	; 0x21
		__ticks = 1;
	else if (__tmp > 65535)
	{
		//	__ticks = requested delay in 1/10 ms
		__ticks = (uint16_t) (__ms * 10.0);
		while(__ticks)
    4d5a:	89 a1       	ldd	r24, Y+33	; 0x21
    4d5c:	9a a1       	ldd	r25, Y+34	; 0x22
    4d5e:	00 97       	sbiw	r24, 0x00	; 0
    4d60:	69 f7       	brne	.-38     	; 0x4d3c <LCD_init+0x45a>
    4d62:	14 c0       	rjmp	.+40     	; 0x4d8c <LCD_init+0x4aa>
			__ticks --;
		}
		return;
	}
	else
		__ticks = (uint16_t)__tmp;
    4d64:	6b a1       	ldd	r22, Y+35	; 0x23
    4d66:	7c a1       	ldd	r23, Y+36	; 0x24
    4d68:	8d a1       	ldd	r24, Y+37	; 0x25
    4d6a:	9e a1       	ldd	r25, Y+38	; 0x26
    4d6c:	0e 94 c6 00 	call	0x18c	; 0x18c <__fixunssfsi>
    4d70:	dc 01       	movw	r26, r24
    4d72:	cb 01       	movw	r24, r22
    4d74:	9a a3       	std	Y+34, r25	; 0x22
    4d76:	89 a3       	std	Y+33, r24	; 0x21
    4d78:	89 a1       	ldd	r24, Y+33	; 0x21
    4d7a:	9a a1       	ldd	r25, Y+34	; 0x22
    4d7c:	9e 8f       	std	Y+30, r25	; 0x1e
    4d7e:	8d 8f       	std	Y+29, r24	; 0x1d
    4d80:	8d 8d       	ldd	r24, Y+29	; 0x1d
    4d82:	9e 8d       	ldd	r25, Y+30	; 0x1e
    4d84:	01 97       	sbiw	r24, 0x01	; 1
    4d86:	f1 f7       	brne	.-4      	; 0x4d84 <LCD_init+0x4a2>
    4d88:	9e 8f       	std	Y+30, r25	; 0x1e
    4d8a:	8d 8f       	std	Y+29, r24	; 0x1d
	_delay_ms(1);

	LCD_writecmd(0x01); //clear command
    4d8c:	81 e0       	ldi	r24, 0x01	; 1
    4d8e:	0e 94 01 22 	call	0x4402	; 0x4402 <LCD_writecmd>
    4d92:	80 e0       	ldi	r24, 0x00	; 0
    4d94:	90 e0       	ldi	r25, 0x00	; 0
    4d96:	a0 ea       	ldi	r26, 0xA0	; 160
    4d98:	b0 e4       	ldi	r27, 0x40	; 64
    4d9a:	89 8f       	std	Y+25, r24	; 0x19
    4d9c:	9a 8f       	std	Y+26, r25	; 0x1a
    4d9e:	ab 8f       	std	Y+27, r26	; 0x1b
    4da0:	bc 8f       	std	Y+28, r27	; 0x1c
 */
void
_delay_ms(double __ms)
{
	uint16_t __ticks;
	double __tmp = ((F_CPU) / 4e3) * __ms;
    4da2:	69 8d       	ldd	r22, Y+25	; 0x19
    4da4:	7a 8d       	ldd	r23, Y+26	; 0x1a
    4da6:	8b 8d       	ldd	r24, Y+27	; 0x1b
    4da8:	9c 8d       	ldd	r25, Y+28	; 0x1c
    4daa:	20 e0       	ldi	r18, 0x00	; 0
    4dac:	30 e0       	ldi	r19, 0x00	; 0
    4dae:	4a e7       	ldi	r20, 0x7A	; 122
    4db0:	55 e4       	ldi	r21, 0x45	; 69
    4db2:	0e 94 9c 02 	call	0x538	; 0x538 <__mulsf3>
    4db6:	dc 01       	movw	r26, r24
    4db8:	cb 01       	movw	r24, r22
    4dba:	8d 8b       	std	Y+21, r24	; 0x15
    4dbc:	9e 8b       	std	Y+22, r25	; 0x16
    4dbe:	af 8b       	std	Y+23, r26	; 0x17
    4dc0:	b8 8f       	std	Y+24, r27	; 0x18
	if (__tmp < 1.0)
    4dc2:	6d 89       	ldd	r22, Y+21	; 0x15
    4dc4:	7e 89       	ldd	r23, Y+22	; 0x16
    4dc6:	8f 89       	ldd	r24, Y+23	; 0x17
    4dc8:	98 8d       	ldd	r25, Y+24	; 0x18
    4dca:	20 e0       	ldi	r18, 0x00	; 0
    4dcc:	30 e0       	ldi	r19, 0x00	; 0
    4dce:	40 e8       	ldi	r20, 0x80	; 128
    4dd0:	5f e3       	ldi	r21, 0x3F	; 63
    4dd2:	0e 94 02 05 	call	0xa04	; 0xa04 <__ltsf2>
    4dd6:	88 23       	and	r24, r24
    4dd8:	2c f4       	brge	.+10     	; 0x4de4 <LCD_init+0x502>
		__ticks = 1;
    4dda:	81 e0       	ldi	r24, 0x01	; 1
    4ddc:	90 e0       	ldi	r25, 0x00	; 0
    4dde:	9c 8b       	std	Y+20, r25	; 0x14
    4de0:	8b 8b       	std	Y+19, r24	; 0x13
    4de2:	3f c0       	rjmp	.+126    	; 0x4e62 <LCD_init+0x580>
	else if (__tmp > 65535)
    4de4:	6d 89       	ldd	r22, Y+21	; 0x15
    4de6:	7e 89       	ldd	r23, Y+22	; 0x16
    4de8:	8f 89       	ldd	r24, Y+23	; 0x17
    4dea:	98 8d       	ldd	r25, Y+24	; 0x18
    4dec:	20 e0       	ldi	r18, 0x00	; 0
    4dee:	3f ef       	ldi	r19, 0xFF	; 255
    4df0:	4f e7       	ldi	r20, 0x7F	; 127
    4df2:	57 e4       	ldi	r21, 0x47	; 71
    4df4:	0e 94 a2 04 	call	0x944	; 0x944 <__gtsf2>
    4df8:	18 16       	cp	r1, r24
    4dfa:	4c f5       	brge	.+82     	; 0x4e4e <LCD_init+0x56c>
	{
		//	__ticks = requested delay in 1/10 ms
		__ticks = (uint16_t) (__ms * 10.0);
    4dfc:	69 8d       	ldd	r22, Y+25	; 0x19
    4dfe:	7a 8d       	ldd	r23, Y+26	; 0x1a
    4e00:	8b 8d       	ldd	r24, Y+27	; 0x1b
    4e02:	9c 8d       	ldd	r25, Y+28	; 0x1c
    4e04:	20 e0       	ldi	r18, 0x00	; 0
    4e06:	30 e0       	ldi	r19, 0x00	; 0
    4e08:	40 e2       	ldi	r20, 0x20	; 32
    4e0a:	51 e4       	ldi	r21, 0x41	; 65
    4e0c:	0e 94 9c 02 	call	0x538	; 0x538 <__mulsf3>
    4e10:	dc 01       	movw	r26, r24
    4e12:	cb 01       	movw	r24, r22
    4e14:	bc 01       	movw	r22, r24
    4e16:	cd 01       	movw	r24, r26
    4e18:	0e 94 c6 00 	call	0x18c	; 0x18c <__fixunssfsi>
    4e1c:	dc 01       	movw	r26, r24
    4e1e:	cb 01       	movw	r24, r22
    4e20:	9c 8b       	std	Y+20, r25	; 0x14
    4e22:	8b 8b       	std	Y+19, r24	; 0x13
    4e24:	0f c0       	rjmp	.+30     	; 0x4e44 <LCD_init+0x562>
    4e26:	80 e9       	ldi	r24, 0x90	; 144
    4e28:	91 e0       	ldi	r25, 0x01	; 1
    4e2a:	9a 8b       	std	Y+18, r25	; 0x12
    4e2c:	89 8b       	std	Y+17, r24	; 0x11
    4e2e:	89 89       	ldd	r24, Y+17	; 0x11
    4e30:	9a 89       	ldd	r25, Y+18	; 0x12
    4e32:	01 97       	sbiw	r24, 0x01	; 1
    4e34:	f1 f7       	brne	.-4      	; 0x4e32 <LCD_init+0x550>
    4e36:	9a 8b       	std	Y+18, r25	; 0x12
    4e38:	89 8b       	std	Y+17, r24	; 0x11
		while(__ticks)
		{
			// wait 1/10 ms
			_delay_loop_2(((F_CPU) / 4e3) / 10);
			__ticks --;
    4e3a:	8b 89       	ldd	r24, Y+19	; 0x13
    4e3c:	9c 89       	ldd	r25, Y+20	; 0x14
    4e3e:	01 97       	sbiw	r24, 0x01	; 1
    4e40:	9c 8b       	std	Y+20, r25	; 0x14
    4e42:	8b 8b       	std	Y+19, r24	; 0x13
		__ticks = 1;
	else if (__tmp > 65535)
	{
		//	__ticks = requested delay in 1/10 ms
		__ticks = (uint16_t) (__ms * 10.0);
		while(__ticks)
    4e44:	8b 89       	ldd	r24, Y+19	; 0x13
    4e46:	9c 89       	ldd	r25, Y+20	; 0x14
    4e48:	00 97       	sbiw	r24, 0x00	; 0
    4e4a:	69 f7       	brne	.-38     	; 0x4e26 <LCD_init+0x544>
    4e4c:	14 c0       	rjmp	.+40     	; 0x4e76 <LCD_init+0x594>
			__ticks --;
		}
		return;
	}
	else
		__ticks = (uint16_t)__tmp;
    4e4e:	6d 89       	ldd	r22, Y+21	; 0x15
    4e50:	7e 89       	ldd	r23, Y+22	; 0x16
    4e52:	8f 89       	ldd	r24, Y+23	; 0x17
    4e54:	98 8d       	ldd	r25, Y+24	; 0x18
    4e56:	0e 94 c6 00 	call	0x18c	; 0x18c <__fixunssfsi>
    4e5a:	dc 01       	movw	r26, r24
    4e5c:	cb 01       	movw	r24, r22
    4e5e:	9c 8b       	std	Y+20, r25	; 0x14
    4e60:	8b 8b       	std	Y+19, r24	; 0x13
    4e62:	8b 89       	ldd	r24, Y+19	; 0x13
    4e64:	9c 89       	ldd	r25, Y+20	; 0x14
    4e66:	98 8b       	std	Y+16, r25	; 0x10
    4e68:	8f 87       	std	Y+15, r24	; 0x0f
    4e6a:	8f 85       	ldd	r24, Y+15	; 0x0f
    4e6c:	98 89       	ldd	r25, Y+16	; 0x10
    4e6e:	01 97       	sbiw	r24, 0x01	; 1
    4e70:	f1 f7       	brne	.-4      	; 0x4e6e <LCD_init+0x58c>
    4e72:	98 8b       	std	Y+16, r25	; 0x10
    4e74:	8f 87       	std	Y+15, r24	; 0x0f
	_delay_ms(5);

	LCD_writecmd(0x06);
    4e76:	86 e0       	ldi	r24, 0x06	; 6
    4e78:	0e 94 01 22 	call	0x4402	; 0x4402 <LCD_writecmd>
    4e7c:	80 e0       	ldi	r24, 0x00	; 0
    4e7e:	90 e0       	ldi	r25, 0x00	; 0
    4e80:	a0 e8       	ldi	r26, 0x80	; 128
    4e82:	bf e3       	ldi	r27, 0x3F	; 63
    4e84:	8b 87       	std	Y+11, r24	; 0x0b
    4e86:	9c 87       	std	Y+12, r25	; 0x0c
    4e88:	ad 87       	std	Y+13, r26	; 0x0d
    4e8a:	be 87       	std	Y+14, r27	; 0x0e
 */
void
_delay_ms(double __ms)
{
	uint16_t __ticks;
	double __tmp = ((F_CPU) / 4e3) * __ms;
    4e8c:	6b 85       	ldd	r22, Y+11	; 0x0b
    4e8e:	7c 85       	ldd	r23, Y+12	; 0x0c
    4e90:	8d 85       	ldd	r24, Y+13	; 0x0d
    4e92:	9e 85       	ldd	r25, Y+14	; 0x0e
    4e94:	20 e0       	ldi	r18, 0x00	; 0
    4e96:	30 e0       	ldi	r19, 0x00	; 0
    4e98:	4a e7       	ldi	r20, 0x7A	; 122
    4e9a:	55 e4       	ldi	r21, 0x45	; 69
    4e9c:	0e 94 9c 02 	call	0x538	; 0x538 <__mulsf3>
    4ea0:	dc 01       	movw	r26, r24
    4ea2:	cb 01       	movw	r24, r22
    4ea4:	8f 83       	std	Y+7, r24	; 0x07
    4ea6:	98 87       	std	Y+8, r25	; 0x08
    4ea8:	a9 87       	std	Y+9, r26	; 0x09
    4eaa:	ba 87       	std	Y+10, r27	; 0x0a
	if (__tmp < 1.0)
    4eac:	6f 81       	ldd	r22, Y+7	; 0x07
    4eae:	78 85       	ldd	r23, Y+8	; 0x08
    4eb0:	89 85       	ldd	r24, Y+9	; 0x09
    4eb2:	9a 85       	ldd	r25, Y+10	; 0x0a
    4eb4:	20 e0       	ldi	r18, 0x00	; 0
    4eb6:	30 e0       	ldi	r19, 0x00	; 0
    4eb8:	40 e8       	ldi	r20, 0x80	; 128
    4eba:	5f e3       	ldi	r21, 0x3F	; 63
    4ebc:	0e 94 02 05 	call	0xa04	; 0xa04 <__ltsf2>
    4ec0:	88 23       	and	r24, r24
    4ec2:	2c f4       	brge	.+10     	; 0x4ece <LCD_init+0x5ec>
		__ticks = 1;
    4ec4:	81 e0       	ldi	r24, 0x01	; 1
    4ec6:	90 e0       	ldi	r25, 0x00	; 0
    4ec8:	9e 83       	std	Y+6, r25	; 0x06
    4eca:	8d 83       	std	Y+5, r24	; 0x05
    4ecc:	3f c0       	rjmp	.+126    	; 0x4f4c <LCD_init+0x66a>
	else if (__tmp > 65535)
    4ece:	6f 81       	ldd	r22, Y+7	; 0x07
    4ed0:	78 85       	ldd	r23, Y+8	; 0x08
    4ed2:	89 85       	ldd	r24, Y+9	; 0x09
    4ed4:	9a 85       	ldd	r25, Y+10	; 0x0a
    4ed6:	20 e0       	ldi	r18, 0x00	; 0
    4ed8:	3f ef       	ldi	r19, 0xFF	; 255
    4eda:	4f e7       	ldi	r20, 0x7F	; 127
    4edc:	57 e4       	ldi	r21, 0x47	; 71
    4ede:	0e 94 a2 04 	call	0x944	; 0x944 <__gtsf2>
    4ee2:	18 16       	cp	r1, r24
    4ee4:	4c f5       	brge	.+82     	; 0x4f38 <LCD_init+0x656>
	{
		//	__ticks = requested delay in 1/10 ms
		__ticks = (uint16_t) (__ms * 10.0);
    4ee6:	6b 85       	ldd	r22, Y+11	; 0x0b
    4ee8:	7c 85       	ldd	r23, Y+12	; 0x0c
    4eea:	8d 85       	ldd	r24, Y+13	; 0x0d
    4eec:	9e 85       	ldd	r25, Y+14	; 0x0e
    4eee:	20 e0       	ldi	r18, 0x00	; 0
    4ef0:	30 e0       	ldi	r19, 0x00	; 0
    4ef2:	40 e2       	ldi	r20, 0x20	; 32
    4ef4:	51 e4       	ldi	r21, 0x41	; 65
    4ef6:	0e 94 9c 02 	call	0x538	; 0x538 <__mulsf3>
    4efa:	dc 01       	movw	r26, r24
    4efc:	cb 01       	movw	r24, r22
    4efe:	bc 01       	movw	r22, r24
    4f00:	cd 01       	movw	r24, r26
    4f02:	0e 94 c6 00 	call	0x18c	; 0x18c <__fixunssfsi>
    4f06:	dc 01       	movw	r26, r24
    4f08:	cb 01       	movw	r24, r22
    4f0a:	9e 83       	std	Y+6, r25	; 0x06
    4f0c:	8d 83       	std	Y+5, r24	; 0x05
    4f0e:	0f c0       	rjmp	.+30     	; 0x4f2e <LCD_init+0x64c>
    4f10:	80 e9       	ldi	r24, 0x90	; 144
    4f12:	91 e0       	ldi	r25, 0x01	; 1
    4f14:	9c 83       	std	Y+4, r25	; 0x04
    4f16:	8b 83       	std	Y+3, r24	; 0x03
    4f18:	8b 81       	ldd	r24, Y+3	; 0x03
    4f1a:	9c 81       	ldd	r25, Y+4	; 0x04
    4f1c:	01 97       	sbiw	r24, 0x01	; 1
    4f1e:	f1 f7       	brne	.-4      	; 0x4f1c <LCD_init+0x63a>
    4f20:	9c 83       	std	Y+4, r25	; 0x04
    4f22:	8b 83       	std	Y+3, r24	; 0x03
		while(__ticks)
		{
			// wait 1/10 ms
			_delay_loop_2(((F_CPU) / 4e3) / 10);
			__ticks --;
    4f24:	8d 81       	ldd	r24, Y+5	; 0x05
    4f26:	9e 81       	ldd	r25, Y+6	; 0x06
    4f28:	01 97       	sbiw	r24, 0x01	; 1
    4f2a:	9e 83       	std	Y+6, r25	; 0x06
    4f2c:	8d 83       	std	Y+5, r24	; 0x05
		__ticks = 1;
	else if (__tmp > 65535)
	{
		//	__ticks = requested delay in 1/10 ms
		__ticks = (uint16_t) (__ms * 10.0);
		while(__ticks)
    4f2e:	8d 81       	ldd	r24, Y+5	; 0x05
    4f30:	9e 81       	ldd	r25, Y+6	; 0x06
    4f32:	00 97       	sbiw	r24, 0x00	; 0
    4f34:	69 f7       	brne	.-38     	; 0x4f10 <LCD_init+0x62e>
    4f36:	14 c0       	rjmp	.+40     	; 0x4f60 <LCD_init+0x67e>
			__ticks --;
		}
		return;
	}
	else
		__ticks = (uint16_t)__tmp;
    4f38:	6f 81       	ldd	r22, Y+7	; 0x07
    4f3a:	78 85       	ldd	r23, Y+8	; 0x08
    4f3c:	89 85       	ldd	r24, Y+9	; 0x09
    4f3e:	9a 85       	ldd	r25, Y+10	; 0x0a
    4f40:	0e 94 c6 00 	call	0x18c	; 0x18c <__fixunssfsi>
    4f44:	dc 01       	movw	r26, r24
    4f46:	cb 01       	movw	r24, r22
    4f48:	9e 83       	std	Y+6, r25	; 0x06
    4f4a:	8d 83       	std	Y+5, r24	; 0x05
    4f4c:	8d 81       	ldd	r24, Y+5	; 0x05
    4f4e:	9e 81       	ldd	r25, Y+6	; 0x06
    4f50:	9a 83       	std	Y+2, r25	; 0x02
    4f52:	89 83       	std	Y+1, r24	; 0x01
    4f54:	89 81       	ldd	r24, Y+1	; 0x01
    4f56:	9a 81       	ldd	r25, Y+2	; 0x02
    4f58:	01 97       	sbiw	r24, 0x01	; 1
    4f5a:	f1 f7       	brne	.-4      	; 0x4f58 <LCD_init+0x676>
    4f5c:	9a 83       	std	Y+2, r25	; 0x02
    4f5e:	89 83       	std	Y+1, r24	; 0x01
	_delay_ms(1);

#endif
}
    4f60:	cc 5a       	subi	r28, 0xAC	; 172
    4f62:	df 4f       	sbci	r29, 0xFF	; 255
    4f64:	0f b6       	in	r0, 0x3f	; 63
    4f66:	f8 94       	cli
    4f68:	de bf       	out	0x3e, r29	; 62
    4f6a:	0f be       	out	0x3f, r0	; 63
    4f6c:	cd bf       	out	0x3d, r28	; 61
    4f6e:	cf 91       	pop	r28
    4f70:	df 91       	pop	r29
    4f72:	1f 91       	pop	r17
    4f74:	0f 91       	pop	r16
    4f76:	08 95       	ret

00004f78 <LCD_writestr>:

void LCD_writestr(u8 *ptrstr) {
    4f78:	df 93       	push	r29
    4f7a:	cf 93       	push	r28
    4f7c:	00 d0       	rcall	.+0      	; 0x4f7e <LCD_writestr+0x6>
    4f7e:	0f 92       	push	r0
    4f80:	cd b7       	in	r28, 0x3d	; 61
    4f82:	de b7       	in	r29, 0x3e	; 62
    4f84:	9b 83       	std	Y+3, r25	; 0x03
    4f86:	8a 83       	std	Y+2, r24	; 0x02
	u8 i = 0;
    4f88:	19 82       	std	Y+1, r1	; 0x01
    4f8a:	0e c0       	rjmp	.+28     	; 0x4fa8 <LCD_writestr+0x30>
	while (ptrstr[i] != '\0') {
		LCD_writedata(ptrstr[i]);
    4f8c:	89 81       	ldd	r24, Y+1	; 0x01
    4f8e:	28 2f       	mov	r18, r24
    4f90:	30 e0       	ldi	r19, 0x00	; 0
    4f92:	8a 81       	ldd	r24, Y+2	; 0x02
    4f94:	9b 81       	ldd	r25, Y+3	; 0x03
    4f96:	fc 01       	movw	r30, r24
    4f98:	e2 0f       	add	r30, r18
    4f9a:	f3 1f       	adc	r31, r19
    4f9c:	80 81       	ld	r24, Z
    4f9e:	0e 94 8c 1f 	call	0x3f18	; 0x3f18 <LCD_writedata>
		i++;
    4fa2:	89 81       	ldd	r24, Y+1	; 0x01
    4fa4:	8f 5f       	subi	r24, 0xFF	; 255
    4fa6:	89 83       	std	Y+1, r24	; 0x01
#endif
}

void LCD_writestr(u8 *ptrstr) {
	u8 i = 0;
	while (ptrstr[i] != '\0') {
    4fa8:	89 81       	ldd	r24, Y+1	; 0x01
    4faa:	28 2f       	mov	r18, r24
    4fac:	30 e0       	ldi	r19, 0x00	; 0
    4fae:	8a 81       	ldd	r24, Y+2	; 0x02
    4fb0:	9b 81       	ldd	r25, Y+3	; 0x03
    4fb2:	fc 01       	movw	r30, r24
    4fb4:	e2 0f       	add	r30, r18
    4fb6:	f3 1f       	adc	r31, r19
    4fb8:	80 81       	ld	r24, Z
    4fba:	88 23       	and	r24, r24
    4fbc:	39 f7       	brne	.-50     	; 0x4f8c <LCD_writestr+0x14>
		LCD_writedata(ptrstr[i]);
		i++;
	}
}
    4fbe:	0f 90       	pop	r0
    4fc0:	0f 90       	pop	r0
    4fc2:	0f 90       	pop	r0
    4fc4:	cf 91       	pop	r28
    4fc6:	df 91       	pop	r29
    4fc8:	08 95       	ret

00004fca <LCD_clear>:

void LCD_clear(void) {
    4fca:	df 93       	push	r29
    4fcc:	cf 93       	push	r28
    4fce:	cd b7       	in	r28, 0x3d	; 61
    4fd0:	de b7       	in	r29, 0x3e	; 62
    4fd2:	2e 97       	sbiw	r28, 0x0e	; 14
    4fd4:	0f b6       	in	r0, 0x3f	; 63
    4fd6:	f8 94       	cli
    4fd8:	de bf       	out	0x3e, r29	; 62
    4fda:	0f be       	out	0x3f, r0	; 63
    4fdc:	cd bf       	out	0x3d, r28	; 61
	LCD_writecmd(0x01);
    4fde:	81 e0       	ldi	r24, 0x01	; 1
    4fe0:	0e 94 01 22 	call	0x4402	; 0x4402 <LCD_writecmd>
    4fe4:	80 e0       	ldi	r24, 0x00	; 0
    4fe6:	90 e0       	ldi	r25, 0x00	; 0
    4fe8:	a0 ea       	ldi	r26, 0xA0	; 160
    4fea:	b0 e4       	ldi	r27, 0x40	; 64
    4fec:	8b 87       	std	Y+11, r24	; 0x0b
    4fee:	9c 87       	std	Y+12, r25	; 0x0c
    4ff0:	ad 87       	std	Y+13, r26	; 0x0d
    4ff2:	be 87       	std	Y+14, r27	; 0x0e
 */
void
_delay_ms(double __ms)
{
	uint16_t __ticks;
	double __tmp = ((F_CPU) / 4e3) * __ms;
    4ff4:	6b 85       	ldd	r22, Y+11	; 0x0b
    4ff6:	7c 85       	ldd	r23, Y+12	; 0x0c
    4ff8:	8d 85       	ldd	r24, Y+13	; 0x0d
    4ffa:	9e 85       	ldd	r25, Y+14	; 0x0e
    4ffc:	20 e0       	ldi	r18, 0x00	; 0
    4ffe:	30 e0       	ldi	r19, 0x00	; 0
    5000:	4a e7       	ldi	r20, 0x7A	; 122
    5002:	55 e4       	ldi	r21, 0x45	; 69
    5004:	0e 94 9c 02 	call	0x538	; 0x538 <__mulsf3>
    5008:	dc 01       	movw	r26, r24
    500a:	cb 01       	movw	r24, r22
    500c:	8f 83       	std	Y+7, r24	; 0x07
    500e:	98 87       	std	Y+8, r25	; 0x08
    5010:	a9 87       	std	Y+9, r26	; 0x09
    5012:	ba 87       	std	Y+10, r27	; 0x0a
	if (__tmp < 1.0)
    5014:	6f 81       	ldd	r22, Y+7	; 0x07
    5016:	78 85       	ldd	r23, Y+8	; 0x08
    5018:	89 85       	ldd	r24, Y+9	; 0x09
    501a:	9a 85       	ldd	r25, Y+10	; 0x0a
    501c:	20 e0       	ldi	r18, 0x00	; 0
    501e:	30 e0       	ldi	r19, 0x00	; 0
    5020:	40 e8       	ldi	r20, 0x80	; 128
    5022:	5f e3       	ldi	r21, 0x3F	; 63
    5024:	0e 94 02 05 	call	0xa04	; 0xa04 <__ltsf2>
    5028:	88 23       	and	r24, r24
    502a:	2c f4       	brge	.+10     	; 0x5036 <LCD_clear+0x6c>
		__ticks = 1;
    502c:	81 e0       	ldi	r24, 0x01	; 1
    502e:	90 e0       	ldi	r25, 0x00	; 0
    5030:	9e 83       	std	Y+6, r25	; 0x06
    5032:	8d 83       	std	Y+5, r24	; 0x05
    5034:	3f c0       	rjmp	.+126    	; 0x50b4 <LCD_clear+0xea>
	else if (__tmp > 65535)
    5036:	6f 81       	ldd	r22, Y+7	; 0x07
    5038:	78 85       	ldd	r23, Y+8	; 0x08
    503a:	89 85       	ldd	r24, Y+9	; 0x09
    503c:	9a 85       	ldd	r25, Y+10	; 0x0a
    503e:	20 e0       	ldi	r18, 0x00	; 0
    5040:	3f ef       	ldi	r19, 0xFF	; 255
    5042:	4f e7       	ldi	r20, 0x7F	; 127
    5044:	57 e4       	ldi	r21, 0x47	; 71
    5046:	0e 94 a2 04 	call	0x944	; 0x944 <__gtsf2>
    504a:	18 16       	cp	r1, r24
    504c:	4c f5       	brge	.+82     	; 0x50a0 <LCD_clear+0xd6>
	{
		//	__ticks = requested delay in 1/10 ms
		__ticks = (uint16_t) (__ms * 10.0);
    504e:	6b 85       	ldd	r22, Y+11	; 0x0b
    5050:	7c 85       	ldd	r23, Y+12	; 0x0c
    5052:	8d 85       	ldd	r24, Y+13	; 0x0d
    5054:	9e 85       	ldd	r25, Y+14	; 0x0e
    5056:	20 e0       	ldi	r18, 0x00	; 0
    5058:	30 e0       	ldi	r19, 0x00	; 0
    505a:	40 e2       	ldi	r20, 0x20	; 32
    505c:	51 e4       	ldi	r21, 0x41	; 65
    505e:	0e 94 9c 02 	call	0x538	; 0x538 <__mulsf3>
    5062:	dc 01       	movw	r26, r24
    5064:	cb 01       	movw	r24, r22
    5066:	bc 01       	movw	r22, r24
    5068:	cd 01       	movw	r24, r26
    506a:	0e 94 c6 00 	call	0x18c	; 0x18c <__fixunssfsi>
    506e:	dc 01       	movw	r26, r24
    5070:	cb 01       	movw	r24, r22
    5072:	9e 83       	std	Y+6, r25	; 0x06
    5074:	8d 83       	std	Y+5, r24	; 0x05
    5076:	0f c0       	rjmp	.+30     	; 0x5096 <LCD_clear+0xcc>
    5078:	80 e9       	ldi	r24, 0x90	; 144
    507a:	91 e0       	ldi	r25, 0x01	; 1
    507c:	9c 83       	std	Y+4, r25	; 0x04
    507e:	8b 83       	std	Y+3, r24	; 0x03
    5080:	8b 81       	ldd	r24, Y+3	; 0x03
    5082:	9c 81       	ldd	r25, Y+4	; 0x04
    5084:	01 97       	sbiw	r24, 0x01	; 1
    5086:	f1 f7       	brne	.-4      	; 0x5084 <LCD_clear+0xba>
    5088:	9c 83       	std	Y+4, r25	; 0x04
    508a:	8b 83       	std	Y+3, r24	; 0x03
		while(__ticks)
		{
			// wait 1/10 ms
			_delay_loop_2(((F_CPU) / 4e3) / 10);
			__ticks --;
    508c:	8d 81       	ldd	r24, Y+5	; 0x05
    508e:	9e 81       	ldd	r25, Y+6	; 0x06
    5090:	01 97       	sbiw	r24, 0x01	; 1
    5092:	9e 83       	std	Y+6, r25	; 0x06
    5094:	8d 83       	std	Y+5, r24	; 0x05
		__ticks = 1;
	else if (__tmp > 65535)
	{
		//	__ticks = requested delay in 1/10 ms
		__ticks = (uint16_t) (__ms * 10.0);
		while(__ticks)
    5096:	8d 81       	ldd	r24, Y+5	; 0x05
    5098:	9e 81       	ldd	r25, Y+6	; 0x06
    509a:	00 97       	sbiw	r24, 0x00	; 0
    509c:	69 f7       	brne	.-38     	; 0x5078 <LCD_clear+0xae>
    509e:	14 c0       	rjmp	.+40     	; 0x50c8 <LCD_clear+0xfe>
			__ticks --;
		}
		return;
	}
	else
		__ticks = (uint16_t)__tmp;
    50a0:	6f 81       	ldd	r22, Y+7	; 0x07
    50a2:	78 85       	ldd	r23, Y+8	; 0x08
    50a4:	89 85       	ldd	r24, Y+9	; 0x09
    50a6:	9a 85       	ldd	r25, Y+10	; 0x0a
    50a8:	0e 94 c6 00 	call	0x18c	; 0x18c <__fixunssfsi>
    50ac:	dc 01       	movw	r26, r24
    50ae:	cb 01       	movw	r24, r22
    50b0:	9e 83       	std	Y+6, r25	; 0x06
    50b2:	8d 83       	std	Y+5, r24	; 0x05
    50b4:	8d 81       	ldd	r24, Y+5	; 0x05
    50b6:	9e 81       	ldd	r25, Y+6	; 0x06
    50b8:	9a 83       	std	Y+2, r25	; 0x02
    50ba:	89 83       	std	Y+1, r24	; 0x01
    50bc:	89 81       	ldd	r24, Y+1	; 0x01
    50be:	9a 81       	ldd	r25, Y+2	; 0x02
    50c0:	01 97       	sbiw	r24, 0x01	; 1
    50c2:	f1 f7       	brne	.-4      	; 0x50c0 <LCD_clear+0xf6>
    50c4:	9a 83       	std	Y+2, r25	; 0x02
    50c6:	89 83       	std	Y+1, r24	; 0x01
	_delay_ms(5);
}
    50c8:	2e 96       	adiw	r28, 0x0e	; 14
    50ca:	0f b6       	in	r0, 0x3f	; 63
    50cc:	f8 94       	cli
    50ce:	de bf       	out	0x3e, r29	; 62
    50d0:	0f be       	out	0x3f, r0	; 63
    50d2:	cd bf       	out	0x3d, r28	; 61
    50d4:	cf 91       	pop	r28
    50d6:	df 91       	pop	r29
    50d8:	08 95       	ret

000050da <LCD_shiftdata>:

void LCD_shiftdata(void) {
    50da:	df 93       	push	r29
    50dc:	cf 93       	push	r28
    50de:	cd b7       	in	r28, 0x3d	; 61
    50e0:	de b7       	in	r29, 0x3e	; 62
    50e2:	2e 97       	sbiw	r28, 0x0e	; 14
    50e4:	0f b6       	in	r0, 0x3f	; 63
    50e6:	f8 94       	cli
    50e8:	de bf       	out	0x3e, r29	; 62
    50ea:	0f be       	out	0x3f, r0	; 63
    50ec:	cd bf       	out	0x3d, r28	; 61
	LCD_writecmd(0x1C);
    50ee:	8c e1       	ldi	r24, 0x1C	; 28
    50f0:	0e 94 01 22 	call	0x4402	; 0x4402 <LCD_writecmd>
    50f4:	80 e0       	ldi	r24, 0x00	; 0
    50f6:	90 e0       	ldi	r25, 0x00	; 0
    50f8:	a0 e8       	ldi	r26, 0x80	; 128
    50fa:	bf e3       	ldi	r27, 0x3F	; 63
    50fc:	8b 87       	std	Y+11, r24	; 0x0b
    50fe:	9c 87       	std	Y+12, r25	; 0x0c
    5100:	ad 87       	std	Y+13, r26	; 0x0d
    5102:	be 87       	std	Y+14, r27	; 0x0e
 */
void
_delay_ms(double __ms)
{
	uint16_t __ticks;
	double __tmp = ((F_CPU) / 4e3) * __ms;
    5104:	6b 85       	ldd	r22, Y+11	; 0x0b
    5106:	7c 85       	ldd	r23, Y+12	; 0x0c
    5108:	8d 85       	ldd	r24, Y+13	; 0x0d
    510a:	9e 85       	ldd	r25, Y+14	; 0x0e
    510c:	20 e0       	ldi	r18, 0x00	; 0
    510e:	30 e0       	ldi	r19, 0x00	; 0
    5110:	4a e7       	ldi	r20, 0x7A	; 122
    5112:	55 e4       	ldi	r21, 0x45	; 69
    5114:	0e 94 9c 02 	call	0x538	; 0x538 <__mulsf3>
    5118:	dc 01       	movw	r26, r24
    511a:	cb 01       	movw	r24, r22
    511c:	8f 83       	std	Y+7, r24	; 0x07
    511e:	98 87       	std	Y+8, r25	; 0x08
    5120:	a9 87       	std	Y+9, r26	; 0x09
    5122:	ba 87       	std	Y+10, r27	; 0x0a
	if (__tmp < 1.0)
    5124:	6f 81       	ldd	r22, Y+7	; 0x07
    5126:	78 85       	ldd	r23, Y+8	; 0x08
    5128:	89 85       	ldd	r24, Y+9	; 0x09
    512a:	9a 85       	ldd	r25, Y+10	; 0x0a
    512c:	20 e0       	ldi	r18, 0x00	; 0
    512e:	30 e0       	ldi	r19, 0x00	; 0
    5130:	40 e8       	ldi	r20, 0x80	; 128
    5132:	5f e3       	ldi	r21, 0x3F	; 63
    5134:	0e 94 02 05 	call	0xa04	; 0xa04 <__ltsf2>
    5138:	88 23       	and	r24, r24
    513a:	2c f4       	brge	.+10     	; 0x5146 <LCD_shiftdata+0x6c>
		__ticks = 1;
    513c:	81 e0       	ldi	r24, 0x01	; 1
    513e:	90 e0       	ldi	r25, 0x00	; 0
    5140:	9e 83       	std	Y+6, r25	; 0x06
    5142:	8d 83       	std	Y+5, r24	; 0x05
    5144:	3f c0       	rjmp	.+126    	; 0x51c4 <LCD_shiftdata+0xea>
	else if (__tmp > 65535)
    5146:	6f 81       	ldd	r22, Y+7	; 0x07
    5148:	78 85       	ldd	r23, Y+8	; 0x08
    514a:	89 85       	ldd	r24, Y+9	; 0x09
    514c:	9a 85       	ldd	r25, Y+10	; 0x0a
    514e:	20 e0       	ldi	r18, 0x00	; 0
    5150:	3f ef       	ldi	r19, 0xFF	; 255
    5152:	4f e7       	ldi	r20, 0x7F	; 127
    5154:	57 e4       	ldi	r21, 0x47	; 71
    5156:	0e 94 a2 04 	call	0x944	; 0x944 <__gtsf2>
    515a:	18 16       	cp	r1, r24
    515c:	4c f5       	brge	.+82     	; 0x51b0 <LCD_shiftdata+0xd6>
	{
		//	__ticks = requested delay in 1/10 ms
		__ticks = (uint16_t) (__ms * 10.0);
    515e:	6b 85       	ldd	r22, Y+11	; 0x0b
    5160:	7c 85       	ldd	r23, Y+12	; 0x0c
    5162:	8d 85       	ldd	r24, Y+13	; 0x0d
    5164:	9e 85       	ldd	r25, Y+14	; 0x0e
    5166:	20 e0       	ldi	r18, 0x00	; 0
    5168:	30 e0       	ldi	r19, 0x00	; 0
    516a:	40 e2       	ldi	r20, 0x20	; 32
    516c:	51 e4       	ldi	r21, 0x41	; 65
    516e:	0e 94 9c 02 	call	0x538	; 0x538 <__mulsf3>
    5172:	dc 01       	movw	r26, r24
    5174:	cb 01       	movw	r24, r22
    5176:	bc 01       	movw	r22, r24
    5178:	cd 01       	movw	r24, r26
    517a:	0e 94 c6 00 	call	0x18c	; 0x18c <__fixunssfsi>
    517e:	dc 01       	movw	r26, r24
    5180:	cb 01       	movw	r24, r22
    5182:	9e 83       	std	Y+6, r25	; 0x06
    5184:	8d 83       	std	Y+5, r24	; 0x05
    5186:	0f c0       	rjmp	.+30     	; 0x51a6 <LCD_shiftdata+0xcc>
    5188:	80 e9       	ldi	r24, 0x90	; 144
    518a:	91 e0       	ldi	r25, 0x01	; 1
    518c:	9c 83       	std	Y+4, r25	; 0x04
    518e:	8b 83       	std	Y+3, r24	; 0x03
    5190:	8b 81       	ldd	r24, Y+3	; 0x03
    5192:	9c 81       	ldd	r25, Y+4	; 0x04
    5194:	01 97       	sbiw	r24, 0x01	; 1
    5196:	f1 f7       	brne	.-4      	; 0x5194 <LCD_shiftdata+0xba>
    5198:	9c 83       	std	Y+4, r25	; 0x04
    519a:	8b 83       	std	Y+3, r24	; 0x03
		while(__ticks)
		{
			// wait 1/10 ms
			_delay_loop_2(((F_CPU) / 4e3) / 10);
			__ticks --;
    519c:	8d 81       	ldd	r24, Y+5	; 0x05
    519e:	9e 81       	ldd	r25, Y+6	; 0x06
    51a0:	01 97       	sbiw	r24, 0x01	; 1
    51a2:	9e 83       	std	Y+6, r25	; 0x06
    51a4:	8d 83       	std	Y+5, r24	; 0x05
		__ticks = 1;
	else if (__tmp > 65535)
	{
		//	__ticks = requested delay in 1/10 ms
		__ticks = (uint16_t) (__ms * 10.0);
		while(__ticks)
    51a6:	8d 81       	ldd	r24, Y+5	; 0x05
    51a8:	9e 81       	ldd	r25, Y+6	; 0x06
    51aa:	00 97       	sbiw	r24, 0x00	; 0
    51ac:	69 f7       	brne	.-38     	; 0x5188 <LCD_shiftdata+0xae>
    51ae:	14 c0       	rjmp	.+40     	; 0x51d8 <LCD_shiftdata+0xfe>
			__ticks --;
		}
		return;
	}
	else
		__ticks = (uint16_t)__tmp;
    51b0:	6f 81       	ldd	r22, Y+7	; 0x07
    51b2:	78 85       	ldd	r23, Y+8	; 0x08
    51b4:	89 85       	ldd	r24, Y+9	; 0x09
    51b6:	9a 85       	ldd	r25, Y+10	; 0x0a
    51b8:	0e 94 c6 00 	call	0x18c	; 0x18c <__fixunssfsi>
    51bc:	dc 01       	movw	r26, r24
    51be:	cb 01       	movw	r24, r22
    51c0:	9e 83       	std	Y+6, r25	; 0x06
    51c2:	8d 83       	std	Y+5, r24	; 0x05
    51c4:	8d 81       	ldd	r24, Y+5	; 0x05
    51c6:	9e 81       	ldd	r25, Y+6	; 0x06
    51c8:	9a 83       	std	Y+2, r25	; 0x02
    51ca:	89 83       	std	Y+1, r24	; 0x01
    51cc:	89 81       	ldd	r24, Y+1	; 0x01
    51ce:	9a 81       	ldd	r25, Y+2	; 0x02
    51d0:	01 97       	sbiw	r24, 0x01	; 1
    51d2:	f1 f7       	brne	.-4      	; 0x51d0 <LCD_shiftdata+0xf6>
    51d4:	9a 83       	std	Y+2, r25	; 0x02
    51d6:	89 83       	std	Y+1, r24	; 0x01
	_delay_ms(1);
}
    51d8:	2e 96       	adiw	r28, 0x0e	; 14
    51da:	0f b6       	in	r0, 0x3f	; 63
    51dc:	f8 94       	cli
    51de:	de bf       	out	0x3e, r29	; 62
    51e0:	0f be       	out	0x3f, r0	; 63
    51e2:	cd bf       	out	0x3d, r28	; 61
    51e4:	cf 91       	pop	r28
    51e6:	df 91       	pop	r29
    51e8:	08 95       	ret

000051ea <LCD_movecursor>:

void LCD_movecursor(u8 row, u8 col) {
    51ea:	df 93       	push	r29
    51ec:	cf 93       	push	r28
    51ee:	00 d0       	rcall	.+0      	; 0x51f0 <LCD_movecursor+0x6>
    51f0:	0f 92       	push	r0
    51f2:	cd b7       	in	r28, 0x3d	; 61
    51f4:	de b7       	in	r29, 0x3e	; 62
    51f6:	8a 83       	std	Y+2, r24	; 0x02
    51f8:	6b 83       	std	Y+3, r22	; 0x03
	u8 AC;
	if (row >= 0 && row <= 1) {
    51fa:	8a 81       	ldd	r24, Y+2	; 0x02
    51fc:	82 30       	cpi	r24, 0x02	; 2
    51fe:	80 f4       	brcc	.+32     	; 0x5220 <LCD_movecursor+0x36>
		if (col >= 0 && col <= 15) {
    5200:	8b 81       	ldd	r24, Y+3	; 0x03
    5202:	80 31       	cpi	r24, 0x10	; 16
    5204:	68 f4       	brcc	.+26     	; 0x5220 <LCD_movecursor+0x36>
			if (row == 0) {
    5206:	8a 81       	ldd	r24, Y+2	; 0x02
    5208:	88 23       	and	r24, r24
    520a:	19 f4       	brne	.+6      	; 0x5212 <LCD_movecursor+0x28>
				AC = col;
    520c:	8b 81       	ldd	r24, Y+3	; 0x03
    520e:	89 83       	std	Y+1, r24	; 0x01
    5210:	03 c0       	rjmp	.+6      	; 0x5218 <LCD_movecursor+0x2e>
			} else {
				AC = col + 0x40;
    5212:	8b 81       	ldd	r24, Y+3	; 0x03
    5214:	80 5c       	subi	r24, 0xC0	; 192
    5216:	89 83       	std	Y+1, r24	; 0x01
			}
			LCD_writecmd(AC + 0x80); //to inform that we are calling the DDRAM
    5218:	89 81       	ldd	r24, Y+1	; 0x01
    521a:	80 58       	subi	r24, 0x80	; 128
    521c:	0e 94 01 22 	call	0x4402	; 0x4402 <LCD_writecmd>
		}
	}
}
    5220:	0f 90       	pop	r0
    5222:	0f 90       	pop	r0
    5224:	0f 90       	pop	r0
    5226:	cf 91       	pop	r28
    5228:	df 91       	pop	r29
    522a:	08 95       	ret

0000522c <LCD_writecostumchar>:

void LCD_writecostumchar(u8 arr[], u8 block, u8 row, u8 col) {
    522c:	df 93       	push	r29
    522e:	cf 93       	push	r28
    5230:	00 d0       	rcall	.+0      	; 0x5232 <LCD_writecostumchar+0x6>
    5232:	00 d0       	rcall	.+0      	; 0x5234 <LCD_writecostumchar+0x8>
    5234:	00 d0       	rcall	.+0      	; 0x5236 <LCD_writecostumchar+0xa>
    5236:	cd b7       	in	r28, 0x3d	; 61
    5238:	de b7       	in	r29, 0x3e	; 62
    523a:	9b 83       	std	Y+3, r25	; 0x03
    523c:	8a 83       	std	Y+2, r24	; 0x02
    523e:	6c 83       	std	Y+4, r22	; 0x04
    5240:	4d 83       	std	Y+5, r20	; 0x05
    5242:	2e 83       	std	Y+6, r18	; 0x06
	u8 i;
	LCD_writecmd(0x40 + (block * 8)); //to talk to cgrom
    5244:	8c 81       	ldd	r24, Y+4	; 0x04
    5246:	88 2f       	mov	r24, r24
    5248:	90 e0       	ldi	r25, 0x00	; 0
    524a:	08 96       	adiw	r24, 0x08	; 8
    524c:	88 0f       	add	r24, r24
    524e:	99 1f       	adc	r25, r25
    5250:	88 0f       	add	r24, r24
    5252:	99 1f       	adc	r25, r25
    5254:	88 0f       	add	r24, r24
    5256:	99 1f       	adc	r25, r25
    5258:	0e 94 01 22 	call	0x4402	; 0x4402 <LCD_writecmd>
	for (i = 0; i < 8; i++) {
    525c:	19 82       	std	Y+1, r1	; 0x01
    525e:	0e c0       	rjmp	.+28     	; 0x527c <LCD_writecostumchar+0x50>
		LCD_writedata(arr[i]);
    5260:	89 81       	ldd	r24, Y+1	; 0x01
    5262:	28 2f       	mov	r18, r24
    5264:	30 e0       	ldi	r19, 0x00	; 0
    5266:	8a 81       	ldd	r24, Y+2	; 0x02
    5268:	9b 81       	ldd	r25, Y+3	; 0x03
    526a:	fc 01       	movw	r30, r24
    526c:	e2 0f       	add	r30, r18
    526e:	f3 1f       	adc	r31, r19
    5270:	80 81       	ld	r24, Z
    5272:	0e 94 8c 1f 	call	0x3f18	; 0x3f18 <LCD_writedata>
}

void LCD_writecostumchar(u8 arr[], u8 block, u8 row, u8 col) {
	u8 i;
	LCD_writecmd(0x40 + (block * 8)); //to talk to cgrom
	for (i = 0; i < 8; i++) {
    5276:	89 81       	ldd	r24, Y+1	; 0x01
    5278:	8f 5f       	subi	r24, 0xFF	; 255
    527a:	89 83       	std	Y+1, r24	; 0x01
    527c:	89 81       	ldd	r24, Y+1	; 0x01
    527e:	88 30       	cpi	r24, 0x08	; 8
    5280:	78 f3       	brcs	.-34     	; 0x5260 <LCD_writecostumchar+0x34>
		LCD_writedata(arr[i]);
	}
	LCD_movecursor(row,col);
    5282:	8d 81       	ldd	r24, Y+5	; 0x05
    5284:	6e 81       	ldd	r22, Y+6	; 0x06
    5286:	0e 94 f5 28 	call	0x51ea	; 0x51ea <LCD_movecursor>
	LCD_writedata(block);
    528a:	8c 81       	ldd	r24, Y+4	; 0x04
    528c:	0e 94 8c 1f 	call	0x3f18	; 0x3f18 <LCD_writedata>
}
    5290:	26 96       	adiw	r28, 0x06	; 6
    5292:	0f b6       	in	r0, 0x3f	; 63
    5294:	f8 94       	cli
    5296:	de bf       	out	0x3e, r29	; 62
    5298:	0f be       	out	0x3f, r0	; 63
    529a:	cd bf       	out	0x3d, r28	; 61
    529c:	cf 91       	pop	r28
    529e:	df 91       	pop	r29
    52a0:	08 95       	ret

000052a2 <lcd_sendData>:



static void lcd_sendData(u8 data)
{
    52a2:	df 93       	push	r29
    52a4:	cf 93       	push	r28
    52a6:	0f 92       	push	r0
    52a8:	cd b7       	in	r28, 0x3d	; 61
    52aa:	de b7       	in	r29, 0x3e	; 62
    52ac:	89 83       	std	Y+1, r24	; 0x01
	DIO_SetPinValue(RS_PORT, RS_PIN, DIO_HIGH);
    52ae:	81 e0       	ldi	r24, 0x01	; 1
    52b0:	61 e0       	ldi	r22, 0x01	; 1
    52b2:	41 e0       	ldi	r20, 0x01	; 1
    52b4:	0e 94 ef 13 	call	0x27de	; 0x27de <DIO_SetPinValue>

	DIO_SetPortValue(LCD_PORT, data);
    52b8:	81 e0       	ldi	r24, 0x01	; 1
    52ba:	69 81       	ldd	r22, Y+1	; 0x01
    52bc:	0e 94 77 16 	call	0x2cee	; 0x2cee <DIO_SetPortValue>

}
    52c0:	0f 90       	pop	r0
    52c2:	cf 91       	pop	r28
    52c4:	df 91       	pop	r29
    52c6:	08 95       	ret

000052c8 <lcd_displayChr>:

void lcd_displayChr(u8 chr)
{
    52c8:	df 93       	push	r29
    52ca:	cf 93       	push	r28
    52cc:	0f 92       	push	r0
    52ce:	cd b7       	in	r28, 0x3d	; 61
    52d0:	de b7       	in	r29, 0x3e	; 62
    52d2:	89 83       	std	Y+1, r24	; 0x01
   lcd_sendData (chr);
    52d4:	89 81       	ldd	r24, Y+1	; 0x01
    52d6:	0e 94 51 29 	call	0x52a2	; 0x52a2 <lcd_sendData>
}
    52da:	0f 90       	pop	r0
    52dc:	cf 91       	pop	r28
    52de:	df 91       	pop	r29
    52e0:	08 95       	ret

000052e2 <LCD_print_3_digit>:


void LCD_print_3_digit(u16 digit) {
    52e2:	df 93       	push	r29
    52e4:	cf 93       	push	r28
    52e6:	00 d0       	rcall	.+0      	; 0x52e8 <LCD_print_3_digit+0x6>
    52e8:	00 d0       	rcall	.+0      	; 0x52ea <LCD_print_3_digit+0x8>
    52ea:	cd b7       	in	r28, 0x3d	; 61
    52ec:	de b7       	in	r29, 0x3e	; 62
    52ee:	9c 83       	std	Y+4, r25	; 0x04
    52f0:	8b 83       	std	Y+3, r24	; 0x03

	int display;


	display = digit / 100;
    52f2:	8b 81       	ldd	r24, Y+3	; 0x03
    52f4:	9c 81       	ldd	r25, Y+4	; 0x04
    52f6:	24 e6       	ldi	r18, 0x64	; 100
    52f8:	30 e0       	ldi	r19, 0x00	; 0
    52fa:	b9 01       	movw	r22, r18
    52fc:	0e 94 07 2e 	call	0x5c0e	; 0x5c0e <__udivmodhi4>
    5300:	cb 01       	movw	r24, r22
    5302:	9a 83       	std	Y+2, r25	; 0x02
    5304:	89 83       	std	Y+1, r24	; 0x01
	LCD_writedata(display + '0');
    5306:	89 81       	ldd	r24, Y+1	; 0x01
    5308:	80 5d       	subi	r24, 0xD0	; 208
    530a:	0e 94 8c 1f 	call	0x3f18	; 0x3f18 <LCD_writedata>

	digit = digit % 100;
    530e:	8b 81       	ldd	r24, Y+3	; 0x03
    5310:	9c 81       	ldd	r25, Y+4	; 0x04
    5312:	24 e6       	ldi	r18, 0x64	; 100
    5314:	30 e0       	ldi	r19, 0x00	; 0
    5316:	b9 01       	movw	r22, r18
    5318:	0e 94 07 2e 	call	0x5c0e	; 0x5c0e <__udivmodhi4>
    531c:	9c 83       	std	Y+4, r25	; 0x04
    531e:	8b 83       	std	Y+3, r24	; 0x03



	display = digit / 10;
    5320:	8b 81       	ldd	r24, Y+3	; 0x03
    5322:	9c 81       	ldd	r25, Y+4	; 0x04
    5324:	2a e0       	ldi	r18, 0x0A	; 10
    5326:	30 e0       	ldi	r19, 0x00	; 0
    5328:	b9 01       	movw	r22, r18
    532a:	0e 94 07 2e 	call	0x5c0e	; 0x5c0e <__udivmodhi4>
    532e:	cb 01       	movw	r24, r22
    5330:	9a 83       	std	Y+2, r25	; 0x02
    5332:	89 83       	std	Y+1, r24	; 0x01

	LCD_writedata(display + '0');
    5334:	89 81       	ldd	r24, Y+1	; 0x01
    5336:	80 5d       	subi	r24, 0xD0	; 208
    5338:	0e 94 8c 1f 	call	0x3f18	; 0x3f18 <LCD_writedata>

	digit = digit % 10;
    533c:	8b 81       	ldd	r24, Y+3	; 0x03
    533e:	9c 81       	ldd	r25, Y+4	; 0x04
    5340:	2a e0       	ldi	r18, 0x0A	; 10
    5342:	30 e0       	ldi	r19, 0x00	; 0
    5344:	b9 01       	movw	r22, r18
    5346:	0e 94 07 2e 	call	0x5c0e	; 0x5c0e <__udivmodhi4>
    534a:	9c 83       	std	Y+4, r25	; 0x04
    534c:	8b 83       	std	Y+3, r24	; 0x03

	LCD_writedata(display + '0');
    534e:	89 81       	ldd	r24, Y+1	; 0x01
    5350:	80 5d       	subi	r24, 0xD0	; 208
    5352:	0e 94 8c 1f 	call	0x3f18	; 0x3f18 <LCD_writedata>


}
    5356:	0f 90       	pop	r0
    5358:	0f 90       	pop	r0
    535a:	0f 90       	pop	r0
    535c:	0f 90       	pop	r0
    535e:	cf 91       	pop	r28
    5360:	df 91       	pop	r29
    5362:	08 95       	ret

00005364 <setup_interrupt>:
#include "../MCAL/DIO/DIO.h"
#include "../MCAL/Timer1/Timer1.h"
#include "../MCAL/USART_Online/USART_Online.h"

//-------------Crystal 16MHz initialization-----------
void setup_interrupt() {
    5364:	df 93       	push	r29
    5366:	cf 93       	push	r28
    5368:	cd b7       	in	r28, 0x3d	; 61
    536a:	de b7       	in	r29, 0x3e	; 62
	DDRD &= ~(1<<PD2);
    536c:	a1 e3       	ldi	r26, 0x31	; 49
    536e:	b0 e0       	ldi	r27, 0x00	; 0
    5370:	e1 e3       	ldi	r30, 0x31	; 49
    5372:	f0 e0       	ldi	r31, 0x00	; 0
    5374:	80 81       	ld	r24, Z
    5376:	8b 7f       	andi	r24, 0xFB	; 251
    5378:	8c 93       	st	X, r24
	PORTD |= (1 << PD2);
    537a:	a2 e3       	ldi	r26, 0x32	; 50
    537c:	b0 e0       	ldi	r27, 0x00	; 0
    537e:	e2 e3       	ldi	r30, 0x32	; 50
    5380:	f0 e0       	ldi	r31, 0x00	; 0
    5382:	80 81       	ld	r24, Z
    5384:	84 60       	ori	r24, 0x04	; 4
    5386:	8c 93       	st	X, r24
    MCUCR &= ~((1 << ISC01) | (1 << ISC00)); //low level interrupt
    5388:	a5 e5       	ldi	r26, 0x55	; 85
    538a:	b0 e0       	ldi	r27, 0x00	; 0
    538c:	e5 e5       	ldi	r30, 0x55	; 85
    538e:	f0 e0       	ldi	r31, 0x00	; 0
    5390:	80 81       	ld	r24, Z
    5392:	8c 7f       	andi	r24, 0xFC	; 252
    5394:	8c 93       	st	X, r24
    GICR  |= (1 << INT0);
    5396:	ab e5       	ldi	r26, 0x5B	; 91
    5398:	b0 e0       	ldi	r27, 0x00	; 0
    539a:	eb e5       	ldi	r30, 0x5B	; 91
    539c:	f0 e0       	ldi	r31, 0x00	; 0
    539e:	80 81       	ld	r24, Z
    53a0:	80 64       	ori	r24, 0x40	; 64
    53a2:	8c 93       	st	X, r24
    sei(); //global interrupt
    53a4:	78 94       	sei
}
    53a6:	cf 91       	pop	r28
    53a8:	df 91       	pop	r29
    53aa:	08 95       	ret

000053ac <enter_standby_mode>:


void enter_standby_mode() {
    53ac:	df 93       	push	r29
    53ae:	cf 93       	push	r28
    53b0:	cd b7       	in	r28, 0x3d	; 61
    53b2:	de b7       	in	r29, 0x3e	; 62
    MCUCR |= (1 << SM2) | (1 << SM1) | (1 << SE);
    53b4:	a5 e5       	ldi	r26, 0x55	; 85
    53b6:	b0 e0       	ldi	r27, 0x00	; 0
    53b8:	e5 e5       	ldi	r30, 0x55	; 85
    53ba:	f0 e0       	ldi	r31, 0x00	; 0
    53bc:	80 81       	ld	r24, Z
    53be:	80 6e       	ori	r24, 0xE0	; 224
    53c0:	8c 93       	st	X, r24
    MCUCR &= ~(1 << SM0);
    53c2:	a5 e5       	ldi	r26, 0x55	; 85
    53c4:	b0 e0       	ldi	r27, 0x00	; 0
    53c6:	e5 e5       	ldi	r30, 0x55	; 85
    53c8:	f0 e0       	ldi	r31, 0x00	; 0
    53ca:	80 81       	ld	r24, Z
    53cc:	8f 7e       	andi	r24, 0xEF	; 239
    53ce:	8c 93       	st	X, r24

    asm volatile("sleep");
    53d0:	88 95       	sleep
    MCUCR &= ~(1 << SE);
    53d2:	a5 e5       	ldi	r26, 0x55	; 85
    53d4:	b0 e0       	ldi	r27, 0x00	; 0
    53d6:	e5 e5       	ldi	r30, 0x55	; 85
    53d8:	f0 e0       	ldi	r31, 0x00	; 0
    53da:	80 81       	ld	r24, Z
    53dc:	8f 77       	andi	r24, 0x7F	; 127
    53de:	8c 93       	st	X, r24
}
    53e0:	cf 91       	pop	r28
    53e2:	df 91       	pop	r29
    53e4:	08 95       	ret

000053e6 <__vector_1>:



ISR(INT0_vect) {
    53e6:	1f 92       	push	r1
    53e8:	0f 92       	push	r0
    53ea:	0f b6       	in	r0, 0x3f	; 63
    53ec:	0f 92       	push	r0
    53ee:	11 24       	eor	r1, r1
    53f0:	df 93       	push	r29
    53f2:	cf 93       	push	r28
    53f4:	cd b7       	in	r28, 0x3d	; 61
    53f6:	de b7       	in	r29, 0x3e	; 62

}
    53f8:	cf 91       	pop	r28
    53fa:	df 91       	pop	r29
    53fc:	0f 90       	pop	r0
    53fe:	0f be       	out	0x3f, r0	; 63
    5400:	0f 90       	pop	r0
    5402:	1f 90       	pop	r1
    5404:	18 95       	reti

00005406 <Millis_Increment>:
float beatsPerMinute;
u8 beatAvg;

//--------------Max functions----------
volatile u32 g_millis = 0;
void Millis_Increment(void) {
    5406:	df 93       	push	r29
    5408:	cf 93       	push	r28
    540a:	cd b7       	in	r28, 0x3d	; 61
    540c:	de b7       	in	r29, 0x3e	; 62
	g_millis++;
    540e:	80 91 07 04 	lds	r24, 0x0407
    5412:	90 91 08 04 	lds	r25, 0x0408
    5416:	a0 91 09 04 	lds	r26, 0x0409
    541a:	b0 91 0a 04 	lds	r27, 0x040A
    541e:	01 96       	adiw	r24, 0x01	; 1
    5420:	a1 1d       	adc	r26, r1
    5422:	b1 1d       	adc	r27, r1
    5424:	80 93 07 04 	sts	0x0407, r24
    5428:	90 93 08 04 	sts	0x0408, r25
    542c:	a0 93 09 04 	sts	0x0409, r26
    5430:	b0 93 0a 04 	sts	0x040A, r27
}
    5434:	cf 91       	pop	r28
    5436:	df 91       	pop	r29
    5438:	08 95       	ret

0000543a <millis>:

u32 millis(void) {
    543a:	df 93       	push	r29
    543c:	cf 93       	push	r28
    543e:	cd b7       	in	r28, 0x3d	; 61
    5440:	de b7       	in	r29, 0x3e	; 62
	return g_millis;
    5442:	80 91 07 04 	lds	r24, 0x0407
    5446:	90 91 08 04 	lds	r25, 0x0408
    544a:	a0 91 09 04 	lds	r26, 0x0409
    544e:	b0 91 0a 04 	lds	r27, 0x040A
}
    5452:	bc 01       	movw	r22, r24
    5454:	cd 01       	movw	r24, r26
    5456:	cf 91       	pop	r28
    5458:	df 91       	pop	r29
    545a:	08 95       	ret

0000545c <__vector_7>:

// This stays at the top level, outside any functions
void __vector_7(void) __attribute__((signal));
void __vector_7(void) {
    545c:	1f 92       	push	r1
    545e:	0f 92       	push	r0
    5460:	0f b6       	in	r0, 0x3f	; 63
    5462:	0f 92       	push	r0
    5464:	11 24       	eor	r1, r1
    5466:	8f 93       	push	r24
    5468:	9f 93       	push	r25
    546a:	af 93       	push	r26
    546c:	bf 93       	push	r27
    546e:	df 93       	push	r29
    5470:	cf 93       	push	r28
    5472:	cd b7       	in	r28, 0x3d	; 61
    5474:	de b7       	in	r29, 0x3e	; 62
	g_millis++; // Direct 1ms increment
    5476:	80 91 07 04 	lds	r24, 0x0407
    547a:	90 91 08 04 	lds	r25, 0x0408
    547e:	a0 91 09 04 	lds	r26, 0x0409
    5482:	b0 91 0a 04 	lds	r27, 0x040A
    5486:	01 96       	adiw	r24, 0x01	; 1
    5488:	a1 1d       	adc	r26, r1
    548a:	b1 1d       	adc	r27, r1
    548c:	80 93 07 04 	sts	0x0407, r24
    5490:	90 93 08 04 	sts	0x0408, r25
    5494:	a0 93 09 04 	sts	0x0409, r26
    5498:	b0 93 0a 04 	sts	0x040A, r27
}
    549c:	cf 91       	pop	r28
    549e:	df 91       	pop	r29
    54a0:	bf 91       	pop	r27
    54a2:	af 91       	pop	r26
    54a4:	9f 91       	pop	r25
    54a6:	8f 91       	pop	r24
    54a8:	0f 90       	pop	r0
    54aa:	0f be       	out	0x3f, r0	; 63
    54ac:	0f 90       	pop	r0
    54ae:	1f 90       	pop	r1
    54b0:	18 95       	reti

000054b2 <main>:

int main(void) {
    54b2:	ef 92       	push	r14
    54b4:	ff 92       	push	r15
    54b6:	0f 93       	push	r16
    54b8:	1f 93       	push	r17
    54ba:	df 93       	push	r29
    54bc:	cf 93       	push	r28
    54be:	cd b7       	in	r28, 0x3d	; 61
    54c0:	de b7       	in	r29, 0x3e	; 62
    54c2:	c6 54       	subi	r28, 0x46	; 70
    54c4:	d0 40       	sbci	r29, 0x00	; 0
    54c6:	0f b6       	in	r0, 0x3f	; 63
    54c8:	f8 94       	cli
    54ca:	de bf       	out	0x3e, r29	; 62
    54cc:	0f be       	out	0x3f, r0	; 63
    54ce:	cd bf       	out	0x3d, r28	; 61
	//Local variables for MPU data (pass addresses to driver)
	f32 Ax, Ay, Az, Gx, Gy, Gz;

	u8 fall_step = 0;
    54d0:	1a a6       	std	Y+42, r1	; 0x2a
	u16 stability_counter = 0;
    54d2:	19 a6       	std	Y+41, r1	; 0x29
    54d4:	18 a6       	std	Y+40, r1	; 0x28

//	----------------INITIALIZATION----------------
	USART_Init(9600);
    54d6:	60 e8       	ldi	r22, 0x80	; 128
    54d8:	75 e2       	ldi	r23, 0x25	; 37
    54da:	80 e0       	ldi	r24, 0x00	; 0
    54dc:	90 e0       	ldi	r25, 0x00	; 0
    54de:	0e 94 52 08 	call	0x10a4	; 0x10a4 <USART_Init>
	DIO_InitPin(DIO_PORTC, DIO_PIN5, DIO_OUTPUT);
    54e2:	83 e0       	ldi	r24, 0x03	; 3
    54e4:	65 e0       	ldi	r22, 0x05	; 5
    54e6:	41 e0       	ldi	r20, 0x01	; 1
    54e8:	0e 94 f0 12 	call	0x25e0	; 0x25e0 <DIO_InitPin>

	LED_init(DIO_PORTC, DIO_PIN4);
    54ec:	83 e0       	ldi	r24, 0x03	; 3
    54ee:	64 e0       	ldi	r22, 0x04	; 4
    54f0:	0e 94 49 1f 	call	0x3e92	; 0x3e92 <LED_init>

	LCD_init();
    54f4:	0e 94 71 24 	call	0x48e2	; 0x48e2 <LCD_init>

	// I2C and MPU6050 at address 0x68 (see MPU_6050.h)
	I2C_Masterinit(100000);
    54f8:	60 ea       	ldi	r22, 0xA0	; 160
    54fa:	76 e8       	ldi	r23, 0x86	; 134
    54fc:	81 e0       	ldi	r24, 0x01	; 1
    54fe:	90 e0       	ldi	r25, 0x00	; 0
    5500:	0e 94 9b 11 	call	0x2336	; 0x2336 <I2C_Masterinit>
	MPU6050_Online_Init();
    5504:	0e 94 48 19 	call	0x3290	; 0x3290 <MPU6050_Online_Init>
	///////////MAX30102_Init();

	// Enable global interrupts if needed
	SREG |= (1 << 7);
    5508:	af e5       	ldi	r26, 0x5F	; 95
    550a:	b0 e0       	ldi	r27, 0x00	; 0
    550c:	ef e5       	ldi	r30, 0x5F	; 95
    550e:	f0 e0       	ldi	r31, 0x00	; 0
    5510:	80 81       	ld	r24, Z
    5512:	80 68       	ori	r24, 0x80	; 128
    5514:	8c 93       	st	X, r24

	// Buzzer off
	DIO_SetPinValue(DIO_PORTC, DIO_PIN5, DIO_LOW);
    5516:	83 e0       	ldi	r24, 0x03	; 3
    5518:	65 e0       	ldi	r22, 0x05	; 5
    551a:	40 e0       	ldi	r20, 0x00	; 0
    551c:	0e 94 ef 13 	call	0x27de	; 0x27de <DIO_SetPinValue>

	//-------MAX
	Timer1_Init(TIMER1_PRESCALLER64, TIMER1_CTC);
    5520:	60 e4       	ldi	r22, 0x40	; 64
    5522:	70 e0       	ldi	r23, 0x00	; 0
    5524:	80 e0       	ldi	r24, 0x00	; 0
    5526:	90 e0       	ldi	r25, 0x00	; 0
    5528:	45 e0       	ldi	r20, 0x05	; 5
    552a:	0e 94 95 0a 	call	0x152a	; 0x152a <Timer1_Init>
	OCR1A = 249;        // Sets the 1ms interval for 16MHz clock
    552e:	ea e4       	ldi	r30, 0x4A	; 74
    5530:	f0 e0       	ldi	r31, 0x00	; 0
    5532:	89 ef       	ldi	r24, 0xF9	; 249
    5534:	90 e0       	ldi	r25, 0x00	; 0
    5536:	91 83       	std	Z+1, r25	; 0x01
    5538:	80 83       	st	Z, r24
	SET_BIT(TIMSK, 4);  // Enable Compare Match A interrupt
    553a:	a9 e5       	ldi	r26, 0x59	; 89
    553c:	b0 e0       	ldi	r27, 0x00	; 0
    553e:	e9 e5       	ldi	r30, 0x59	; 89
    5540:	f0 e0       	ldi	r31, 0x00	; 0
    5542:	80 81       	ld	r24, Z
    5544:	80 61       	ori	r24, 0x10	; 16
    5546:	8c 93       	st	X, r24
	SET_BIT(SREG, 7);   // Enable Global Interrupts >>>>>>>>>>>>>>>
    5548:	af e5       	ldi	r26, 0x5F	; 95
    554a:	b0 e0       	ldi	r27, 0x00	; 0
    554c:	ef e5       	ldi	r30, 0x5F	; 95
    554e:	f0 e0       	ldi	r31, 0x00	; 0
    5550:	80 81       	ld	r24, Z
    5552:	80 68       	ori	r24, 0x80	; 128
    5554:	8c 93       	st	X, r24

	u16 lcdTimer = 0;
    5556:	1f a2       	std	Y+39, r1	; 0x27
    5558:	1e a2       	std	Y+38, r1	; 0x26
	u32 currentIR = 0;
    555a:	1a a2       	std	Y+34, r1	; 0x22
    555c:	1b a2       	std	Y+35, r1	; 0x23
    555e:	1c a2       	std	Y+36, r1	; 0x24
    5560:	1d a2       	std	Y+37, r1	; 0x25
	while (1) {




	         	DDRB |= (1 << DDB0); //toggle led
    5562:	a7 e3       	ldi	r26, 0x37	; 55
    5564:	b0 e0       	ldi	r27, 0x00	; 0
    5566:	e7 e3       	ldi	r30, 0x37	; 55
    5568:	f0 e0       	ldi	r31, 0x00	; 0
    556a:	80 81       	ld	r24, Z
    556c:	81 60       	ori	r24, 0x01	; 1
    556e:	8c 93       	st	X, r24
		        // 2. Set PA0 HIGH (Turn LED ON)
		        PORTB |= (1 << PORTB0);
    5570:	a8 e3       	ldi	r26, 0x38	; 56
    5572:	b0 e0       	ldi	r27, 0x00	; 0
    5574:	e8 e3       	ldi	r30, 0x38	; 56
    5576:	f0 e0       	ldi	r31, 0x00	; 0
    5578:	80 81       	ld	r24, Z
    557a:	81 60       	ori	r24, 0x01	; 1
    557c:	8c 93       	st	X, r24
    557e:	80 e0       	ldi	r24, 0x00	; 0
    5580:	90 e0       	ldi	r25, 0x00	; 0
    5582:	a8 e4       	ldi	r26, 0x48	; 72
    5584:	b2 e4       	ldi	r27, 0x42	; 66
    5586:	89 8f       	std	Y+25, r24	; 0x19
    5588:	9a 8f       	std	Y+26, r25	; 0x1a
    558a:	ab 8f       	std	Y+27, r26	; 0x1b
    558c:	bc 8f       	std	Y+28, r27	; 0x1c
 */
void
_delay_ms(double __ms)
{
	uint16_t __ticks;
	double __tmp = ((F_CPU) / 4e3) * __ms;
    558e:	69 8d       	ldd	r22, Y+25	; 0x19
    5590:	7a 8d       	ldd	r23, Y+26	; 0x1a
    5592:	8b 8d       	ldd	r24, Y+27	; 0x1b
    5594:	9c 8d       	ldd	r25, Y+28	; 0x1c
    5596:	20 e0       	ldi	r18, 0x00	; 0
    5598:	30 e0       	ldi	r19, 0x00	; 0
    559a:	4a e7       	ldi	r20, 0x7A	; 122
    559c:	55 e4       	ldi	r21, 0x45	; 69
    559e:	0e 94 9c 02 	call	0x538	; 0x538 <__mulsf3>
    55a2:	dc 01       	movw	r26, r24
    55a4:	cb 01       	movw	r24, r22
    55a6:	8d 8b       	std	Y+21, r24	; 0x15
    55a8:	9e 8b       	std	Y+22, r25	; 0x16
    55aa:	af 8b       	std	Y+23, r26	; 0x17
    55ac:	b8 8f       	std	Y+24, r27	; 0x18
	if (__tmp < 1.0)
    55ae:	6d 89       	ldd	r22, Y+21	; 0x15
    55b0:	7e 89       	ldd	r23, Y+22	; 0x16
    55b2:	8f 89       	ldd	r24, Y+23	; 0x17
    55b4:	98 8d       	ldd	r25, Y+24	; 0x18
    55b6:	20 e0       	ldi	r18, 0x00	; 0
    55b8:	30 e0       	ldi	r19, 0x00	; 0
    55ba:	40 e8       	ldi	r20, 0x80	; 128
    55bc:	5f e3       	ldi	r21, 0x3F	; 63
    55be:	0e 94 02 05 	call	0xa04	; 0xa04 <__ltsf2>
    55c2:	88 23       	and	r24, r24
    55c4:	2c f4       	brge	.+10     	; 0x55d0 <main+0x11e>
		__ticks = 1;
    55c6:	81 e0       	ldi	r24, 0x01	; 1
    55c8:	90 e0       	ldi	r25, 0x00	; 0
    55ca:	9c 8b       	std	Y+20, r25	; 0x14
    55cc:	8b 8b       	std	Y+19, r24	; 0x13
    55ce:	3f c0       	rjmp	.+126    	; 0x564e <main+0x19c>
	else if (__tmp > 65535)
    55d0:	6d 89       	ldd	r22, Y+21	; 0x15
    55d2:	7e 89       	ldd	r23, Y+22	; 0x16
    55d4:	8f 89       	ldd	r24, Y+23	; 0x17
    55d6:	98 8d       	ldd	r25, Y+24	; 0x18
    55d8:	20 e0       	ldi	r18, 0x00	; 0
    55da:	3f ef       	ldi	r19, 0xFF	; 255
    55dc:	4f e7       	ldi	r20, 0x7F	; 127
    55de:	57 e4       	ldi	r21, 0x47	; 71
    55e0:	0e 94 a2 04 	call	0x944	; 0x944 <__gtsf2>
    55e4:	18 16       	cp	r1, r24
    55e6:	4c f5       	brge	.+82     	; 0x563a <main+0x188>
	{
		//	__ticks = requested delay in 1/10 ms
		__ticks = (uint16_t) (__ms * 10.0);
    55e8:	69 8d       	ldd	r22, Y+25	; 0x19
    55ea:	7a 8d       	ldd	r23, Y+26	; 0x1a
    55ec:	8b 8d       	ldd	r24, Y+27	; 0x1b
    55ee:	9c 8d       	ldd	r25, Y+28	; 0x1c
    55f0:	20 e0       	ldi	r18, 0x00	; 0
    55f2:	30 e0       	ldi	r19, 0x00	; 0
    55f4:	40 e2       	ldi	r20, 0x20	; 32
    55f6:	51 e4       	ldi	r21, 0x41	; 65
    55f8:	0e 94 9c 02 	call	0x538	; 0x538 <__mulsf3>
    55fc:	dc 01       	movw	r26, r24
    55fe:	cb 01       	movw	r24, r22
    5600:	bc 01       	movw	r22, r24
    5602:	cd 01       	movw	r24, r26
    5604:	0e 94 c6 00 	call	0x18c	; 0x18c <__fixunssfsi>
    5608:	dc 01       	movw	r26, r24
    560a:	cb 01       	movw	r24, r22
    560c:	9c 8b       	std	Y+20, r25	; 0x14
    560e:	8b 8b       	std	Y+19, r24	; 0x13
    5610:	0f c0       	rjmp	.+30     	; 0x5630 <main+0x17e>
    5612:	80 e9       	ldi	r24, 0x90	; 144
    5614:	91 e0       	ldi	r25, 0x01	; 1
    5616:	9a 8b       	std	Y+18, r25	; 0x12
    5618:	89 8b       	std	Y+17, r24	; 0x11
    561a:	89 89       	ldd	r24, Y+17	; 0x11
    561c:	9a 89       	ldd	r25, Y+18	; 0x12
    561e:	01 97       	sbiw	r24, 0x01	; 1
    5620:	f1 f7       	brne	.-4      	; 0x561e <main+0x16c>
    5622:	9a 8b       	std	Y+18, r25	; 0x12
    5624:	89 8b       	std	Y+17, r24	; 0x11
		while(__ticks)
		{
			// wait 1/10 ms
			_delay_loop_2(((F_CPU) / 4e3) / 10);
			__ticks --;
    5626:	8b 89       	ldd	r24, Y+19	; 0x13
    5628:	9c 89       	ldd	r25, Y+20	; 0x14
    562a:	01 97       	sbiw	r24, 0x01	; 1
    562c:	9c 8b       	std	Y+20, r25	; 0x14
    562e:	8b 8b       	std	Y+19, r24	; 0x13
		__ticks = 1;
	else if (__tmp > 65535)
	{
		//	__ticks = requested delay in 1/10 ms
		__ticks = (uint16_t) (__ms * 10.0);
		while(__ticks)
    5630:	8b 89       	ldd	r24, Y+19	; 0x13
    5632:	9c 89       	ldd	r25, Y+20	; 0x14
    5634:	00 97       	sbiw	r24, 0x00	; 0
    5636:	69 f7       	brne	.-38     	; 0x5612 <main+0x160>
    5638:	14 c0       	rjmp	.+40     	; 0x5662 <main+0x1b0>
			__ticks --;
		}
		return;
	}
	else
		__ticks = (uint16_t)__tmp;
    563a:	6d 89       	ldd	r22, Y+21	; 0x15
    563c:	7e 89       	ldd	r23, Y+22	; 0x16
    563e:	8f 89       	ldd	r24, Y+23	; 0x17
    5640:	98 8d       	ldd	r25, Y+24	; 0x18
    5642:	0e 94 c6 00 	call	0x18c	; 0x18c <__fixunssfsi>
    5646:	dc 01       	movw	r26, r24
    5648:	cb 01       	movw	r24, r22
    564a:	9c 8b       	std	Y+20, r25	; 0x14
    564c:	8b 8b       	std	Y+19, r24	; 0x13
    564e:	8b 89       	ldd	r24, Y+19	; 0x13
    5650:	9c 89       	ldd	r25, Y+20	; 0x14
    5652:	98 8b       	std	Y+16, r25	; 0x10
    5654:	8f 87       	std	Y+15, r24	; 0x0f
    5656:	8f 85       	ldd	r24, Y+15	; 0x0f
    5658:	98 89       	ldd	r25, Y+16	; 0x10
    565a:	01 97       	sbiw	r24, 0x01	; 1
    565c:	f1 f7       	brne	.-4      	; 0x565a <main+0x1a8>
    565e:	98 8b       	std	Y+16, r25	; 0x10
    5660:	8f 87       	std	Y+15, r24	; 0x0f




		// PHASE 1: WAIT FOR USER TAP
		USART_SendString("System Standby: Fall detection to start...\r\n");
    5662:	80 eb       	ldi	r24, 0xB0	; 176
    5664:	91 e0       	ldi	r25, 0x01	; 1
    5666:	0e 94 c2 08 	call	0x1184	; 0x1184 <USART_SendString>

		u8 fall_detected = 0;
    566a:	19 a2       	std	Y+33, r1	; 0x21
    566c:	ac c2       	rjmp	.+1368   	; 0x5bc6 <main+0x714>
		static u8  fall_step = 0;
		static u16 stability_counter = 0;
		static u16 fall_timer = 0;
//=================================MPU while loop=================================
		while (fall_detected == 0) {
			Read_Accel(&Ax, &Ay, &Az);
    566e:	ce 01       	movw	r24, r28
    5670:	8b 96       	adiw	r24, 0x2b	; 43
    5672:	9e 01       	movw	r18, r28
    5674:	21 5d       	subi	r18, 0xD1	; 209
    5676:	3f 4f       	sbci	r19, 0xFF	; 255
    5678:	ae 01       	movw	r20, r28
    567a:	4d 5c       	subi	r20, 0xCD	; 205
    567c:	5f 4f       	sbci	r21, 0xFF	; 255
    567e:	b9 01       	movw	r22, r18
    5680:	0e 94 ca 19 	call	0x3394	; 0x3394 <Read_Accel>

			USART_SendString("Ax: ");
    5684:	8d ed       	ldi	r24, 0xDD	; 221
    5686:	91 e0       	ldi	r25, 0x01	; 1
    5688:	0e 94 c2 08 	call	0x1184	; 0x1184 <USART_SendString>
			USART_SendFloat_chato(Ax, 2); // Shows 2 decimal places, e.g., 0.98
    568c:	8b a5       	ldd	r24, Y+43	; 0x2b
    568e:	9c a5       	ldd	r25, Y+44	; 0x2c
    5690:	ad a5       	ldd	r26, Y+45	; 0x2d
    5692:	be a5       	ldd	r27, Y+46	; 0x2e
    5694:	bc 01       	movw	r22, r24
    5696:	cd 01       	movw	r24, r26
    5698:	42 e0       	ldi	r20, 0x02	; 2
    569a:	0e 94 f3 09 	call	0x13e6	; 0x13e6 <USART_SendFloat_chato>
			USART_SendString(" | Ay: ");
    569e:	82 ee       	ldi	r24, 0xE2	; 226
    56a0:	91 e0       	ldi	r25, 0x01	; 1
    56a2:	0e 94 c2 08 	call	0x1184	; 0x1184 <USART_SendString>
			USART_SendFloat_chato(Ay, 2);
    56a6:	8f a5       	ldd	r24, Y+47	; 0x2f
    56a8:	98 a9       	ldd	r25, Y+48	; 0x30
    56aa:	a9 a9       	ldd	r26, Y+49	; 0x31
    56ac:	ba a9       	ldd	r27, Y+50	; 0x32
    56ae:	bc 01       	movw	r22, r24
    56b0:	cd 01       	movw	r24, r26
    56b2:	42 e0       	ldi	r20, 0x02	; 2
    56b4:	0e 94 f3 09 	call	0x13e6	; 0x13e6 <USART_SendFloat_chato>
			USART_SendString(" | Az: ");
    56b8:	8a ee       	ldi	r24, 0xEA	; 234
    56ba:	91 e0       	ldi	r25, 0x01	; 1
    56bc:	0e 94 c2 08 	call	0x1184	; 0x1184 <USART_SendString>
			USART_SendFloat_chato(Az, 2);
    56c0:	8b a9       	ldd	r24, Y+51	; 0x33
    56c2:	9c a9       	ldd	r25, Y+52	; 0x34
    56c4:	ad a9       	ldd	r26, Y+53	; 0x35
    56c6:	be a9       	ldd	r27, Y+54	; 0x36
    56c8:	bc 01       	movw	r22, r24
    56ca:	cd 01       	movw	r24, r26
    56cc:	42 e0       	ldi	r20, 0x02	; 2
    56ce:	0e 94 f3 09 	call	0x13e6	; 0x13e6 <USART_SendFloat_chato>
			//USART_SendString("\r\n");

			Read_Gyro(&Gx, &Gy, &Gz);
    56d2:	ce 01       	movw	r24, r28
    56d4:	c7 96       	adiw	r24, 0x37	; 55
    56d6:	9e 01       	movw	r18, r28
    56d8:	25 5c       	subi	r18, 0xC5	; 197
    56da:	3f 4f       	sbci	r19, 0xFF	; 255
    56dc:	ae 01       	movw	r20, r28
    56de:	41 5c       	subi	r20, 0xC1	; 193
    56e0:	5f 4f       	sbci	r21, 0xFF	; 255
    56e2:	b9 01       	movw	r22, r18
    56e4:	0e 94 3c 1a 	call	0x3478	; 0x3478 <Read_Gyro>

			USART_SendString("---Gx: ");
    56e8:	82 ef       	ldi	r24, 0xF2	; 242
    56ea:	91 e0       	ldi	r25, 0x01	; 1
    56ec:	0e 94 c2 08 	call	0x1184	; 0x1184 <USART_SendString>
			USART_SendFloat_chato(Gx, 1); // Gyro usually needs fewer decimals
    56f0:	8f a9       	ldd	r24, Y+55	; 0x37
    56f2:	98 ad       	ldd	r25, Y+56	; 0x38
    56f4:	a9 ad       	ldd	r26, Y+57	; 0x39
    56f6:	ba ad       	ldd	r27, Y+58	; 0x3a
    56f8:	bc 01       	movw	r22, r24
    56fa:	cd 01       	movw	r24, r26
    56fc:	41 e0       	ldi	r20, 0x01	; 1
    56fe:	0e 94 f3 09 	call	0x13e6	; 0x13e6 <USART_SendFloat_chato>
			USART_SendString(" | Gy: ");
    5702:	8a ef       	ldi	r24, 0xFA	; 250
    5704:	91 e0       	ldi	r25, 0x01	; 1
    5706:	0e 94 c2 08 	call	0x1184	; 0x1184 <USART_SendString>
			USART_SendFloat_chato(Gy, 2);
    570a:	8b ad       	ldd	r24, Y+59	; 0x3b
    570c:	9c ad       	ldd	r25, Y+60	; 0x3c
    570e:	ad ad       	ldd	r26, Y+61	; 0x3d
    5710:	be ad       	ldd	r27, Y+62	; 0x3e
    5712:	bc 01       	movw	r22, r24
    5714:	cd 01       	movw	r24, r26
    5716:	42 e0       	ldi	r20, 0x02	; 2
    5718:	0e 94 f3 09 	call	0x13e6	; 0x13e6 <USART_SendFloat_chato>
			USART_SendString(" | Gz: ");
    571c:	82 e0       	ldi	r24, 0x02	; 2
    571e:	92 e0       	ldi	r25, 0x02	; 2
    5720:	0e 94 c2 08 	call	0x1184	; 0x1184 <USART_SendString>
			USART_SendFloat_chato(Gz, 2);
    5724:	fe 01       	movw	r30, r28
    5726:	ff 96       	adiw	r30, 0x3f	; 63
    5728:	80 81       	ld	r24, Z
    572a:	91 81       	ldd	r25, Z+1	; 0x01
    572c:	a2 81       	ldd	r26, Z+2	; 0x02
    572e:	b3 81       	ldd	r27, Z+3	; 0x03
    5730:	bc 01       	movw	r22, r24
    5732:	cd 01       	movw	r24, r26
    5734:	42 e0       	ldi	r20, 0x02	; 2
    5736:	0e 94 f3 09 	call	0x13e6	; 0x13e6 <USART_SendFloat_chato>
			USART_SendString("\r\n");
    573a:	8a e0       	ldi	r24, 0x0A	; 10
    573c:	92 e0       	ldi	r25, 0x02	; 2
    573e:	0e 94 c2 08 	call	0x1184	; 0x1184 <USART_SendString>

			LCD_movecursor(0, 1);
    5742:	80 e0       	ldi	r24, 0x00	; 0
    5744:	61 e0       	ldi	r22, 0x01	; 1
    5746:	0e 94 f5 28 	call	0x51ea	; 0x51ea <LCD_movecursor>
			LCD_print_3_digit((u16) (Ax * 100));
    574a:	8b a5       	ldd	r24, Y+43	; 0x2b
    574c:	9c a5       	ldd	r25, Y+44	; 0x2c
    574e:	ad a5       	ldd	r26, Y+45	; 0x2d
    5750:	be a5       	ldd	r27, Y+46	; 0x2e
    5752:	bc 01       	movw	r22, r24
    5754:	cd 01       	movw	r24, r26
    5756:	20 e0       	ldi	r18, 0x00	; 0
    5758:	30 e0       	ldi	r19, 0x00	; 0
    575a:	48 ec       	ldi	r20, 0xC8	; 200
    575c:	52 e4       	ldi	r21, 0x42	; 66
    575e:	0e 94 9c 02 	call	0x538	; 0x538 <__mulsf3>
    5762:	dc 01       	movw	r26, r24
    5764:	cb 01       	movw	r24, r22
    5766:	bc 01       	movw	r22, r24
    5768:	cd 01       	movw	r24, r26
    576a:	0e 94 c6 00 	call	0x18c	; 0x18c <__fixunssfsi>
    576e:	dc 01       	movw	r26, r24
    5770:	cb 01       	movw	r24, r22
    5772:	0e 94 71 29 	call	0x52e2	; 0x52e2 <LCD_print_3_digit>
			LCD_movecursor(0, 5);
    5776:	80 e0       	ldi	r24, 0x00	; 0
    5778:	65 e0       	ldi	r22, 0x05	; 5
    577a:	0e 94 f5 28 	call	0x51ea	; 0x51ea <LCD_movecursor>
			LCD_print_3_digit((u16) (Ay * 100));
    577e:	8f a5       	ldd	r24, Y+47	; 0x2f
    5780:	98 a9       	ldd	r25, Y+48	; 0x30
    5782:	a9 a9       	ldd	r26, Y+49	; 0x31
    5784:	ba a9       	ldd	r27, Y+50	; 0x32
    5786:	bc 01       	movw	r22, r24
    5788:	cd 01       	movw	r24, r26
    578a:	20 e0       	ldi	r18, 0x00	; 0
    578c:	30 e0       	ldi	r19, 0x00	; 0
    578e:	48 ec       	ldi	r20, 0xC8	; 200
    5790:	52 e4       	ldi	r21, 0x42	; 66
    5792:	0e 94 9c 02 	call	0x538	; 0x538 <__mulsf3>
    5796:	dc 01       	movw	r26, r24
    5798:	cb 01       	movw	r24, r22
    579a:	bc 01       	movw	r22, r24
    579c:	cd 01       	movw	r24, r26
    579e:	0e 94 c6 00 	call	0x18c	; 0x18c <__fixunssfsi>
    57a2:	dc 01       	movw	r26, r24
    57a4:	cb 01       	movw	r24, r22
    57a6:	0e 94 71 29 	call	0x52e2	; 0x52e2 <LCD_print_3_digit>
			LCD_movecursor(0, 9);
    57aa:	80 e0       	ldi	r24, 0x00	; 0
    57ac:	69 e0       	ldi	r22, 0x09	; 9
    57ae:	0e 94 f5 28 	call	0x51ea	; 0x51ea <LCD_movecursor>
			LCD_print_3_digit((u16) (Az * 100));
    57b2:	8b a9       	ldd	r24, Y+51	; 0x33
    57b4:	9c a9       	ldd	r25, Y+52	; 0x34
    57b6:	ad a9       	ldd	r26, Y+53	; 0x35
    57b8:	be a9       	ldd	r27, Y+54	; 0x36
    57ba:	bc 01       	movw	r22, r24
    57bc:	cd 01       	movw	r24, r26
    57be:	20 e0       	ldi	r18, 0x00	; 0
    57c0:	30 e0       	ldi	r19, 0x00	; 0
    57c2:	48 ec       	ldi	r20, 0xC8	; 200
    57c4:	52 e4       	ldi	r21, 0x42	; 66
    57c6:	0e 94 9c 02 	call	0x538	; 0x538 <__mulsf3>
    57ca:	dc 01       	movw	r26, r24
    57cc:	cb 01       	movw	r24, r22
    57ce:	bc 01       	movw	r22, r24
    57d0:	cd 01       	movw	r24, r26
    57d2:	0e 94 c6 00 	call	0x18c	; 0x18c <__fixunssfsi>
    57d6:	dc 01       	movw	r26, r24
    57d8:	cb 01       	movw	r24, r22
    57da:	0e 94 71 29 	call	0x52e2	; 0x52e2 <LCD_print_3_digit>

			LCD_movecursor(1, 1);
    57de:	81 e0       	ldi	r24, 0x01	; 1
    57e0:	61 e0       	ldi	r22, 0x01	; 1
    57e2:	0e 94 f5 28 	call	0x51ea	; 0x51ea <LCD_movecursor>
			LCD_print_3_digit((u16) (Gx * 100));
    57e6:	8f a9       	ldd	r24, Y+55	; 0x37
    57e8:	98 ad       	ldd	r25, Y+56	; 0x38
    57ea:	a9 ad       	ldd	r26, Y+57	; 0x39
    57ec:	ba ad       	ldd	r27, Y+58	; 0x3a
    57ee:	bc 01       	movw	r22, r24
    57f0:	cd 01       	movw	r24, r26
    57f2:	20 e0       	ldi	r18, 0x00	; 0
    57f4:	30 e0       	ldi	r19, 0x00	; 0
    57f6:	48 ec       	ldi	r20, 0xC8	; 200
    57f8:	52 e4       	ldi	r21, 0x42	; 66
    57fa:	0e 94 9c 02 	call	0x538	; 0x538 <__mulsf3>
    57fe:	dc 01       	movw	r26, r24
    5800:	cb 01       	movw	r24, r22
    5802:	bc 01       	movw	r22, r24
    5804:	cd 01       	movw	r24, r26
    5806:	0e 94 c6 00 	call	0x18c	; 0x18c <__fixunssfsi>
    580a:	dc 01       	movw	r26, r24
    580c:	cb 01       	movw	r24, r22
    580e:	0e 94 71 29 	call	0x52e2	; 0x52e2 <LCD_print_3_digit>
			LCD_movecursor(1, 5);
    5812:	81 e0       	ldi	r24, 0x01	; 1
    5814:	65 e0       	ldi	r22, 0x05	; 5
    5816:	0e 94 f5 28 	call	0x51ea	; 0x51ea <LCD_movecursor>
			LCD_print_3_digit((u16) (Gy * 100));
    581a:	8b ad       	ldd	r24, Y+59	; 0x3b
    581c:	9c ad       	ldd	r25, Y+60	; 0x3c
    581e:	ad ad       	ldd	r26, Y+61	; 0x3d
    5820:	be ad       	ldd	r27, Y+62	; 0x3e
    5822:	bc 01       	movw	r22, r24
    5824:	cd 01       	movw	r24, r26
    5826:	20 e0       	ldi	r18, 0x00	; 0
    5828:	30 e0       	ldi	r19, 0x00	; 0
    582a:	48 ec       	ldi	r20, 0xC8	; 200
    582c:	52 e4       	ldi	r21, 0x42	; 66
    582e:	0e 94 9c 02 	call	0x538	; 0x538 <__mulsf3>
    5832:	dc 01       	movw	r26, r24
    5834:	cb 01       	movw	r24, r22
    5836:	bc 01       	movw	r22, r24
    5838:	cd 01       	movw	r24, r26
    583a:	0e 94 c6 00 	call	0x18c	; 0x18c <__fixunssfsi>
    583e:	dc 01       	movw	r26, r24
    5840:	cb 01       	movw	r24, r22
    5842:	0e 94 71 29 	call	0x52e2	; 0x52e2 <LCD_print_3_digit>
			LCD_movecursor(1, 9);
    5846:	81 e0       	ldi	r24, 0x01	; 1
    5848:	69 e0       	ldi	r22, 0x09	; 9
    584a:	0e 94 f5 28 	call	0x51ea	; 0x51ea <LCD_movecursor>
			LCD_print_3_digit((u16) (Gz * 100));
    584e:	fe 01       	movw	r30, r28
    5850:	ff 96       	adiw	r30, 0x3f	; 63
    5852:	80 81       	ld	r24, Z
    5854:	91 81       	ldd	r25, Z+1	; 0x01
    5856:	a2 81       	ldd	r26, Z+2	; 0x02
    5858:	b3 81       	ldd	r27, Z+3	; 0x03
    585a:	bc 01       	movw	r22, r24
    585c:	cd 01       	movw	r24, r26
    585e:	20 e0       	ldi	r18, 0x00	; 0
    5860:	30 e0       	ldi	r19, 0x00	; 0
    5862:	48 ec       	ldi	r20, 0xC8	; 200
    5864:	52 e4       	ldi	r21, 0x42	; 66
    5866:	0e 94 9c 02 	call	0x538	; 0x538 <__mulsf3>
    586a:	dc 01       	movw	r26, r24
    586c:	cb 01       	movw	r24, r22
    586e:	bc 01       	movw	r22, r24
    5870:	cd 01       	movw	r24, r26
    5872:	0e 94 c6 00 	call	0x18c	; 0x18c <__fixunssfsi>
    5876:	dc 01       	movw	r26, r24
    5878:	cb 01       	movw	r24, r22
    587a:	0e 94 71 29 	call	0x52e2	; 0x52e2 <LCD_print_3_digit>
    587e:	80 e0       	ldi	r24, 0x00	; 0
    5880:	90 e0       	ldi	r25, 0x00	; 0
    5882:	a0 ea       	ldi	r26, 0xA0	; 160
    5884:	b1 e4       	ldi	r27, 0x41	; 65
    5886:	8b 87       	std	Y+11, r24	; 0x0b
    5888:	9c 87       	std	Y+12, r25	; 0x0c
    588a:	ad 87       	std	Y+13, r26	; 0x0d
    588c:	be 87       	std	Y+14, r27	; 0x0e
 */
void
_delay_ms(double __ms)
{
	uint16_t __ticks;
	double __tmp = ((F_CPU) / 4e3) * __ms;
    588e:	6b 85       	ldd	r22, Y+11	; 0x0b
    5890:	7c 85       	ldd	r23, Y+12	; 0x0c
    5892:	8d 85       	ldd	r24, Y+13	; 0x0d
    5894:	9e 85       	ldd	r25, Y+14	; 0x0e
    5896:	20 e0       	ldi	r18, 0x00	; 0
    5898:	30 e0       	ldi	r19, 0x00	; 0
    589a:	4a e7       	ldi	r20, 0x7A	; 122
    589c:	55 e4       	ldi	r21, 0x45	; 69
    589e:	0e 94 9c 02 	call	0x538	; 0x538 <__mulsf3>
    58a2:	dc 01       	movw	r26, r24
    58a4:	cb 01       	movw	r24, r22
    58a6:	8f 83       	std	Y+7, r24	; 0x07
    58a8:	98 87       	std	Y+8, r25	; 0x08
    58aa:	a9 87       	std	Y+9, r26	; 0x09
    58ac:	ba 87       	std	Y+10, r27	; 0x0a
	if (__tmp < 1.0)
    58ae:	6f 81       	ldd	r22, Y+7	; 0x07
    58b0:	78 85       	ldd	r23, Y+8	; 0x08
    58b2:	89 85       	ldd	r24, Y+9	; 0x09
    58b4:	9a 85       	ldd	r25, Y+10	; 0x0a
    58b6:	20 e0       	ldi	r18, 0x00	; 0
    58b8:	30 e0       	ldi	r19, 0x00	; 0
    58ba:	40 e8       	ldi	r20, 0x80	; 128
    58bc:	5f e3       	ldi	r21, 0x3F	; 63
    58be:	0e 94 02 05 	call	0xa04	; 0xa04 <__ltsf2>
    58c2:	88 23       	and	r24, r24
    58c4:	2c f4       	brge	.+10     	; 0x58d0 <main+0x41e>
		__ticks = 1;
    58c6:	81 e0       	ldi	r24, 0x01	; 1
    58c8:	90 e0       	ldi	r25, 0x00	; 0
    58ca:	9e 83       	std	Y+6, r25	; 0x06
    58cc:	8d 83       	std	Y+5, r24	; 0x05
    58ce:	3f c0       	rjmp	.+126    	; 0x594e <main+0x49c>
	else if (__tmp > 65535)
    58d0:	6f 81       	ldd	r22, Y+7	; 0x07
    58d2:	78 85       	ldd	r23, Y+8	; 0x08
    58d4:	89 85       	ldd	r24, Y+9	; 0x09
    58d6:	9a 85       	ldd	r25, Y+10	; 0x0a
    58d8:	20 e0       	ldi	r18, 0x00	; 0
    58da:	3f ef       	ldi	r19, 0xFF	; 255
    58dc:	4f e7       	ldi	r20, 0x7F	; 127
    58de:	57 e4       	ldi	r21, 0x47	; 71
    58e0:	0e 94 a2 04 	call	0x944	; 0x944 <__gtsf2>
    58e4:	18 16       	cp	r1, r24
    58e6:	4c f5       	brge	.+82     	; 0x593a <main+0x488>
	{
		//	__ticks = requested delay in 1/10 ms
		__ticks = (uint16_t) (__ms * 10.0);
    58e8:	6b 85       	ldd	r22, Y+11	; 0x0b
    58ea:	7c 85       	ldd	r23, Y+12	; 0x0c
    58ec:	8d 85       	ldd	r24, Y+13	; 0x0d
    58ee:	9e 85       	ldd	r25, Y+14	; 0x0e
    58f0:	20 e0       	ldi	r18, 0x00	; 0
    58f2:	30 e0       	ldi	r19, 0x00	; 0
    58f4:	40 e2       	ldi	r20, 0x20	; 32
    58f6:	51 e4       	ldi	r21, 0x41	; 65
    58f8:	0e 94 9c 02 	call	0x538	; 0x538 <__mulsf3>
    58fc:	dc 01       	movw	r26, r24
    58fe:	cb 01       	movw	r24, r22
    5900:	bc 01       	movw	r22, r24
    5902:	cd 01       	movw	r24, r26
    5904:	0e 94 c6 00 	call	0x18c	; 0x18c <__fixunssfsi>
    5908:	dc 01       	movw	r26, r24
    590a:	cb 01       	movw	r24, r22
    590c:	9e 83       	std	Y+6, r25	; 0x06
    590e:	8d 83       	std	Y+5, r24	; 0x05
    5910:	0f c0       	rjmp	.+30     	; 0x5930 <main+0x47e>
    5912:	80 e9       	ldi	r24, 0x90	; 144
    5914:	91 e0       	ldi	r25, 0x01	; 1
    5916:	9c 83       	std	Y+4, r25	; 0x04
    5918:	8b 83       	std	Y+3, r24	; 0x03
    591a:	8b 81       	ldd	r24, Y+3	; 0x03
    591c:	9c 81       	ldd	r25, Y+4	; 0x04
    591e:	01 97       	sbiw	r24, 0x01	; 1
    5920:	f1 f7       	brne	.-4      	; 0x591e <main+0x46c>
    5922:	9c 83       	std	Y+4, r25	; 0x04
    5924:	8b 83       	std	Y+3, r24	; 0x03
		while(__ticks)
		{
			// wait 1/10 ms
			_delay_loop_2(((F_CPU) / 4e3) / 10);
			__ticks --;
    5926:	8d 81       	ldd	r24, Y+5	; 0x05
    5928:	9e 81       	ldd	r25, Y+6	; 0x06
    592a:	01 97       	sbiw	r24, 0x01	; 1
    592c:	9e 83       	std	Y+6, r25	; 0x06
    592e:	8d 83       	std	Y+5, r24	; 0x05
		__ticks = 1;
	else if (__tmp > 65535)
	{
		//	__ticks = requested delay in 1/10 ms
		__ticks = (uint16_t) (__ms * 10.0);
		while(__ticks)
    5930:	8d 81       	ldd	r24, Y+5	; 0x05
    5932:	9e 81       	ldd	r25, Y+6	; 0x06
    5934:	00 97       	sbiw	r24, 0x00	; 0
    5936:	69 f7       	brne	.-38     	; 0x5912 <main+0x460>
    5938:	14 c0       	rjmp	.+40     	; 0x5962 <main+0x4b0>
			__ticks --;
		}
		return;
	}
	else
		__ticks = (uint16_t)__tmp;
    593a:	6f 81       	ldd	r22, Y+7	; 0x07
    593c:	78 85       	ldd	r23, Y+8	; 0x08
    593e:	89 85       	ldd	r24, Y+9	; 0x09
    5940:	9a 85       	ldd	r25, Y+10	; 0x0a
    5942:	0e 94 c6 00 	call	0x18c	; 0x18c <__fixunssfsi>
    5946:	dc 01       	movw	r26, r24
    5948:	cb 01       	movw	r24, r22
    594a:	9e 83       	std	Y+6, r25	; 0x06
    594c:	8d 83       	std	Y+5, r24	; 0x05
    594e:	8d 81       	ldd	r24, Y+5	; 0x05
    5950:	9e 81       	ldd	r25, Y+6	; 0x06
    5952:	9a 83       	std	Y+2, r25	; 0x02
    5954:	89 83       	std	Y+1, r24	; 0x01
    5956:	89 81       	ldd	r24, Y+1	; 0x01
    5958:	9a 81       	ldd	r25, Y+2	; 0x02
    595a:	01 97       	sbiw	r24, 0x01	; 1
    595c:	f1 f7       	brne	.-4      	; 0x595a <main+0x4a8>
    595e:	9a 83       	std	Y+2, r25	; 0x02
    5960:	89 83       	std	Y+1, r24	; 0x01
//

			_delay_ms(20); // sampling rate عالي (50 قراءة في الثانية)

			    // حساب القيمة الكلية للعجلة
			    f32 Acc_Total = sqrt((Ax * Ax) + (Ay * Ay) + (Az * Az));
    5962:	8b a5       	ldd	r24, Y+43	; 0x2b
    5964:	9c a5       	ldd	r25, Y+44	; 0x2c
    5966:	ad a5       	ldd	r26, Y+45	; 0x2d
    5968:	be a5       	ldd	r27, Y+46	; 0x2e
    596a:	2b a5       	ldd	r18, Y+43	; 0x2b
    596c:	3c a5       	ldd	r19, Y+44	; 0x2c
    596e:	4d a5       	ldd	r20, Y+45	; 0x2d
    5970:	5e a5       	ldd	r21, Y+46	; 0x2e
    5972:	bc 01       	movw	r22, r24
    5974:	cd 01       	movw	r24, r26
    5976:	0e 94 9c 02 	call	0x538	; 0x538 <__mulsf3>
    597a:	dc 01       	movw	r26, r24
    597c:	cb 01       	movw	r24, r22
    597e:	7c 01       	movw	r14, r24
    5980:	8d 01       	movw	r16, r26
    5982:	8f a5       	ldd	r24, Y+47	; 0x2f
    5984:	98 a9       	ldd	r25, Y+48	; 0x30
    5986:	a9 a9       	ldd	r26, Y+49	; 0x31
    5988:	ba a9       	ldd	r27, Y+50	; 0x32
    598a:	2f a5       	ldd	r18, Y+47	; 0x2f
    598c:	38 a9       	ldd	r19, Y+48	; 0x30
    598e:	49 a9       	ldd	r20, Y+49	; 0x31
    5990:	5a a9       	ldd	r21, Y+50	; 0x32
    5992:	bc 01       	movw	r22, r24
    5994:	cd 01       	movw	r24, r26
    5996:	0e 94 9c 02 	call	0x538	; 0x538 <__mulsf3>
    599a:	dc 01       	movw	r26, r24
    599c:	cb 01       	movw	r24, r22
    599e:	9c 01       	movw	r18, r24
    59a0:	ad 01       	movw	r20, r26
    59a2:	c8 01       	movw	r24, r16
    59a4:	b7 01       	movw	r22, r14
    59a6:	0e 94 6f 02 	call	0x4de	; 0x4de <__addsf3>
    59aa:	dc 01       	movw	r26, r24
    59ac:	cb 01       	movw	r24, r22
    59ae:	7c 01       	movw	r14, r24
    59b0:	8d 01       	movw	r16, r26
    59b2:	8b a9       	ldd	r24, Y+51	; 0x33
    59b4:	9c a9       	ldd	r25, Y+52	; 0x34
    59b6:	ad a9       	ldd	r26, Y+53	; 0x35
    59b8:	be a9       	ldd	r27, Y+54	; 0x36
    59ba:	2b a9       	ldd	r18, Y+51	; 0x33
    59bc:	3c a9       	ldd	r19, Y+52	; 0x34
    59be:	4d a9       	ldd	r20, Y+53	; 0x35
    59c0:	5e a9       	ldd	r21, Y+54	; 0x36
    59c2:	bc 01       	movw	r22, r24
    59c4:	cd 01       	movw	r24, r26
    59c6:	0e 94 9c 02 	call	0x538	; 0x538 <__mulsf3>
    59ca:	dc 01       	movw	r26, r24
    59cc:	cb 01       	movw	r24, r22
    59ce:	9c 01       	movw	r18, r24
    59d0:	ad 01       	movw	r20, r26
    59d2:	c8 01       	movw	r24, r16
    59d4:	b7 01       	movw	r22, r14
    59d6:	0e 94 6f 02 	call	0x4de	; 0x4de <__addsf3>
    59da:	dc 01       	movw	r26, r24
    59dc:	cb 01       	movw	r24, r22
    59de:	bc 01       	movw	r22, r24
    59e0:	cd 01       	movw	r24, r26
    59e2:	0e 94 de 2e 	call	0x5dbc	; 0x5dbc <sqrt>
    59e6:	dc 01       	movw	r26, r24
    59e8:	cb 01       	movw	r24, r22
    59ea:	8d 8f       	std	Y+29, r24	; 0x1d
    59ec:	9e 8f       	std	Y+30, r25	; 0x1e
    59ee:	af 8f       	std	Y+31, r26	; 0x1f
    59f0:	b8 a3       	std	Y+32, r27	; 0x20

			    switch (fall_step) {
    59f2:	80 91 0f 04 	lds	r24, 0x040F
    59f6:	28 2f       	mov	r18, r24
    59f8:	30 e0       	ldi	r19, 0x00	; 0
    59fa:	27 96       	adiw	r28, 0x07	; 7
    59fc:	3f af       	std	Y+63, r19	; 0x3f
    59fe:	2e af       	std	Y+62, r18	; 0x3e
    5a00:	27 97       	sbiw	r28, 0x07	; 7
    5a02:	27 96       	adiw	r28, 0x07	; 7
    5a04:	8e ad       	ldd	r24, Y+62	; 0x3e
    5a06:	9f ad       	ldd	r25, Y+63	; 0x3f
    5a08:	27 97       	sbiw	r28, 0x07	; 7
    5a0a:	81 30       	cpi	r24, 0x01	; 1
    5a0c:	91 05       	cpc	r25, r1
    5a0e:	41 f1       	breq	.+80     	; 0x5a60 <main+0x5ae>
    5a10:	27 96       	adiw	r28, 0x07	; 7
    5a12:	2e ad       	ldd	r18, Y+62	; 0x3e
    5a14:	3f ad       	ldd	r19, Y+63	; 0x3f
    5a16:	27 97       	sbiw	r28, 0x07	; 7
    5a18:	22 30       	cpi	r18, 0x02	; 2
    5a1a:	31 05       	cpc	r19, r1
    5a1c:	09 f4       	brne	.+2      	; 0x5a20 <main+0x56e>
    5a1e:	4f c0       	rjmp	.+158    	; 0x5abe <main+0x60c>
    5a20:	27 96       	adiw	r28, 0x07	; 7
    5a22:	8e ad       	ldd	r24, Y+62	; 0x3e
    5a24:	9f ad       	ldd	r25, Y+63	; 0x3f
    5a26:	27 97       	sbiw	r28, 0x07	; 7
    5a28:	00 97       	sbiw	r24, 0x00	; 0
    5a2a:	09 f0       	breq	.+2      	; 0x5a2e <main+0x57c>
    5a2c:	cc c0       	rjmp	.+408    	; 0x5bc6 <main+0x714>
			        case 0: // المرحلة 0: مراقبة بداية السقوط (Free Fall)
			            // رفعنا الحساسية لـ 0.8f لأن السقوط القصير لا يصل للصفر
			            if (Acc_Total < 0.82f) {
    5a2e:	6d 8d       	ldd	r22, Y+29	; 0x1d
    5a30:	7e 8d       	ldd	r23, Y+30	; 0x1e
    5a32:	8f 8d       	ldd	r24, Y+31	; 0x1f
    5a34:	98 a1       	ldd	r25, Y+32	; 0x20
    5a36:	25 e8       	ldi	r18, 0x85	; 133
    5a38:	3b ee       	ldi	r19, 0xEB	; 235
    5a3a:	41 e5       	ldi	r20, 0x51	; 81
    5a3c:	5f e3       	ldi	r21, 0x3F	; 63
    5a3e:	0e 94 02 05 	call	0xa04	; 0xa04 <__ltsf2>
    5a42:	88 23       	and	r24, r24
    5a44:	0c f0       	brlt	.+2      	; 0x5a48 <main+0x596>
    5a46:	bf c0       	rjmp	.+382    	; 0x5bc6 <main+0x714>
			                fall_step = 1;
    5a48:	81 e0       	ldi	r24, 0x01	; 1
    5a4a:	80 93 0f 04 	sts	0x040F, r24
			                fall_timer = 0;
    5a4e:	10 92 0c 04 	sts	0x040C, r1
    5a52:	10 92 0b 04 	sts	0x040B, r1
			                USART_SendString(">> 1. Falling Started...\r\n");
    5a56:	8d e0       	ldi	r24, 0x0D	; 13
    5a58:	92 e0       	ldi	r25, 0x02	; 2
    5a5a:	0e 94 c2 08 	call	0x1184	; 0x1184 <USART_SendString>
    5a5e:	b3 c0       	rjmp	.+358    	; 0x5bc6 <main+0x714>
			            }
			            break;

			        case 1: // المرحلة 1: انتظار الارتطام أو المسك (Impact/Catch)
			            fall_timer++;
    5a60:	80 91 0b 04 	lds	r24, 0x040B
    5a64:	90 91 0c 04 	lds	r25, 0x040C
    5a68:	01 96       	adiw	r24, 0x01	; 1
    5a6a:	90 93 0c 04 	sts	0x040C, r25
    5a6e:	80 93 0b 04 	sts	0x040B, r24

			            // إذا زادت القيمة عن 1.25g (قيمة المسك بالإيد عادة ما تكون ضعيفة)
			            if (Acc_Total > 1.25f) {
    5a72:	6d 8d       	ldd	r22, Y+29	; 0x1d
    5a74:	7e 8d       	ldd	r23, Y+30	; 0x1e
    5a76:	8f 8d       	ldd	r24, Y+31	; 0x1f
    5a78:	98 a1       	ldd	r25, Y+32	; 0x20
    5a7a:	20 e0       	ldi	r18, 0x00	; 0
    5a7c:	30 e0       	ldi	r19, 0x00	; 0
    5a7e:	40 ea       	ldi	r20, 0xA0	; 160
    5a80:	5f e3       	ldi	r21, 0x3F	; 63
    5a82:	0e 94 a2 04 	call	0x944	; 0x944 <__gtsf2>
    5a86:	18 16       	cp	r1, r24
    5a88:	5c f4       	brge	.+22     	; 0x5aa0 <main+0x5ee>
			                fall_step = 2;
    5a8a:	82 e0       	ldi	r24, 0x02	; 2
    5a8c:	80 93 0f 04 	sts	0x040F, r24
			                stability_counter = 0;
    5a90:	10 92 0e 04 	sts	0x040E, r1
    5a94:	10 92 0d 04 	sts	0x040D, r1
			                USART_SendString(">> 2. Catch/Impact Detected!\r\n");
    5a98:	88 e2       	ldi	r24, 0x28	; 40
    5a9a:	92 e0       	ldi	r25, 0x02	; 2
    5a9c:	0e 94 c2 08 	call	0x1184	; 0x1184 <USART_SendString>
			            }

			            // Timeout: لو فضل "طاير" أكتر من ثانية ونصف بدون اصطدام (غالباً نويز)
			            if (fall_timer > 75) {
    5aa0:	80 91 0b 04 	lds	r24, 0x040B
    5aa4:	90 91 0c 04 	lds	r25, 0x040C
    5aa8:	8c 34       	cpi	r24, 0x4C	; 76
    5aaa:	91 05       	cpc	r25, r1
    5aac:	08 f4       	brcc	.+2      	; 0x5ab0 <main+0x5fe>
    5aae:	8b c0       	rjmp	.+278    	; 0x5bc6 <main+0x714>
			                fall_step = 0;
    5ab0:	10 92 0f 04 	sts	0x040F, r1
			                USART_SendString(">> Reset: No Impact within time window.\r\n");
    5ab4:	87 e4       	ldi	r24, 0x47	; 71
    5ab6:	92 e0       	ldi	r25, 0x02	; 2
    5ab8:	0e 94 c2 08 	call	0x1184	; 0x1184 <USART_SendString>
    5abc:	84 c0       	rjmp	.+264    	; 0x5bc6 <main+0x714>
			            }
			            break;

			        case 2: // المرحلة 2: التأكد من الاستقرار (Hand Stability)
			            // بما أن اليد تهتز، وسعنا النطاق (بين 0.6 و 1.4)
			            if (Acc_Total > 0.6f && Acc_Total < 1.4f) {
    5abe:	25 96       	adiw	r28, 0x05	; 5
    5ac0:	1f ae       	std	Y+63, r1	; 0x3f
    5ac2:	25 97       	sbiw	r28, 0x05	; 5
    5ac4:	6d 8d       	ldd	r22, Y+29	; 0x1d
    5ac6:	7e 8d       	ldd	r23, Y+30	; 0x1e
    5ac8:	8f 8d       	ldd	r24, Y+31	; 0x1f
    5aca:	98 a1       	ldd	r25, Y+32	; 0x20
    5acc:	2a e9       	ldi	r18, 0x9A	; 154
    5ace:	39 e9       	ldi	r19, 0x99	; 153
    5ad0:	49 e1       	ldi	r20, 0x19	; 25
    5ad2:	5f e3       	ldi	r21, 0x3F	; 63
    5ad4:	0e 94 a2 04 	call	0x944	; 0x944 <__gtsf2>
    5ad8:	18 16       	cp	r1, r24
    5ada:	24 f4       	brge	.+8      	; 0x5ae4 <main+0x632>
    5adc:	91 e0       	ldi	r25, 0x01	; 1
    5ade:	25 96       	adiw	r28, 0x05	; 5
    5ae0:	9f af       	std	Y+63, r25	; 0x3f
    5ae2:	25 97       	sbiw	r28, 0x05	; 5
    5ae4:	81 e0       	ldi	r24, 0x01	; 1
    5ae6:	25 96       	adiw	r28, 0x05	; 5
    5ae8:	2f ad       	ldd	r18, Y+63	; 0x3f
    5aea:	25 97       	sbiw	r28, 0x05	; 5
    5aec:	82 27       	eor	r24, r18
    5aee:	88 23       	and	r24, r24
    5af0:	09 f0       	breq	.+2      	; 0x5af4 <main+0x642>
    5af2:	4b c0       	rjmp	.+150    	; 0x5b8a <main+0x6d8>
    5af4:	24 96       	adiw	r28, 0x04	; 4
    5af6:	1f ae       	std	Y+63, r1	; 0x3f
    5af8:	24 97       	sbiw	r28, 0x04	; 4
    5afa:	6d 8d       	ldd	r22, Y+29	; 0x1d
    5afc:	7e 8d       	ldd	r23, Y+30	; 0x1e
    5afe:	8f 8d       	ldd	r24, Y+31	; 0x1f
    5b00:	98 a1       	ldd	r25, Y+32	; 0x20
    5b02:	23 e3       	ldi	r18, 0x33	; 51
    5b04:	33 e3       	ldi	r19, 0x33	; 51
    5b06:	43 eb       	ldi	r20, 0xB3	; 179
    5b08:	5f e3       	ldi	r21, 0x3F	; 63
    5b0a:	0e 94 02 05 	call	0xa04	; 0xa04 <__ltsf2>
    5b0e:	88 23       	and	r24, r24
    5b10:	24 f4       	brge	.+8      	; 0x5b1a <main+0x668>
    5b12:	31 e0       	ldi	r19, 0x01	; 1
    5b14:	24 96       	adiw	r28, 0x04	; 4
    5b16:	3f af       	std	Y+63, r19	; 0x3f
    5b18:	24 97       	sbiw	r28, 0x04	; 4
    5b1a:	81 e0       	ldi	r24, 0x01	; 1
    5b1c:	24 96       	adiw	r28, 0x04	; 4
    5b1e:	9f ad       	ldd	r25, Y+63	; 0x3f
    5b20:	24 97       	sbiw	r28, 0x04	; 4
    5b22:	89 27       	eor	r24, r25
    5b24:	88 23       	and	r24, r24
    5b26:	89 f5       	brne	.+98     	; 0x5b8a <main+0x6d8>
			                stability_counter++;
    5b28:	80 91 0d 04 	lds	r24, 0x040D
    5b2c:	90 91 0e 04 	lds	r25, 0x040E
    5b30:	01 96       	adiw	r24, 0x01	; 1
    5b32:	90 93 0e 04 	sts	0x040E, r25
    5b36:	80 93 0d 04 	sts	0x040D, r24

			                // 8 عدات (حوالي 160ms) ثبات في اليد كافية للتأكيد
			                if (stability_counter >= 8) {
    5b3a:	80 91 0d 04 	lds	r24, 0x040D
    5b3e:	90 91 0e 04 	lds	r25, 0x040E
    5b42:	88 30       	cpi	r24, 0x08	; 8
    5b44:	91 05       	cpc	r25, r1
    5b46:	28 f1       	brcs	.+74     	; 0x5b92 <main+0x6e0>
			                    USART_SendString("\r\n =============================== \r\n");
    5b48:	81 e7       	ldi	r24, 0x71	; 113
    5b4a:	92 e0       	ldi	r25, 0x02	; 2
    5b4c:	0e 94 c2 08 	call	0x1184	; 0x1184 <USART_SendString>
			                    USART_SendString(" !!! ALARM: FALL CONFIRMED !!! ");
    5b50:	87 e9       	ldi	r24, 0x97	; 151
    5b52:	92 e0       	ldi	r25, 0x02	; 2
    5b54:	0e 94 c2 08 	call	0x1184	; 0x1184 <USART_SendString>
			                    USART_SendString("\r\n =============================== \r\n");
    5b58:	81 e7       	ldi	r24, 0x71	; 113
    5b5a:	92 e0       	ldi	r25, 0x02	; 2
    5b5c:	0e 94 c2 08 	call	0x1184	; 0x1184 <USART_SendString>

			                    // تفعيل الإنذار
			                    DDRD |= (1 << DDD6);
    5b60:	a1 e3       	ldi	r26, 0x31	; 49
    5b62:	b0 e0       	ldi	r27, 0x00	; 0
    5b64:	e1 e3       	ldi	r30, 0x31	; 49
    5b66:	f0 e0       	ldi	r31, 0x00	; 0
    5b68:	80 81       	ld	r24, Z
    5b6a:	80 64       	ori	r24, 0x40	; 64
    5b6c:	8c 93       	st	X, r24
			                    PORTD |= (1 << PORTD6);
    5b6e:	a2 e3       	ldi	r26, 0x32	; 50
    5b70:	b0 e0       	ldi	r27, 0x00	; 0
    5b72:	e2 e3       	ldi	r30, 0x32	; 50
    5b74:	f0 e0       	ldi	r31, 0x00	; 0
    5b76:	80 81       	ld	r24, Z
    5b78:	80 64       	ori	r24, 0x40	; 64
    5b7a:	8c 93       	st	X, r24


			                    // ريست لكل شيء للوقعة القادمة
			                    fall_step = 0;
    5b7c:	10 92 0f 04 	sts	0x040F, r1
			                    stability_counter = 0;
    5b80:	10 92 0e 04 	sts	0x040E, r1
    5b84:	10 92 0d 04 	sts	0x040D, r1
    5b88:	04 c0       	rjmp	.+8      	; 0x5b92 <main+0x6e0>
			                }
			            } else {
			                // لو حصلت خبطة تانية أو حركة عنيفة، بنصفر العداد ونستنى يثبت
			                stability_counter = 0;
    5b8a:	10 92 0e 04 	sts	0x040E, r1
    5b8e:	10 92 0d 04 	sts	0x040D, r1
			            }

			            // أمان إضافي: لو قعد أكتر من 3 ثواني بيتهز ومش راضي يثبت
			            fall_timer++;
    5b92:	80 91 0b 04 	lds	r24, 0x040B
    5b96:	90 91 0c 04 	lds	r25, 0x040C
    5b9a:	01 96       	adiw	r24, 0x01	; 1
    5b9c:	90 93 0c 04 	sts	0x040C, r25
    5ba0:	80 93 0b 04 	sts	0x040B, r24
			            if (fall_timer > 150) {
    5ba4:	80 91 0b 04 	lds	r24, 0x040B
    5ba8:	90 91 0c 04 	lds	r25, 0x040C
    5bac:	87 39       	cpi	r24, 0x97	; 151
    5bae:	91 05       	cpc	r25, r1
    5bb0:	50 f0       	brcs	.+20     	; 0x5bc6 <main+0x714>
			                fall_step = 0;
    5bb2:	10 92 0f 04 	sts	0x040F, r1
			                stability_counter = 0;
    5bb6:	10 92 0e 04 	sts	0x040E, r1
    5bba:	10 92 0d 04 	sts	0x040D, r1
			                USART_SendString(">> Reset: Unstable for too long.\r\n");
    5bbe:	87 eb       	ldi	r24, 0xB7	; 183
    5bc0:	92 e0       	ldi	r25, 0x02	; 2
    5bc2:	0e 94 c2 08 	call	0x1184	; 0x1184 <USART_SendString>

		static u8  fall_step = 0;
		static u16 stability_counter = 0;
		static u16 fall_timer = 0;
//=================================MPU while loop=================================
		while (fall_detected == 0) {
    5bc6:	89 a1       	ldd	r24, Y+33	; 0x21
    5bc8:	88 23       	and	r24, r24
    5bca:	09 f4       	brne	.+2      	; 0x5bce <main+0x71c>
    5bcc:	50 cd       	rjmp	.-1376   	; 0x566e <main+0x1bc>
    5bce:	c9 cc       	rjmp	.-1646   	; 0x5562 <main+0xb0>

00005bd0 <__mulsi3>:
    5bd0:	62 9f       	mul	r22, r18
    5bd2:	d0 01       	movw	r26, r0
    5bd4:	73 9f       	mul	r23, r19
    5bd6:	f0 01       	movw	r30, r0
    5bd8:	82 9f       	mul	r24, r18
    5bda:	e0 0d       	add	r30, r0
    5bdc:	f1 1d       	adc	r31, r1
    5bde:	64 9f       	mul	r22, r20
    5be0:	e0 0d       	add	r30, r0
    5be2:	f1 1d       	adc	r31, r1
    5be4:	92 9f       	mul	r25, r18
    5be6:	f0 0d       	add	r31, r0
    5be8:	83 9f       	mul	r24, r19
    5bea:	f0 0d       	add	r31, r0
    5bec:	74 9f       	mul	r23, r20
    5bee:	f0 0d       	add	r31, r0
    5bf0:	65 9f       	mul	r22, r21
    5bf2:	f0 0d       	add	r31, r0
    5bf4:	99 27       	eor	r25, r25
    5bf6:	72 9f       	mul	r23, r18
    5bf8:	b0 0d       	add	r27, r0
    5bfa:	e1 1d       	adc	r30, r1
    5bfc:	f9 1f       	adc	r31, r25
    5bfe:	63 9f       	mul	r22, r19
    5c00:	b0 0d       	add	r27, r0
    5c02:	e1 1d       	adc	r30, r1
    5c04:	f9 1f       	adc	r31, r25
    5c06:	bd 01       	movw	r22, r26
    5c08:	cf 01       	movw	r24, r30
    5c0a:	11 24       	eor	r1, r1
    5c0c:	08 95       	ret

00005c0e <__udivmodhi4>:
    5c0e:	aa 1b       	sub	r26, r26
    5c10:	bb 1b       	sub	r27, r27
    5c12:	51 e1       	ldi	r21, 0x11	; 17
    5c14:	07 c0       	rjmp	.+14     	; 0x5c24 <__udivmodhi4_ep>

00005c16 <__udivmodhi4_loop>:
    5c16:	aa 1f       	adc	r26, r26
    5c18:	bb 1f       	adc	r27, r27
    5c1a:	a6 17       	cp	r26, r22
    5c1c:	b7 07       	cpc	r27, r23
    5c1e:	10 f0       	brcs	.+4      	; 0x5c24 <__udivmodhi4_ep>
    5c20:	a6 1b       	sub	r26, r22
    5c22:	b7 0b       	sbc	r27, r23

00005c24 <__udivmodhi4_ep>:
    5c24:	88 1f       	adc	r24, r24
    5c26:	99 1f       	adc	r25, r25
    5c28:	5a 95       	dec	r21
    5c2a:	a9 f7       	brne	.-22     	; 0x5c16 <__udivmodhi4_loop>
    5c2c:	80 95       	com	r24
    5c2e:	90 95       	com	r25
    5c30:	bc 01       	movw	r22, r24
    5c32:	cd 01       	movw	r24, r26
    5c34:	08 95       	ret

00005c36 <__udivmodsi4>:
    5c36:	a1 e2       	ldi	r26, 0x21	; 33
    5c38:	1a 2e       	mov	r1, r26
    5c3a:	aa 1b       	sub	r26, r26
    5c3c:	bb 1b       	sub	r27, r27
    5c3e:	fd 01       	movw	r30, r26
    5c40:	0d c0       	rjmp	.+26     	; 0x5c5c <__udivmodsi4_ep>

00005c42 <__udivmodsi4_loop>:
    5c42:	aa 1f       	adc	r26, r26
    5c44:	bb 1f       	adc	r27, r27
    5c46:	ee 1f       	adc	r30, r30
    5c48:	ff 1f       	adc	r31, r31
    5c4a:	a2 17       	cp	r26, r18
    5c4c:	b3 07       	cpc	r27, r19
    5c4e:	e4 07       	cpc	r30, r20
    5c50:	f5 07       	cpc	r31, r21
    5c52:	20 f0       	brcs	.+8      	; 0x5c5c <__udivmodsi4_ep>
    5c54:	a2 1b       	sub	r26, r18
    5c56:	b3 0b       	sbc	r27, r19
    5c58:	e4 0b       	sbc	r30, r20
    5c5a:	f5 0b       	sbc	r31, r21

00005c5c <__udivmodsi4_ep>:
    5c5c:	66 1f       	adc	r22, r22
    5c5e:	77 1f       	adc	r23, r23
    5c60:	88 1f       	adc	r24, r24
    5c62:	99 1f       	adc	r25, r25
    5c64:	1a 94       	dec	r1
    5c66:	69 f7       	brne	.-38     	; 0x5c42 <__udivmodsi4_loop>
    5c68:	60 95       	com	r22
    5c6a:	70 95       	com	r23
    5c6c:	80 95       	com	r24
    5c6e:	90 95       	com	r25
    5c70:	9b 01       	movw	r18, r22
    5c72:	ac 01       	movw	r20, r24
    5c74:	bd 01       	movw	r22, r26
    5c76:	cf 01       	movw	r24, r30
    5c78:	08 95       	ret

00005c7a <__prologue_saves__>:
    5c7a:	2f 92       	push	r2
    5c7c:	3f 92       	push	r3
    5c7e:	4f 92       	push	r4
    5c80:	5f 92       	push	r5
    5c82:	6f 92       	push	r6
    5c84:	7f 92       	push	r7
    5c86:	8f 92       	push	r8
    5c88:	9f 92       	push	r9
    5c8a:	af 92       	push	r10
    5c8c:	bf 92       	push	r11
    5c8e:	cf 92       	push	r12
    5c90:	df 92       	push	r13
    5c92:	ef 92       	push	r14
    5c94:	ff 92       	push	r15
    5c96:	0f 93       	push	r16
    5c98:	1f 93       	push	r17
    5c9a:	cf 93       	push	r28
    5c9c:	df 93       	push	r29
    5c9e:	cd b7       	in	r28, 0x3d	; 61
    5ca0:	de b7       	in	r29, 0x3e	; 62
    5ca2:	ca 1b       	sub	r28, r26
    5ca4:	db 0b       	sbc	r29, r27
    5ca6:	0f b6       	in	r0, 0x3f	; 63
    5ca8:	f8 94       	cli
    5caa:	de bf       	out	0x3e, r29	; 62
    5cac:	0f be       	out	0x3f, r0	; 63
    5cae:	cd bf       	out	0x3d, r28	; 61
    5cb0:	09 94       	ijmp

00005cb2 <__epilogue_restores__>:
    5cb2:	2a 88       	ldd	r2, Y+18	; 0x12
    5cb4:	39 88       	ldd	r3, Y+17	; 0x11
    5cb6:	48 88       	ldd	r4, Y+16	; 0x10
    5cb8:	5f 84       	ldd	r5, Y+15	; 0x0f
    5cba:	6e 84       	ldd	r6, Y+14	; 0x0e
    5cbc:	7d 84       	ldd	r7, Y+13	; 0x0d
    5cbe:	8c 84       	ldd	r8, Y+12	; 0x0c
    5cc0:	9b 84       	ldd	r9, Y+11	; 0x0b
    5cc2:	aa 84       	ldd	r10, Y+10	; 0x0a
    5cc4:	b9 84       	ldd	r11, Y+9	; 0x09
    5cc6:	c8 84       	ldd	r12, Y+8	; 0x08
    5cc8:	df 80       	ldd	r13, Y+7	; 0x07
    5cca:	ee 80       	ldd	r14, Y+6	; 0x06
    5ccc:	fd 80       	ldd	r15, Y+5	; 0x05
    5cce:	0c 81       	ldd	r16, Y+4	; 0x04
    5cd0:	1b 81       	ldd	r17, Y+3	; 0x03
    5cd2:	aa 81       	ldd	r26, Y+2	; 0x02
    5cd4:	b9 81       	ldd	r27, Y+1	; 0x01
    5cd6:	ce 0f       	add	r28, r30
    5cd8:	d1 1d       	adc	r29, r1
    5cda:	0f b6       	in	r0, 0x3f	; 63
    5cdc:	f8 94       	cli
    5cde:	de bf       	out	0x3e, r29	; 62
    5ce0:	0f be       	out	0x3f, r0	; 63
    5ce2:	cd bf       	out	0x3d, r28	; 61
    5ce4:	ed 01       	movw	r28, r26
    5ce6:	08 95       	ret

00005ce8 <dtostrf>:
    5ce8:	ef 92       	push	r14
    5cea:	ff 92       	push	r15
    5cec:	0f 93       	push	r16
    5cee:	1f 93       	push	r17
    5cf0:	f2 2f       	mov	r31, r18
    5cf2:	f0 2e       	mov	r15, r16
    5cf4:	47 fd       	sbrc	r20, 7
    5cf6:	02 c0       	rjmp	.+4      	; 0x5cfc <dtostrf+0x14>
    5cf8:	e4 e0       	ldi	r30, 0x04	; 4
    5cfa:	01 c0       	rjmp	.+2      	; 0x5cfe <dtostrf+0x16>
    5cfc:	e4 e1       	ldi	r30, 0x14	; 20
    5cfe:	24 2f       	mov	r18, r20
    5d00:	33 27       	eor	r19, r19
    5d02:	27 fd       	sbrc	r18, 7
    5d04:	30 95       	com	r19
    5d06:	37 ff       	sbrs	r19, 7
    5d08:	03 c0       	rjmp	.+6      	; 0x5d10 <dtostrf+0x28>
    5d0a:	30 95       	com	r19
    5d0c:	21 95       	neg	r18
    5d0e:	3f 4f       	sbci	r19, 0xFF	; 255
    5d10:	4f 2d       	mov	r20, r15
    5d12:	51 2f       	mov	r21, r17
    5d14:	0f 2f       	mov	r16, r31
    5d16:	ee 2e       	mov	r14, r30
    5d18:	0e 94 f9 30 	call	0x61f2	; 0x61f2 <dtoa_prf>
    5d1c:	8f 2d       	mov	r24, r15
    5d1e:	91 2f       	mov	r25, r17
    5d20:	1f 91       	pop	r17
    5d22:	0f 91       	pop	r16
    5d24:	ff 90       	pop	r15
    5d26:	ef 90       	pop	r14
    5d28:	08 95       	ret

00005d2a <itoa>:
    5d2a:	fb 01       	movw	r30, r22
    5d2c:	9f 01       	movw	r18, r30
    5d2e:	e8 94       	clt
    5d30:	42 30       	cpi	r20, 0x02	; 2
    5d32:	c4 f0       	brlt	.+48     	; 0x5d64 <itoa+0x3a>
    5d34:	45 32       	cpi	r20, 0x25	; 37
    5d36:	b4 f4       	brge	.+44     	; 0x5d64 <itoa+0x3a>
    5d38:	4a 30       	cpi	r20, 0x0A	; 10
    5d3a:	29 f4       	brne	.+10     	; 0x5d46 <itoa+0x1c>
    5d3c:	97 fb       	bst	r25, 7
    5d3e:	1e f4       	brtc	.+6      	; 0x5d46 <itoa+0x1c>
    5d40:	90 95       	com	r25
    5d42:	81 95       	neg	r24
    5d44:	9f 4f       	sbci	r25, 0xFF	; 255
    5d46:	64 2f       	mov	r22, r20
    5d48:	77 27       	eor	r23, r23
    5d4a:	0e 94 07 2e 	call	0x5c0e	; 0x5c0e <__udivmodhi4>
    5d4e:	80 5d       	subi	r24, 0xD0	; 208
    5d50:	8a 33       	cpi	r24, 0x3A	; 58
    5d52:	0c f0       	brlt	.+2      	; 0x5d56 <itoa+0x2c>
    5d54:	89 5d       	subi	r24, 0xD9	; 217
    5d56:	81 93       	st	Z+, r24
    5d58:	cb 01       	movw	r24, r22
    5d5a:	00 97       	sbiw	r24, 0x00	; 0
    5d5c:	a1 f7       	brne	.-24     	; 0x5d46 <itoa+0x1c>
    5d5e:	16 f4       	brtc	.+4      	; 0x5d64 <itoa+0x3a>
    5d60:	5d e2       	ldi	r21, 0x2D	; 45
    5d62:	51 93       	st	Z+, r21
    5d64:	10 82       	st	Z, r1
    5d66:	c9 01       	movw	r24, r18
    5d68:	0c 94 49 33 	jmp	0x6692	; 0x6692 <strrev>

00005d6c <sprintf>:
    5d6c:	ae e0       	ldi	r26, 0x0E	; 14
    5d6e:	b0 e0       	ldi	r27, 0x00	; 0
    5d70:	ec eb       	ldi	r30, 0xBC	; 188
    5d72:	fe e2       	ldi	r31, 0x2E	; 46
    5d74:	0c 94 4b 2e 	jmp	0x5c96	; 0x5c96 <__prologue_saves__+0x1c>
    5d78:	0d 89       	ldd	r16, Y+21	; 0x15
    5d7a:	1e 89       	ldd	r17, Y+22	; 0x16
    5d7c:	86 e0       	ldi	r24, 0x06	; 6
    5d7e:	8c 83       	std	Y+4, r24	; 0x04
    5d80:	1a 83       	std	Y+2, r17	; 0x02
    5d82:	09 83       	std	Y+1, r16	; 0x01
    5d84:	8f ef       	ldi	r24, 0xFF	; 255
    5d86:	9f e7       	ldi	r25, 0x7F	; 127
    5d88:	9e 83       	std	Y+6, r25	; 0x06
    5d8a:	8d 83       	std	Y+5, r24	; 0x05
    5d8c:	9e 01       	movw	r18, r28
    5d8e:	27 5e       	subi	r18, 0xE7	; 231
    5d90:	3f 4f       	sbci	r19, 0xFF	; 255
    5d92:	ce 01       	movw	r24, r28
    5d94:	01 96       	adiw	r24, 0x01	; 1
    5d96:	6f 89       	ldd	r22, Y+23	; 0x17
    5d98:	78 8d       	ldd	r23, Y+24	; 0x18
    5d9a:	a9 01       	movw	r20, r18
    5d9c:	0e 94 1c 2f 	call	0x5e38	; 0x5e38 <vfprintf>
    5da0:	2f 81       	ldd	r18, Y+7	; 0x07
    5da2:	38 85       	ldd	r19, Y+8	; 0x08
    5da4:	02 0f       	add	r16, r18
    5da6:	13 1f       	adc	r17, r19
    5da8:	f8 01       	movw	r30, r16
    5daa:	10 82       	st	Z, r1
    5dac:	2e 96       	adiw	r28, 0x0e	; 14
    5dae:	e4 e0       	ldi	r30, 0x04	; 4
    5db0:	0c 94 67 2e 	jmp	0x5cce	; 0x5cce <__epilogue_restores__+0x1c>
    5db4:	11 f4       	brne	.+4      	; 0x5dba <sprintf+0x4e>
    5db6:	0e f4       	brtc	.+2      	; 0x5dba <sprintf+0x4e>
    5db8:	14 c5       	rjmp	.+2600   	; 0x67e2 <__fp_nan>
    5dba:	05 c5       	rjmp	.+2570   	; 0x67c6 <__fp_mpack>

00005dbc <sqrt>:
    5dbc:	24 d5       	rcall	.+2632   	; 0x6806 <__fp_splitA>
    5dbe:	d0 f3       	brcs	.-12     	; 0x5db4 <sprintf+0x48>
    5dc0:	99 23       	and	r25, r25
    5dc2:	d9 f3       	breq	.-10     	; 0x5dba <sprintf+0x4e>
    5dc4:	ce f3       	brts	.-14     	; 0x5db8 <sprintf+0x4c>
    5dc6:	9f 57       	subi	r25, 0x7F	; 127
    5dc8:	55 0b       	sbc	r21, r21
    5dca:	87 ff       	sbrs	r24, 7
    5dcc:	0d d5       	rcall	.+2586   	; 0x67e8 <__fp_norm2>
    5dce:	00 24       	eor	r0, r0
    5dd0:	a0 e6       	ldi	r26, 0x60	; 96
    5dd2:	40 ea       	ldi	r20, 0xA0	; 160
    5dd4:	90 01       	movw	r18, r0
    5dd6:	80 58       	subi	r24, 0x80	; 128
    5dd8:	56 95       	lsr	r21
    5dda:	97 95       	ror	r25
    5ddc:	28 f4       	brcc	.+10     	; 0x5de8 <sqrt+0x2c>
    5dde:	80 5c       	subi	r24, 0xC0	; 192
    5de0:	66 0f       	add	r22, r22
    5de2:	77 1f       	adc	r23, r23
    5de4:	88 1f       	adc	r24, r24
    5de6:	20 f0       	brcs	.+8      	; 0x5df0 <sqrt+0x34>
    5de8:	26 17       	cp	r18, r22
    5dea:	37 07       	cpc	r19, r23
    5dec:	48 07       	cpc	r20, r24
    5dee:	30 f4       	brcc	.+12     	; 0x5dfc <sqrt+0x40>
    5df0:	62 1b       	sub	r22, r18
    5df2:	73 0b       	sbc	r23, r19
    5df4:	84 0b       	sbc	r24, r20
    5df6:	20 29       	or	r18, r0
    5df8:	31 29       	or	r19, r1
    5dfa:	4a 2b       	or	r20, r26
    5dfc:	a6 95       	lsr	r26
    5dfe:	17 94       	ror	r1
    5e00:	07 94       	ror	r0
    5e02:	20 25       	eor	r18, r0
    5e04:	31 25       	eor	r19, r1
    5e06:	4a 27       	eor	r20, r26
    5e08:	58 f7       	brcc	.-42     	; 0x5de0 <sqrt+0x24>
    5e0a:	66 0f       	add	r22, r22
    5e0c:	77 1f       	adc	r23, r23
    5e0e:	88 1f       	adc	r24, r24
    5e10:	20 f0       	brcs	.+8      	; 0x5e1a <sqrt+0x5e>
    5e12:	26 17       	cp	r18, r22
    5e14:	37 07       	cpc	r19, r23
    5e16:	48 07       	cpc	r20, r24
    5e18:	30 f4       	brcc	.+12     	; 0x5e26 <sqrt+0x6a>
    5e1a:	62 0b       	sbc	r22, r18
    5e1c:	73 0b       	sbc	r23, r19
    5e1e:	84 0b       	sbc	r24, r20
    5e20:	20 0d       	add	r18, r0
    5e22:	31 1d       	adc	r19, r1
    5e24:	41 1d       	adc	r20, r1
    5e26:	a0 95       	com	r26
    5e28:	81 f7       	brne	.-32     	; 0x5e0a <sqrt+0x4e>
    5e2a:	b9 01       	movw	r22, r18
    5e2c:	84 2f       	mov	r24, r20
    5e2e:	91 58       	subi	r25, 0x81	; 129
    5e30:	88 0f       	add	r24, r24
    5e32:	96 95       	lsr	r25
    5e34:	87 95       	ror	r24
    5e36:	08 95       	ret

00005e38 <vfprintf>:
    5e38:	ab e0       	ldi	r26, 0x0B	; 11
    5e3a:	b0 e0       	ldi	r27, 0x00	; 0
    5e3c:	e2 e2       	ldi	r30, 0x22	; 34
    5e3e:	ff e2       	ldi	r31, 0x2F	; 47
    5e40:	0c 94 3d 2e 	jmp	0x5c7a	; 0x5c7a <__prologue_saves__>
    5e44:	3c 01       	movw	r6, r24
    5e46:	2b 01       	movw	r4, r22
    5e48:	5a 01       	movw	r10, r20
    5e4a:	fc 01       	movw	r30, r24
    5e4c:	17 82       	std	Z+7, r1	; 0x07
    5e4e:	16 82       	std	Z+6, r1	; 0x06
    5e50:	83 81       	ldd	r24, Z+3	; 0x03
    5e52:	81 fd       	sbrc	r24, 1
    5e54:	03 c0       	rjmp	.+6      	; 0x5e5c <vfprintf+0x24>
    5e56:	6f ef       	ldi	r22, 0xFF	; 255
    5e58:	7f ef       	ldi	r23, 0xFF	; 255
    5e5a:	c6 c1       	rjmp	.+908    	; 0x61e8 <vfprintf+0x3b0>
    5e5c:	9a e0       	ldi	r25, 0x0A	; 10
    5e5e:	89 2e       	mov	r8, r25
    5e60:	1e 01       	movw	r2, r28
    5e62:	08 94       	sec
    5e64:	21 1c       	adc	r2, r1
    5e66:	31 1c       	adc	r3, r1
    5e68:	f3 01       	movw	r30, r6
    5e6a:	23 81       	ldd	r18, Z+3	; 0x03
    5e6c:	f2 01       	movw	r30, r4
    5e6e:	23 fd       	sbrc	r18, 3
    5e70:	85 91       	lpm	r24, Z+
    5e72:	23 ff       	sbrs	r18, 3
    5e74:	81 91       	ld	r24, Z+
    5e76:	2f 01       	movw	r4, r30
    5e78:	88 23       	and	r24, r24
    5e7a:	09 f4       	brne	.+2      	; 0x5e7e <vfprintf+0x46>
    5e7c:	b2 c1       	rjmp	.+868    	; 0x61e2 <vfprintf+0x3aa>
    5e7e:	85 32       	cpi	r24, 0x25	; 37
    5e80:	39 f4       	brne	.+14     	; 0x5e90 <vfprintf+0x58>
    5e82:	23 fd       	sbrc	r18, 3
    5e84:	85 91       	lpm	r24, Z+
    5e86:	23 ff       	sbrs	r18, 3
    5e88:	81 91       	ld	r24, Z+
    5e8a:	2f 01       	movw	r4, r30
    5e8c:	85 32       	cpi	r24, 0x25	; 37
    5e8e:	29 f4       	brne	.+10     	; 0x5e9a <vfprintf+0x62>
    5e90:	90 e0       	ldi	r25, 0x00	; 0
    5e92:	b3 01       	movw	r22, r6
    5e94:	0e 94 59 33 	call	0x66b2	; 0x66b2 <fputc>
    5e98:	e7 cf       	rjmp	.-50     	; 0x5e68 <vfprintf+0x30>
    5e9a:	98 2f       	mov	r25, r24
    5e9c:	ff 24       	eor	r15, r15
    5e9e:	ee 24       	eor	r14, r14
    5ea0:	99 24       	eor	r9, r9
    5ea2:	ff e1       	ldi	r31, 0x1F	; 31
    5ea4:	ff 15       	cp	r31, r15
    5ea6:	d0 f0       	brcs	.+52     	; 0x5edc <vfprintf+0xa4>
    5ea8:	9b 32       	cpi	r25, 0x2B	; 43
    5eaa:	69 f0       	breq	.+26     	; 0x5ec6 <vfprintf+0x8e>
    5eac:	9c 32       	cpi	r25, 0x2C	; 44
    5eae:	28 f4       	brcc	.+10     	; 0x5eba <vfprintf+0x82>
    5eb0:	90 32       	cpi	r25, 0x20	; 32
    5eb2:	59 f0       	breq	.+22     	; 0x5eca <vfprintf+0x92>
    5eb4:	93 32       	cpi	r25, 0x23	; 35
    5eb6:	91 f4       	brne	.+36     	; 0x5edc <vfprintf+0xa4>
    5eb8:	0e c0       	rjmp	.+28     	; 0x5ed6 <vfprintf+0x9e>
    5eba:	9d 32       	cpi	r25, 0x2D	; 45
    5ebc:	49 f0       	breq	.+18     	; 0x5ed0 <vfprintf+0x98>
    5ebe:	90 33       	cpi	r25, 0x30	; 48
    5ec0:	69 f4       	brne	.+26     	; 0x5edc <vfprintf+0xa4>
    5ec2:	41 e0       	ldi	r20, 0x01	; 1
    5ec4:	24 c0       	rjmp	.+72     	; 0x5f0e <vfprintf+0xd6>
    5ec6:	52 e0       	ldi	r21, 0x02	; 2
    5ec8:	f5 2a       	or	r15, r21
    5eca:	84 e0       	ldi	r24, 0x04	; 4
    5ecc:	f8 2a       	or	r15, r24
    5ece:	28 c0       	rjmp	.+80     	; 0x5f20 <vfprintf+0xe8>
    5ed0:	98 e0       	ldi	r25, 0x08	; 8
    5ed2:	f9 2a       	or	r15, r25
    5ed4:	25 c0       	rjmp	.+74     	; 0x5f20 <vfprintf+0xe8>
    5ed6:	e0 e1       	ldi	r30, 0x10	; 16
    5ed8:	fe 2a       	or	r15, r30
    5eda:	22 c0       	rjmp	.+68     	; 0x5f20 <vfprintf+0xe8>
    5edc:	f7 fc       	sbrc	r15, 7
    5ede:	29 c0       	rjmp	.+82     	; 0x5f32 <vfprintf+0xfa>
    5ee0:	89 2f       	mov	r24, r25
    5ee2:	80 53       	subi	r24, 0x30	; 48
    5ee4:	8a 30       	cpi	r24, 0x0A	; 10
    5ee6:	70 f4       	brcc	.+28     	; 0x5f04 <vfprintf+0xcc>
    5ee8:	f6 fe       	sbrs	r15, 6
    5eea:	05 c0       	rjmp	.+10     	; 0x5ef6 <vfprintf+0xbe>
    5eec:	98 9c       	mul	r9, r8
    5eee:	90 2c       	mov	r9, r0
    5ef0:	11 24       	eor	r1, r1
    5ef2:	98 0e       	add	r9, r24
    5ef4:	15 c0       	rjmp	.+42     	; 0x5f20 <vfprintf+0xe8>
    5ef6:	e8 9c       	mul	r14, r8
    5ef8:	e0 2c       	mov	r14, r0
    5efa:	11 24       	eor	r1, r1
    5efc:	e8 0e       	add	r14, r24
    5efe:	f0 e2       	ldi	r31, 0x20	; 32
    5f00:	ff 2a       	or	r15, r31
    5f02:	0e c0       	rjmp	.+28     	; 0x5f20 <vfprintf+0xe8>
    5f04:	9e 32       	cpi	r25, 0x2E	; 46
    5f06:	29 f4       	brne	.+10     	; 0x5f12 <vfprintf+0xda>
    5f08:	f6 fc       	sbrc	r15, 6
    5f0a:	6b c1       	rjmp	.+726    	; 0x61e2 <vfprintf+0x3aa>
    5f0c:	40 e4       	ldi	r20, 0x40	; 64
    5f0e:	f4 2a       	or	r15, r20
    5f10:	07 c0       	rjmp	.+14     	; 0x5f20 <vfprintf+0xe8>
    5f12:	9c 36       	cpi	r25, 0x6C	; 108
    5f14:	19 f4       	brne	.+6      	; 0x5f1c <vfprintf+0xe4>
    5f16:	50 e8       	ldi	r21, 0x80	; 128
    5f18:	f5 2a       	or	r15, r21
    5f1a:	02 c0       	rjmp	.+4      	; 0x5f20 <vfprintf+0xe8>
    5f1c:	98 36       	cpi	r25, 0x68	; 104
    5f1e:	49 f4       	brne	.+18     	; 0x5f32 <vfprintf+0xfa>
    5f20:	f2 01       	movw	r30, r4
    5f22:	23 fd       	sbrc	r18, 3
    5f24:	95 91       	lpm	r25, Z+
    5f26:	23 ff       	sbrs	r18, 3
    5f28:	91 91       	ld	r25, Z+
    5f2a:	2f 01       	movw	r4, r30
    5f2c:	99 23       	and	r25, r25
    5f2e:	09 f0       	breq	.+2      	; 0x5f32 <vfprintf+0xfa>
    5f30:	b8 cf       	rjmp	.-144    	; 0x5ea2 <vfprintf+0x6a>
    5f32:	89 2f       	mov	r24, r25
    5f34:	85 54       	subi	r24, 0x45	; 69
    5f36:	83 30       	cpi	r24, 0x03	; 3
    5f38:	18 f0       	brcs	.+6      	; 0x5f40 <vfprintf+0x108>
    5f3a:	80 52       	subi	r24, 0x20	; 32
    5f3c:	83 30       	cpi	r24, 0x03	; 3
    5f3e:	38 f4       	brcc	.+14     	; 0x5f4e <vfprintf+0x116>
    5f40:	44 e0       	ldi	r20, 0x04	; 4
    5f42:	50 e0       	ldi	r21, 0x00	; 0
    5f44:	a4 0e       	add	r10, r20
    5f46:	b5 1e       	adc	r11, r21
    5f48:	5f e3       	ldi	r21, 0x3F	; 63
    5f4a:	59 83       	std	Y+1, r21	; 0x01
    5f4c:	0f c0       	rjmp	.+30     	; 0x5f6c <vfprintf+0x134>
    5f4e:	93 36       	cpi	r25, 0x63	; 99
    5f50:	31 f0       	breq	.+12     	; 0x5f5e <vfprintf+0x126>
    5f52:	93 37       	cpi	r25, 0x73	; 115
    5f54:	79 f0       	breq	.+30     	; 0x5f74 <vfprintf+0x13c>
    5f56:	93 35       	cpi	r25, 0x53	; 83
    5f58:	09 f0       	breq	.+2      	; 0x5f5c <vfprintf+0x124>
    5f5a:	56 c0       	rjmp	.+172    	; 0x6008 <vfprintf+0x1d0>
    5f5c:	20 c0       	rjmp	.+64     	; 0x5f9e <vfprintf+0x166>
    5f5e:	f5 01       	movw	r30, r10
    5f60:	80 81       	ld	r24, Z
    5f62:	89 83       	std	Y+1, r24	; 0x01
    5f64:	42 e0       	ldi	r20, 0x02	; 2
    5f66:	50 e0       	ldi	r21, 0x00	; 0
    5f68:	a4 0e       	add	r10, r20
    5f6a:	b5 1e       	adc	r11, r21
    5f6c:	61 01       	movw	r12, r2
    5f6e:	01 e0       	ldi	r16, 0x01	; 1
    5f70:	10 e0       	ldi	r17, 0x00	; 0
    5f72:	12 c0       	rjmp	.+36     	; 0x5f98 <vfprintf+0x160>
    5f74:	f5 01       	movw	r30, r10
    5f76:	c0 80       	ld	r12, Z
    5f78:	d1 80       	ldd	r13, Z+1	; 0x01
    5f7a:	f6 fc       	sbrc	r15, 6
    5f7c:	03 c0       	rjmp	.+6      	; 0x5f84 <vfprintf+0x14c>
    5f7e:	6f ef       	ldi	r22, 0xFF	; 255
    5f80:	7f ef       	ldi	r23, 0xFF	; 255
    5f82:	02 c0       	rjmp	.+4      	; 0x5f88 <vfprintf+0x150>
    5f84:	69 2d       	mov	r22, r9
    5f86:	70 e0       	ldi	r23, 0x00	; 0
    5f88:	42 e0       	ldi	r20, 0x02	; 2
    5f8a:	50 e0       	ldi	r21, 0x00	; 0
    5f8c:	a4 0e       	add	r10, r20
    5f8e:	b5 1e       	adc	r11, r21
    5f90:	c6 01       	movw	r24, r12
    5f92:	0e 94 3e 33 	call	0x667c	; 0x667c <strnlen>
    5f96:	8c 01       	movw	r16, r24
    5f98:	5f e7       	ldi	r21, 0x7F	; 127
    5f9a:	f5 22       	and	r15, r21
    5f9c:	14 c0       	rjmp	.+40     	; 0x5fc6 <vfprintf+0x18e>
    5f9e:	f5 01       	movw	r30, r10
    5fa0:	c0 80       	ld	r12, Z
    5fa2:	d1 80       	ldd	r13, Z+1	; 0x01
    5fa4:	f6 fc       	sbrc	r15, 6
    5fa6:	03 c0       	rjmp	.+6      	; 0x5fae <vfprintf+0x176>
    5fa8:	6f ef       	ldi	r22, 0xFF	; 255
    5faa:	7f ef       	ldi	r23, 0xFF	; 255
    5fac:	02 c0       	rjmp	.+4      	; 0x5fb2 <vfprintf+0x17a>
    5fae:	69 2d       	mov	r22, r9
    5fb0:	70 e0       	ldi	r23, 0x00	; 0
    5fb2:	42 e0       	ldi	r20, 0x02	; 2
    5fb4:	50 e0       	ldi	r21, 0x00	; 0
    5fb6:	a4 0e       	add	r10, r20
    5fb8:	b5 1e       	adc	r11, r21
    5fba:	c6 01       	movw	r24, r12
    5fbc:	0e 94 33 33 	call	0x6666	; 0x6666 <strnlen_P>
    5fc0:	8c 01       	movw	r16, r24
    5fc2:	50 e8       	ldi	r21, 0x80	; 128
    5fc4:	f5 2a       	or	r15, r21
    5fc6:	f3 fe       	sbrs	r15, 3
    5fc8:	07 c0       	rjmp	.+14     	; 0x5fd8 <vfprintf+0x1a0>
    5fca:	1a c0       	rjmp	.+52     	; 0x6000 <vfprintf+0x1c8>
    5fcc:	80 e2       	ldi	r24, 0x20	; 32
    5fce:	90 e0       	ldi	r25, 0x00	; 0
    5fd0:	b3 01       	movw	r22, r6
    5fd2:	0e 94 59 33 	call	0x66b2	; 0x66b2 <fputc>
    5fd6:	ea 94       	dec	r14
    5fd8:	8e 2d       	mov	r24, r14
    5fda:	90 e0       	ldi	r25, 0x00	; 0
    5fdc:	08 17       	cp	r16, r24
    5fde:	19 07       	cpc	r17, r25
    5fe0:	a8 f3       	brcs	.-22     	; 0x5fcc <vfprintf+0x194>
    5fe2:	0e c0       	rjmp	.+28     	; 0x6000 <vfprintf+0x1c8>
    5fe4:	f6 01       	movw	r30, r12
    5fe6:	f7 fc       	sbrc	r15, 7
    5fe8:	85 91       	lpm	r24, Z+
    5fea:	f7 fe       	sbrs	r15, 7
    5fec:	81 91       	ld	r24, Z+
    5fee:	6f 01       	movw	r12, r30
    5ff0:	90 e0       	ldi	r25, 0x00	; 0
    5ff2:	b3 01       	movw	r22, r6
    5ff4:	0e 94 59 33 	call	0x66b2	; 0x66b2 <fputc>
    5ff8:	e1 10       	cpse	r14, r1
    5ffa:	ea 94       	dec	r14
    5ffc:	01 50       	subi	r16, 0x01	; 1
    5ffe:	10 40       	sbci	r17, 0x00	; 0
    6000:	01 15       	cp	r16, r1
    6002:	11 05       	cpc	r17, r1
    6004:	79 f7       	brne	.-34     	; 0x5fe4 <vfprintf+0x1ac>
    6006:	ea c0       	rjmp	.+468    	; 0x61dc <vfprintf+0x3a4>
    6008:	94 36       	cpi	r25, 0x64	; 100
    600a:	11 f0       	breq	.+4      	; 0x6010 <vfprintf+0x1d8>
    600c:	99 36       	cpi	r25, 0x69	; 105
    600e:	69 f5       	brne	.+90     	; 0x606a <vfprintf+0x232>
    6010:	f7 fe       	sbrs	r15, 7
    6012:	08 c0       	rjmp	.+16     	; 0x6024 <vfprintf+0x1ec>
    6014:	f5 01       	movw	r30, r10
    6016:	20 81       	ld	r18, Z
    6018:	31 81       	ldd	r19, Z+1	; 0x01
    601a:	42 81       	ldd	r20, Z+2	; 0x02
    601c:	53 81       	ldd	r21, Z+3	; 0x03
    601e:	84 e0       	ldi	r24, 0x04	; 4
    6020:	90 e0       	ldi	r25, 0x00	; 0
    6022:	0a c0       	rjmp	.+20     	; 0x6038 <vfprintf+0x200>
    6024:	f5 01       	movw	r30, r10
    6026:	80 81       	ld	r24, Z
    6028:	91 81       	ldd	r25, Z+1	; 0x01
    602a:	9c 01       	movw	r18, r24
    602c:	44 27       	eor	r20, r20
    602e:	37 fd       	sbrc	r19, 7
    6030:	40 95       	com	r20
    6032:	54 2f       	mov	r21, r20
    6034:	82 e0       	ldi	r24, 0x02	; 2
    6036:	90 e0       	ldi	r25, 0x00	; 0
    6038:	a8 0e       	add	r10, r24
    603a:	b9 1e       	adc	r11, r25
    603c:	9f e6       	ldi	r25, 0x6F	; 111
    603e:	f9 22       	and	r15, r25
    6040:	57 ff       	sbrs	r21, 7
    6042:	09 c0       	rjmp	.+18     	; 0x6056 <vfprintf+0x21e>
    6044:	50 95       	com	r21
    6046:	40 95       	com	r20
    6048:	30 95       	com	r19
    604a:	21 95       	neg	r18
    604c:	3f 4f       	sbci	r19, 0xFF	; 255
    604e:	4f 4f       	sbci	r20, 0xFF	; 255
    6050:	5f 4f       	sbci	r21, 0xFF	; 255
    6052:	e0 e8       	ldi	r30, 0x80	; 128
    6054:	fe 2a       	or	r15, r30
    6056:	ca 01       	movw	r24, r20
    6058:	b9 01       	movw	r22, r18
    605a:	a1 01       	movw	r20, r2
    605c:	2a e0       	ldi	r18, 0x0A	; 10
    605e:	30 e0       	ldi	r19, 0x00	; 0
    6060:	0e 94 85 33 	call	0x670a	; 0x670a <__ultoa_invert>
    6064:	d8 2e       	mov	r13, r24
    6066:	d2 18       	sub	r13, r2
    6068:	40 c0       	rjmp	.+128    	; 0x60ea <vfprintf+0x2b2>
    606a:	95 37       	cpi	r25, 0x75	; 117
    606c:	29 f4       	brne	.+10     	; 0x6078 <vfprintf+0x240>
    606e:	1f 2d       	mov	r17, r15
    6070:	1f 7e       	andi	r17, 0xEF	; 239
    6072:	2a e0       	ldi	r18, 0x0A	; 10
    6074:	30 e0       	ldi	r19, 0x00	; 0
    6076:	1d c0       	rjmp	.+58     	; 0x60b2 <vfprintf+0x27a>
    6078:	1f 2d       	mov	r17, r15
    607a:	19 7f       	andi	r17, 0xF9	; 249
    607c:	9f 36       	cpi	r25, 0x6F	; 111
    607e:	61 f0       	breq	.+24     	; 0x6098 <vfprintf+0x260>
    6080:	90 37       	cpi	r25, 0x70	; 112
    6082:	20 f4       	brcc	.+8      	; 0x608c <vfprintf+0x254>
    6084:	98 35       	cpi	r25, 0x58	; 88
    6086:	09 f0       	breq	.+2      	; 0x608a <vfprintf+0x252>
    6088:	ac c0       	rjmp	.+344    	; 0x61e2 <vfprintf+0x3aa>
    608a:	0f c0       	rjmp	.+30     	; 0x60aa <vfprintf+0x272>
    608c:	90 37       	cpi	r25, 0x70	; 112
    608e:	39 f0       	breq	.+14     	; 0x609e <vfprintf+0x266>
    6090:	98 37       	cpi	r25, 0x78	; 120
    6092:	09 f0       	breq	.+2      	; 0x6096 <vfprintf+0x25e>
    6094:	a6 c0       	rjmp	.+332    	; 0x61e2 <vfprintf+0x3aa>
    6096:	04 c0       	rjmp	.+8      	; 0x60a0 <vfprintf+0x268>
    6098:	28 e0       	ldi	r18, 0x08	; 8
    609a:	30 e0       	ldi	r19, 0x00	; 0
    609c:	0a c0       	rjmp	.+20     	; 0x60b2 <vfprintf+0x27a>
    609e:	10 61       	ori	r17, 0x10	; 16
    60a0:	14 fd       	sbrc	r17, 4
    60a2:	14 60       	ori	r17, 0x04	; 4
    60a4:	20 e1       	ldi	r18, 0x10	; 16
    60a6:	30 e0       	ldi	r19, 0x00	; 0
    60a8:	04 c0       	rjmp	.+8      	; 0x60b2 <vfprintf+0x27a>
    60aa:	14 fd       	sbrc	r17, 4
    60ac:	16 60       	ori	r17, 0x06	; 6
    60ae:	20 e1       	ldi	r18, 0x10	; 16
    60b0:	32 e0       	ldi	r19, 0x02	; 2
    60b2:	17 ff       	sbrs	r17, 7
    60b4:	08 c0       	rjmp	.+16     	; 0x60c6 <vfprintf+0x28e>
    60b6:	f5 01       	movw	r30, r10
    60b8:	60 81       	ld	r22, Z
    60ba:	71 81       	ldd	r23, Z+1	; 0x01
    60bc:	82 81       	ldd	r24, Z+2	; 0x02
    60be:	93 81       	ldd	r25, Z+3	; 0x03
    60c0:	44 e0       	ldi	r20, 0x04	; 4
    60c2:	50 e0       	ldi	r21, 0x00	; 0
    60c4:	08 c0       	rjmp	.+16     	; 0x60d6 <vfprintf+0x29e>
    60c6:	f5 01       	movw	r30, r10
    60c8:	80 81       	ld	r24, Z
    60ca:	91 81       	ldd	r25, Z+1	; 0x01
    60cc:	bc 01       	movw	r22, r24
    60ce:	80 e0       	ldi	r24, 0x00	; 0
    60d0:	90 e0       	ldi	r25, 0x00	; 0
    60d2:	42 e0       	ldi	r20, 0x02	; 2
    60d4:	50 e0       	ldi	r21, 0x00	; 0
    60d6:	a4 0e       	add	r10, r20
    60d8:	b5 1e       	adc	r11, r21
    60da:	a1 01       	movw	r20, r2
    60dc:	0e 94 85 33 	call	0x670a	; 0x670a <__ultoa_invert>
    60e0:	d8 2e       	mov	r13, r24
    60e2:	d2 18       	sub	r13, r2
    60e4:	8f e7       	ldi	r24, 0x7F	; 127
    60e6:	f8 2e       	mov	r15, r24
    60e8:	f1 22       	and	r15, r17
    60ea:	f6 fe       	sbrs	r15, 6
    60ec:	0b c0       	rjmp	.+22     	; 0x6104 <vfprintf+0x2cc>
    60ee:	5e ef       	ldi	r21, 0xFE	; 254
    60f0:	f5 22       	and	r15, r21
    60f2:	d9 14       	cp	r13, r9
    60f4:	38 f4       	brcc	.+14     	; 0x6104 <vfprintf+0x2cc>
    60f6:	f4 fe       	sbrs	r15, 4
    60f8:	07 c0       	rjmp	.+14     	; 0x6108 <vfprintf+0x2d0>
    60fa:	f2 fc       	sbrc	r15, 2
    60fc:	05 c0       	rjmp	.+10     	; 0x6108 <vfprintf+0x2d0>
    60fe:	8f ee       	ldi	r24, 0xEF	; 239
    6100:	f8 22       	and	r15, r24
    6102:	02 c0       	rjmp	.+4      	; 0x6108 <vfprintf+0x2d0>
    6104:	1d 2d       	mov	r17, r13
    6106:	01 c0       	rjmp	.+2      	; 0x610a <vfprintf+0x2d2>
    6108:	19 2d       	mov	r17, r9
    610a:	f4 fe       	sbrs	r15, 4
    610c:	0d c0       	rjmp	.+26     	; 0x6128 <vfprintf+0x2f0>
    610e:	fe 01       	movw	r30, r28
    6110:	ed 0d       	add	r30, r13
    6112:	f1 1d       	adc	r31, r1
    6114:	80 81       	ld	r24, Z
    6116:	80 33       	cpi	r24, 0x30	; 48
    6118:	19 f4       	brne	.+6      	; 0x6120 <vfprintf+0x2e8>
    611a:	99 ee       	ldi	r25, 0xE9	; 233
    611c:	f9 22       	and	r15, r25
    611e:	08 c0       	rjmp	.+16     	; 0x6130 <vfprintf+0x2f8>
    6120:	1f 5f       	subi	r17, 0xFF	; 255
    6122:	f2 fe       	sbrs	r15, 2
    6124:	05 c0       	rjmp	.+10     	; 0x6130 <vfprintf+0x2f8>
    6126:	03 c0       	rjmp	.+6      	; 0x612e <vfprintf+0x2f6>
    6128:	8f 2d       	mov	r24, r15
    612a:	86 78       	andi	r24, 0x86	; 134
    612c:	09 f0       	breq	.+2      	; 0x6130 <vfprintf+0x2f8>
    612e:	1f 5f       	subi	r17, 0xFF	; 255
    6130:	0f 2d       	mov	r16, r15
    6132:	f3 fc       	sbrc	r15, 3
    6134:	14 c0       	rjmp	.+40     	; 0x615e <vfprintf+0x326>
    6136:	f0 fe       	sbrs	r15, 0
    6138:	0f c0       	rjmp	.+30     	; 0x6158 <vfprintf+0x320>
    613a:	1e 15       	cp	r17, r14
    613c:	10 f0       	brcs	.+4      	; 0x6142 <vfprintf+0x30a>
    613e:	9d 2c       	mov	r9, r13
    6140:	0b c0       	rjmp	.+22     	; 0x6158 <vfprintf+0x320>
    6142:	9d 2c       	mov	r9, r13
    6144:	9e 0c       	add	r9, r14
    6146:	91 1a       	sub	r9, r17
    6148:	1e 2d       	mov	r17, r14
    614a:	06 c0       	rjmp	.+12     	; 0x6158 <vfprintf+0x320>
    614c:	80 e2       	ldi	r24, 0x20	; 32
    614e:	90 e0       	ldi	r25, 0x00	; 0
    6150:	b3 01       	movw	r22, r6
    6152:	0e 94 59 33 	call	0x66b2	; 0x66b2 <fputc>
    6156:	1f 5f       	subi	r17, 0xFF	; 255
    6158:	1e 15       	cp	r17, r14
    615a:	c0 f3       	brcs	.-16     	; 0x614c <vfprintf+0x314>
    615c:	04 c0       	rjmp	.+8      	; 0x6166 <vfprintf+0x32e>
    615e:	1e 15       	cp	r17, r14
    6160:	10 f4       	brcc	.+4      	; 0x6166 <vfprintf+0x32e>
    6162:	e1 1a       	sub	r14, r17
    6164:	01 c0       	rjmp	.+2      	; 0x6168 <vfprintf+0x330>
    6166:	ee 24       	eor	r14, r14
    6168:	04 ff       	sbrs	r16, 4
    616a:	0f c0       	rjmp	.+30     	; 0x618a <vfprintf+0x352>
    616c:	80 e3       	ldi	r24, 0x30	; 48
    616e:	90 e0       	ldi	r25, 0x00	; 0
    6170:	b3 01       	movw	r22, r6
    6172:	0e 94 59 33 	call	0x66b2	; 0x66b2 <fputc>
    6176:	02 ff       	sbrs	r16, 2
    6178:	1d c0       	rjmp	.+58     	; 0x61b4 <vfprintf+0x37c>
    617a:	01 fd       	sbrc	r16, 1
    617c:	03 c0       	rjmp	.+6      	; 0x6184 <vfprintf+0x34c>
    617e:	88 e7       	ldi	r24, 0x78	; 120
    6180:	90 e0       	ldi	r25, 0x00	; 0
    6182:	0e c0       	rjmp	.+28     	; 0x61a0 <vfprintf+0x368>
    6184:	88 e5       	ldi	r24, 0x58	; 88
    6186:	90 e0       	ldi	r25, 0x00	; 0
    6188:	0b c0       	rjmp	.+22     	; 0x61a0 <vfprintf+0x368>
    618a:	80 2f       	mov	r24, r16
    618c:	86 78       	andi	r24, 0x86	; 134
    618e:	91 f0       	breq	.+36     	; 0x61b4 <vfprintf+0x37c>
    6190:	01 ff       	sbrs	r16, 1
    6192:	02 c0       	rjmp	.+4      	; 0x6198 <vfprintf+0x360>
    6194:	8b e2       	ldi	r24, 0x2B	; 43
    6196:	01 c0       	rjmp	.+2      	; 0x619a <vfprintf+0x362>
    6198:	80 e2       	ldi	r24, 0x20	; 32
    619a:	f7 fc       	sbrc	r15, 7
    619c:	8d e2       	ldi	r24, 0x2D	; 45
    619e:	90 e0       	ldi	r25, 0x00	; 0
    61a0:	b3 01       	movw	r22, r6
    61a2:	0e 94 59 33 	call	0x66b2	; 0x66b2 <fputc>
    61a6:	06 c0       	rjmp	.+12     	; 0x61b4 <vfprintf+0x37c>
    61a8:	80 e3       	ldi	r24, 0x30	; 48
    61aa:	90 e0       	ldi	r25, 0x00	; 0
    61ac:	b3 01       	movw	r22, r6
    61ae:	0e 94 59 33 	call	0x66b2	; 0x66b2 <fputc>
    61b2:	9a 94       	dec	r9
    61b4:	d9 14       	cp	r13, r9
    61b6:	c0 f3       	brcs	.-16     	; 0x61a8 <vfprintf+0x370>
    61b8:	da 94       	dec	r13
    61ba:	f1 01       	movw	r30, r2
    61bc:	ed 0d       	add	r30, r13
    61be:	f1 1d       	adc	r31, r1
    61c0:	80 81       	ld	r24, Z
    61c2:	90 e0       	ldi	r25, 0x00	; 0
    61c4:	b3 01       	movw	r22, r6
    61c6:	0e 94 59 33 	call	0x66b2	; 0x66b2 <fputc>
    61ca:	dd 20       	and	r13, r13
    61cc:	a9 f7       	brne	.-22     	; 0x61b8 <vfprintf+0x380>
    61ce:	06 c0       	rjmp	.+12     	; 0x61dc <vfprintf+0x3a4>
    61d0:	80 e2       	ldi	r24, 0x20	; 32
    61d2:	90 e0       	ldi	r25, 0x00	; 0
    61d4:	b3 01       	movw	r22, r6
    61d6:	0e 94 59 33 	call	0x66b2	; 0x66b2 <fputc>
    61da:	ea 94       	dec	r14
    61dc:	ee 20       	and	r14, r14
    61de:	c1 f7       	brne	.-16     	; 0x61d0 <vfprintf+0x398>
    61e0:	43 ce       	rjmp	.-890    	; 0x5e68 <vfprintf+0x30>
    61e2:	f3 01       	movw	r30, r6
    61e4:	66 81       	ldd	r22, Z+6	; 0x06
    61e6:	77 81       	ldd	r23, Z+7	; 0x07
    61e8:	cb 01       	movw	r24, r22
    61ea:	2b 96       	adiw	r28, 0x0b	; 11
    61ec:	e2 e1       	ldi	r30, 0x12	; 18
    61ee:	0c 94 59 2e 	jmp	0x5cb2	; 0x5cb2 <__epilogue_restores__>

000061f2 <dtoa_prf>:
    61f2:	a9 e0       	ldi	r26, 0x09	; 9
    61f4:	b0 e0       	ldi	r27, 0x00	; 0
    61f6:	ef ef       	ldi	r30, 0xFF	; 255
    61f8:	f0 e3       	ldi	r31, 0x30	; 48
    61fa:	0c 94 41 2e 	jmp	0x5c82	; 0x5c82 <__prologue_saves__+0x8>
    61fe:	6a 01       	movw	r12, r20
    6200:	12 2f       	mov	r17, r18
    6202:	a0 2e       	mov	r10, r16
    6204:	be 2c       	mov	r11, r14
    6206:	2b e3       	ldi	r18, 0x3B	; 59
    6208:	20 17       	cp	r18, r16
    620a:	18 f4       	brcc	.+6      	; 0x6212 <dtoa_prf+0x20>
    620c:	2c e3       	ldi	r18, 0x3C	; 60
    620e:	92 2e       	mov	r9, r18
    6210:	02 c0       	rjmp	.+4      	; 0x6216 <dtoa_prf+0x24>
    6212:	90 2e       	mov	r9, r16
    6214:	93 94       	inc	r9
    6216:	ae 01       	movw	r20, r28
    6218:	4f 5f       	subi	r20, 0xFF	; 255
    621a:	5f 4f       	sbci	r21, 0xFF	; 255
    621c:	27 e0       	ldi	r18, 0x07	; 7
    621e:	09 2d       	mov	r16, r9
    6220:	0e 94 5b 32 	call	0x64b6	; 0x64b6 <__ftoa_engine>
    6224:	bc 01       	movw	r22, r24
    6226:	89 81       	ldd	r24, Y+1	; 0x01
    6228:	e8 2e       	mov	r14, r24
    622a:	ff 24       	eor	r15, r15
    622c:	c7 01       	movw	r24, r14
    622e:	89 70       	andi	r24, 0x09	; 9
    6230:	90 70       	andi	r25, 0x00	; 0
    6232:	01 97       	sbiw	r24, 0x01	; 1
    6234:	11 f4       	brne	.+4      	; 0x623a <dtoa_prf+0x48>
    6236:	ad e2       	ldi	r26, 0x2D	; 45
    6238:	09 c0       	rjmp	.+18     	; 0x624c <dtoa_prf+0x5a>
    623a:	b1 fe       	sbrs	r11, 1
    623c:	02 c0       	rjmp	.+4      	; 0x6242 <dtoa_prf+0x50>
    623e:	ab e2       	ldi	r26, 0x2B	; 43
    6240:	05 c0       	rjmp	.+10     	; 0x624c <dtoa_prf+0x5a>
    6242:	b0 fc       	sbrc	r11, 0
    6244:	02 c0       	rjmp	.+4      	; 0x624a <dtoa_prf+0x58>
    6246:	a0 e0       	ldi	r26, 0x00	; 0
    6248:	01 c0       	rjmp	.+2      	; 0x624c <dtoa_prf+0x5a>
    624a:	a0 e2       	ldi	r26, 0x20	; 32
    624c:	e3 fe       	sbrs	r14, 3
    624e:	3b c0       	rjmp	.+118    	; 0x62c6 <dtoa_prf+0xd4>
    6250:	aa 23       	and	r26, r26
    6252:	11 f4       	brne	.+4      	; 0x6258 <dtoa_prf+0x66>
    6254:	23 e0       	ldi	r18, 0x03	; 3
    6256:	01 c0       	rjmp	.+2      	; 0x625a <dtoa_prf+0x68>
    6258:	24 e0       	ldi	r18, 0x04	; 4
    625a:	21 17       	cp	r18, r17
    625c:	10 f0       	brcs	.+4      	; 0x6262 <dtoa_prf+0x70>
    625e:	20 e0       	ldi	r18, 0x00	; 0
    6260:	02 c0       	rjmp	.+4      	; 0x6266 <dtoa_prf+0x74>
    6262:	12 1b       	sub	r17, r18
    6264:	21 2f       	mov	r18, r17
    6266:	eb 2c       	mov	r14, r11
    6268:	b4 fe       	sbrs	r11, 4
    626a:	02 c0       	rjmp	.+4      	; 0x6270 <dtoa_prf+0x7e>
    626c:	32 2f       	mov	r19, r18
    626e:	0a c0       	rjmp	.+20     	; 0x6284 <dtoa_prf+0x92>
    6270:	f6 01       	movw	r30, r12
    6272:	32 2f       	mov	r19, r18
    6274:	80 e2       	ldi	r24, 0x20	; 32
    6276:	02 c0       	rjmp	.+4      	; 0x627c <dtoa_prf+0x8a>
    6278:	81 93       	st	Z+, r24
    627a:	31 50       	subi	r19, 0x01	; 1
    627c:	33 23       	and	r19, r19
    627e:	e1 f7       	brne	.-8      	; 0x6278 <dtoa_prf+0x86>
    6280:	c2 0e       	add	r12, r18
    6282:	d1 1c       	adc	r13, r1
    6284:	aa 23       	and	r26, r26
    6286:	19 f0       	breq	.+6      	; 0x628e <dtoa_prf+0x9c>
    6288:	f6 01       	movw	r30, r12
    628a:	a1 93       	st	Z+, r26
    628c:	6f 01       	movw	r12, r30
    628e:	f6 01       	movw	r30, r12
    6290:	31 96       	adiw	r30, 0x01	; 1
    6292:	e2 fe       	sbrs	r14, 2
    6294:	05 c0       	rjmp	.+10     	; 0x62a0 <dtoa_prf+0xae>
    6296:	9e e4       	ldi	r25, 0x4E	; 78
    6298:	d6 01       	movw	r26, r12
    629a:	9c 93       	st	X, r25
    629c:	81 e4       	ldi	r24, 0x41	; 65
    629e:	04 c0       	rjmp	.+8      	; 0x62a8 <dtoa_prf+0xb6>
    62a0:	9e e6       	ldi	r25, 0x6E	; 110
    62a2:	d6 01       	movw	r26, r12
    62a4:	9c 93       	st	X, r25
    62a6:	81 e6       	ldi	r24, 0x61	; 97
    62a8:	11 96       	adiw	r26, 0x01	; 1
    62aa:	8c 93       	st	X, r24
    62ac:	91 83       	std	Z+1, r25	; 0x01
    62ae:	32 96       	adiw	r30, 0x02	; 2
    62b0:	df 01       	movw	r26, r30
    62b2:	83 2f       	mov	r24, r19
    62b4:	90 e2       	ldi	r25, 0x20	; 32
    62b6:	02 c0       	rjmp	.+4      	; 0x62bc <dtoa_prf+0xca>
    62b8:	9d 93       	st	X+, r25
    62ba:	81 50       	subi	r24, 0x01	; 1
    62bc:	88 23       	and	r24, r24
    62be:	e1 f7       	brne	.-8      	; 0x62b8 <dtoa_prf+0xc6>
    62c0:	e3 0f       	add	r30, r19
    62c2:	f1 1d       	adc	r31, r1
    62c4:	40 c0       	rjmp	.+128    	; 0x6346 <dtoa_prf+0x154>
    62c6:	e2 fe       	sbrs	r14, 2
    62c8:	42 c0       	rjmp	.+132    	; 0x634e <dtoa_prf+0x15c>
    62ca:	aa 23       	and	r26, r26
    62cc:	11 f4       	brne	.+4      	; 0x62d2 <dtoa_prf+0xe0>
    62ce:	23 e0       	ldi	r18, 0x03	; 3
    62d0:	01 c0       	rjmp	.+2      	; 0x62d4 <dtoa_prf+0xe2>
    62d2:	24 e0       	ldi	r18, 0x04	; 4
    62d4:	21 17       	cp	r18, r17
    62d6:	10 f0       	brcs	.+4      	; 0x62dc <dtoa_prf+0xea>
    62d8:	20 e0       	ldi	r18, 0x00	; 0
    62da:	02 c0       	rjmp	.+4      	; 0x62e0 <dtoa_prf+0xee>
    62dc:	12 1b       	sub	r17, r18
    62de:	21 2f       	mov	r18, r17
    62e0:	eb 2c       	mov	r14, r11
    62e2:	b4 fe       	sbrs	r11, 4
    62e4:	02 c0       	rjmp	.+4      	; 0x62ea <dtoa_prf+0xf8>
    62e6:	92 2f       	mov	r25, r18
    62e8:	0a c0       	rjmp	.+20     	; 0x62fe <dtoa_prf+0x10c>
    62ea:	f6 01       	movw	r30, r12
    62ec:	92 2f       	mov	r25, r18
    62ee:	80 e2       	ldi	r24, 0x20	; 32
    62f0:	02 c0       	rjmp	.+4      	; 0x62f6 <dtoa_prf+0x104>
    62f2:	81 93       	st	Z+, r24
    62f4:	91 50       	subi	r25, 0x01	; 1
    62f6:	99 23       	and	r25, r25
    62f8:	e1 f7       	brne	.-8      	; 0x62f2 <dtoa_prf+0x100>
    62fa:	c2 0e       	add	r12, r18
    62fc:	d1 1c       	adc	r13, r1
    62fe:	aa 23       	and	r26, r26
    6300:	19 f0       	breq	.+6      	; 0x6308 <dtoa_prf+0x116>
    6302:	f6 01       	movw	r30, r12
    6304:	a1 93       	st	Z+, r26
    6306:	6f 01       	movw	r12, r30
    6308:	f6 01       	movw	r30, r12
    630a:	31 96       	adiw	r30, 0x01	; 1
    630c:	e2 fe       	sbrs	r14, 2
    630e:	08 c0       	rjmp	.+16     	; 0x6320 <dtoa_prf+0x12e>
    6310:	89 e4       	ldi	r24, 0x49	; 73
    6312:	d6 01       	movw	r26, r12
    6314:	8c 93       	st	X, r24
    6316:	8e e4       	ldi	r24, 0x4E	; 78
    6318:	11 96       	adiw	r26, 0x01	; 1
    631a:	8c 93       	st	X, r24
    631c:	86 e4       	ldi	r24, 0x46	; 70
    631e:	07 c0       	rjmp	.+14     	; 0x632e <dtoa_prf+0x13c>
    6320:	89 e6       	ldi	r24, 0x69	; 105
    6322:	d6 01       	movw	r26, r12
    6324:	8c 93       	st	X, r24
    6326:	8e e6       	ldi	r24, 0x6E	; 110
    6328:	11 96       	adiw	r26, 0x01	; 1
    632a:	8c 93       	st	X, r24
    632c:	86 e6       	ldi	r24, 0x66	; 102
    632e:	81 83       	std	Z+1, r24	; 0x01
    6330:	32 96       	adiw	r30, 0x02	; 2
    6332:	df 01       	movw	r26, r30
    6334:	89 2f       	mov	r24, r25
    6336:	20 e2       	ldi	r18, 0x20	; 32
    6338:	02 c0       	rjmp	.+4      	; 0x633e <dtoa_prf+0x14c>
    633a:	2d 93       	st	X+, r18
    633c:	81 50       	subi	r24, 0x01	; 1
    633e:	88 23       	and	r24, r24
    6340:	e1 f7       	brne	.-8      	; 0x633a <dtoa_prf+0x148>
    6342:	e9 0f       	add	r30, r25
    6344:	f1 1d       	adc	r31, r1
    6346:	10 82       	st	Z, r1
    6348:	2e ef       	ldi	r18, 0xFE	; 254
    634a:	3f ef       	ldi	r19, 0xFF	; 255
    634c:	af c0       	rjmp	.+350    	; 0x64ac <dtoa_prf+0x2ba>
    634e:	16 16       	cp	r1, r22
    6350:	17 06       	cpc	r1, r23
    6352:	1c f0       	brlt	.+6      	; 0x635a <dtoa_prf+0x168>
    6354:	41 e0       	ldi	r20, 0x01	; 1
    6356:	50 e0       	ldi	r21, 0x00	; 0
    6358:	03 c0       	rjmp	.+6      	; 0x6360 <dtoa_prf+0x16e>
    635a:	ab 01       	movw	r20, r22
    635c:	4f 5f       	subi	r20, 0xFF	; 255
    635e:	5f 4f       	sbci	r21, 0xFF	; 255
    6360:	aa 20       	and	r10, r10
    6362:	19 f4       	brne	.+6      	; 0x636a <dtoa_prf+0x178>
    6364:	80 e0       	ldi	r24, 0x00	; 0
    6366:	90 e0       	ldi	r25, 0x00	; 0
    6368:	03 c0       	rjmp	.+6      	; 0x6370 <dtoa_prf+0x17e>
    636a:	8a 2d       	mov	r24, r10
    636c:	90 e0       	ldi	r25, 0x00	; 0
    636e:	01 96       	adiw	r24, 0x01	; 1
    6370:	20 e0       	ldi	r18, 0x00	; 0
    6372:	30 e0       	ldi	r19, 0x00	; 0
    6374:	aa 23       	and	r26, r26
    6376:	11 f0       	breq	.+4      	; 0x637c <dtoa_prf+0x18a>
    6378:	21 e0       	ldi	r18, 0x01	; 1
    637a:	30 e0       	ldi	r19, 0x00	; 0
    637c:	24 0f       	add	r18, r20
    637e:	35 1f       	adc	r19, r21
    6380:	28 0f       	add	r18, r24
    6382:	39 1f       	adc	r19, r25
    6384:	81 2f       	mov	r24, r17
    6386:	90 e0       	ldi	r25, 0x00	; 0
    6388:	28 17       	cp	r18, r24
    638a:	39 07       	cpc	r19, r25
    638c:	14 f0       	brlt	.+4      	; 0x6392 <dtoa_prf+0x1a0>
    638e:	20 e0       	ldi	r18, 0x00	; 0
    6390:	02 c0       	rjmp	.+4      	; 0x6396 <dtoa_prf+0x1a4>
    6392:	12 1b       	sub	r17, r18
    6394:	21 2f       	mov	r18, r17
    6396:	4b 2d       	mov	r20, r11
    6398:	50 e0       	ldi	r21, 0x00	; 0
    639a:	ca 01       	movw	r24, r20
    639c:	80 71       	andi	r24, 0x10	; 16
    639e:	90 70       	andi	r25, 0x00	; 0
    63a0:	b4 fc       	sbrc	r11, 4
    63a2:	0d c0       	rjmp	.+26     	; 0x63be <dtoa_prf+0x1cc>
    63a4:	b3 fc       	sbrc	r11, 3
    63a6:	0b c0       	rjmp	.+22     	; 0x63be <dtoa_prf+0x1cc>
    63a8:	f6 01       	movw	r30, r12
    63aa:	32 2f       	mov	r19, r18
    63ac:	40 e2       	ldi	r20, 0x20	; 32
    63ae:	02 c0       	rjmp	.+4      	; 0x63b4 <dtoa_prf+0x1c2>
    63b0:	41 93       	st	Z+, r20
    63b2:	31 50       	subi	r19, 0x01	; 1
    63b4:	33 23       	and	r19, r19
    63b6:	e1 f7       	brne	.-8      	; 0x63b0 <dtoa_prf+0x1be>
    63b8:	c2 0e       	add	r12, r18
    63ba:	d1 1c       	adc	r13, r1
    63bc:	01 c0       	rjmp	.+2      	; 0x63c0 <dtoa_prf+0x1ce>
    63be:	32 2f       	mov	r19, r18
    63c0:	aa 23       	and	r26, r26
    63c2:	19 f0       	breq	.+6      	; 0x63ca <dtoa_prf+0x1d8>
    63c4:	f6 01       	movw	r30, r12
    63c6:	a1 93       	st	Z+, r26
    63c8:	6f 01       	movw	r12, r30
    63ca:	89 2b       	or	r24, r25
    63cc:	11 f0       	breq	.+4      	; 0x63d2 <dtoa_prf+0x1e0>
    63ce:	13 2f       	mov	r17, r19
    63d0:	0a c0       	rjmp	.+20     	; 0x63e6 <dtoa_prf+0x1f4>
    63d2:	f6 01       	movw	r30, r12
    63d4:	13 2f       	mov	r17, r19
    63d6:	80 e3       	ldi	r24, 0x30	; 48
    63d8:	02 c0       	rjmp	.+4      	; 0x63de <dtoa_prf+0x1ec>
    63da:	81 93       	st	Z+, r24
    63dc:	11 50       	subi	r17, 0x01	; 1
    63de:	11 23       	and	r17, r17
    63e0:	e1 f7       	brne	.-8      	; 0x63da <dtoa_prf+0x1e8>
    63e2:	c3 0e       	add	r12, r19
    63e4:	d1 1c       	adc	r13, r1
    63e6:	09 2d       	mov	r16, r9
    63e8:	06 0f       	add	r16, r22
    63ea:	ba 80       	ldd	r11, Y+2	; 0x02
    63ec:	90 e1       	ldi	r25, 0x10	; 16
    63ee:	89 2e       	mov	r8, r25
    63f0:	91 2c       	mov	r9, r1
    63f2:	8e 20       	and	r8, r14
    63f4:	9f 20       	and	r9, r15
    63f6:	e4 fe       	sbrs	r14, 4
    63f8:	04 c0       	rjmp	.+8      	; 0x6402 <dtoa_prf+0x210>
    63fa:	f1 e3       	ldi	r31, 0x31	; 49
    63fc:	bf 16       	cp	r11, r31
    63fe:	09 f4       	brne	.+2      	; 0x6402 <dtoa_prf+0x210>
    6400:	01 50       	subi	r16, 0x01	; 1
    6402:	10 16       	cp	r1, r16
    6404:	14 f0       	brlt	.+4      	; 0x640a <dtoa_prf+0x218>
    6406:	01 e0       	ldi	r16, 0x01	; 1
    6408:	03 c0       	rjmp	.+6      	; 0x6410 <dtoa_prf+0x21e>
    640a:	09 30       	cpi	r16, 0x09	; 9
    640c:	08 f0       	brcs	.+2      	; 0x6410 <dtoa_prf+0x21e>
    640e:	08 e0       	ldi	r16, 0x08	; 8
    6410:	9b 01       	movw	r18, r22
    6412:	77 ff       	sbrs	r23, 7
    6414:	02 c0       	rjmp	.+4      	; 0x641a <dtoa_prf+0x228>
    6416:	20 e0       	ldi	r18, 0x00	; 0
    6418:	30 e0       	ldi	r19, 0x00	; 0
    641a:	cb 01       	movw	r24, r22
    641c:	01 96       	adiw	r24, 0x01	; 1
    641e:	82 1b       	sub	r24, r18
    6420:	93 0b       	sbc	r25, r19
    6422:	fe 01       	movw	r30, r28
    6424:	31 96       	adiw	r30, 0x01	; 1
    6426:	e8 0f       	add	r30, r24
    6428:	f9 1f       	adc	r31, r25
    642a:	8e e2       	ldi	r24, 0x2E	; 46
    642c:	f8 2e       	mov	r15, r24
    642e:	3b 01       	movw	r6, r22
    6430:	60 1a       	sub	r6, r16
    6432:	71 08       	sbc	r7, r1
    6434:	8a 2d       	mov	r24, r10
    6436:	90 e0       	ldi	r25, 0x00	; 0
    6438:	44 27       	eor	r20, r20
    643a:	55 27       	eor	r21, r21
    643c:	48 1b       	sub	r20, r24
    643e:	59 0b       	sbc	r21, r25
    6440:	8f ef       	ldi	r24, 0xFF	; 255
    6442:	2f 3f       	cpi	r18, 0xFF	; 255
    6444:	38 07       	cpc	r19, r24
    6446:	19 f4       	brne	.+6      	; 0x644e <dtoa_prf+0x25c>
    6448:	d6 01       	movw	r26, r12
    644a:	fd 92       	st	X+, r15
    644c:	6d 01       	movw	r12, r26
    644e:	62 17       	cp	r22, r18
    6450:	73 07       	cpc	r23, r19
    6452:	2c f0       	brlt	.+10     	; 0x645e <dtoa_prf+0x26c>
    6454:	62 16       	cp	r6, r18
    6456:	73 06       	cpc	r7, r19
    6458:	14 f4       	brge	.+4      	; 0x645e <dtoa_prf+0x26c>
    645a:	80 81       	ld	r24, Z
    645c:	01 c0       	rjmp	.+2      	; 0x6460 <dtoa_prf+0x26e>
    645e:	80 e3       	ldi	r24, 0x30	; 48
    6460:	21 50       	subi	r18, 0x01	; 1
    6462:	30 40       	sbci	r19, 0x00	; 0
    6464:	31 96       	adiw	r30, 0x01	; 1
    6466:	24 17       	cp	r18, r20
    6468:	35 07       	cpc	r19, r21
    646a:	24 f0       	brlt	.+8      	; 0x6474 <dtoa_prf+0x282>
    646c:	d6 01       	movw	r26, r12
    646e:	8d 93       	st	X+, r24
    6470:	6d 01       	movw	r12, r26
    6472:	e6 cf       	rjmp	.-52     	; 0x6440 <dtoa_prf+0x24e>
    6474:	26 17       	cp	r18, r22
    6476:	37 07       	cpc	r19, r23
    6478:	49 f4       	brne	.+18     	; 0x648c <dtoa_prf+0x29a>
    647a:	b5 e3       	ldi	r27, 0x35	; 53
    647c:	bb 15       	cp	r27, r11
    647e:	28 f0       	brcs	.+10     	; 0x648a <dtoa_prf+0x298>
    6480:	bb 16       	cp	r11, r27
    6482:	21 f4       	brne	.+8      	; 0x648c <dtoa_prf+0x29a>
    6484:	81 14       	cp	r8, r1
    6486:	91 04       	cpc	r9, r1
    6488:	09 f4       	brne	.+2      	; 0x648c <dtoa_prf+0x29a>
    648a:	81 e3       	ldi	r24, 0x31	; 49
    648c:	f6 01       	movw	r30, r12
    648e:	81 93       	st	Z+, r24
    6490:	d6 01       	movw	r26, r12
    6492:	81 2f       	mov	r24, r17
    6494:	90 e2       	ldi	r25, 0x20	; 32
    6496:	02 c0       	rjmp	.+4      	; 0x649c <dtoa_prf+0x2aa>
    6498:	9c 93       	st	X, r25
    649a:	81 50       	subi	r24, 0x01	; 1
    649c:	11 96       	adiw	r26, 0x01	; 1
    649e:	88 23       	and	r24, r24
    64a0:	d9 f7       	brne	.-10     	; 0x6498 <dtoa_prf+0x2a6>
    64a2:	e1 0f       	add	r30, r17
    64a4:	f1 1d       	adc	r31, r1
    64a6:	10 82       	st	Z, r1
    64a8:	20 e0       	ldi	r18, 0x00	; 0
    64aa:	30 e0       	ldi	r19, 0x00	; 0
    64ac:	c9 01       	movw	r24, r18
    64ae:	29 96       	adiw	r28, 0x09	; 9
    64b0:	ee e0       	ldi	r30, 0x0E	; 14
    64b2:	0c 94 5d 2e 	jmp	0x5cba	; 0x5cba <__epilogue_restores__+0x8>

000064b6 <__ftoa_engine>:
    64b6:	28 30       	cpi	r18, 0x08	; 8
    64b8:	08 f0       	brcs	.+2      	; 0x64bc <__ftoa_engine+0x6>
    64ba:	27 e0       	ldi	r18, 0x07	; 7
    64bc:	33 27       	eor	r19, r19
    64be:	da 01       	movw	r26, r20
    64c0:	99 0f       	add	r25, r25
    64c2:	31 1d       	adc	r19, r1
    64c4:	87 fd       	sbrc	r24, 7
    64c6:	91 60       	ori	r25, 0x01	; 1
    64c8:	00 96       	adiw	r24, 0x00	; 0
    64ca:	61 05       	cpc	r22, r1
    64cc:	71 05       	cpc	r23, r1
    64ce:	39 f4       	brne	.+14     	; 0x64de <__ftoa_engine+0x28>
    64d0:	32 60       	ori	r19, 0x02	; 2
    64d2:	2e 5f       	subi	r18, 0xFE	; 254
    64d4:	3d 93       	st	X+, r19
    64d6:	30 e3       	ldi	r19, 0x30	; 48
    64d8:	2a 95       	dec	r18
    64da:	e1 f7       	brne	.-8      	; 0x64d4 <__ftoa_engine+0x1e>
    64dc:	08 95       	ret
    64de:	9f 3f       	cpi	r25, 0xFF	; 255
    64e0:	30 f0       	brcs	.+12     	; 0x64ee <__ftoa_engine+0x38>
    64e2:	80 38       	cpi	r24, 0x80	; 128
    64e4:	71 05       	cpc	r23, r1
    64e6:	61 05       	cpc	r22, r1
    64e8:	09 f0       	breq	.+2      	; 0x64ec <__ftoa_engine+0x36>
    64ea:	3c 5f       	subi	r19, 0xFC	; 252
    64ec:	3c 5f       	subi	r19, 0xFC	; 252
    64ee:	3d 93       	st	X+, r19
    64f0:	91 30       	cpi	r25, 0x01	; 1
    64f2:	08 f0       	brcs	.+2      	; 0x64f6 <__ftoa_engine+0x40>
    64f4:	80 68       	ori	r24, 0x80	; 128
    64f6:	91 1d       	adc	r25, r1
    64f8:	df 93       	push	r29
    64fa:	cf 93       	push	r28
    64fc:	1f 93       	push	r17
    64fe:	0f 93       	push	r16
    6500:	ff 92       	push	r15
    6502:	ef 92       	push	r14
    6504:	19 2f       	mov	r17, r25
    6506:	98 7f       	andi	r25, 0xF8	; 248
    6508:	96 95       	lsr	r25
    650a:	e9 2f       	mov	r30, r25
    650c:	96 95       	lsr	r25
    650e:	96 95       	lsr	r25
    6510:	e9 0f       	add	r30, r25
    6512:	ff 27       	eor	r31, r31
    6514:	e2 55       	subi	r30, 0x52	; 82
    6516:	ff 4f       	sbci	r31, 0xFF	; 255
    6518:	99 27       	eor	r25, r25
    651a:	33 27       	eor	r19, r19
    651c:	ee 24       	eor	r14, r14
    651e:	ff 24       	eor	r15, r15
    6520:	a7 01       	movw	r20, r14
    6522:	e7 01       	movw	r28, r14
    6524:	05 90       	lpm	r0, Z+
    6526:	08 94       	sec
    6528:	07 94       	ror	r0
    652a:	28 f4       	brcc	.+10     	; 0x6536 <__ftoa_engine+0x80>
    652c:	36 0f       	add	r19, r22
    652e:	e7 1e       	adc	r14, r23
    6530:	f8 1e       	adc	r15, r24
    6532:	49 1f       	adc	r20, r25
    6534:	51 1d       	adc	r21, r1
    6536:	66 0f       	add	r22, r22
    6538:	77 1f       	adc	r23, r23
    653a:	88 1f       	adc	r24, r24
    653c:	99 1f       	adc	r25, r25
    653e:	06 94       	lsr	r0
    6540:	a1 f7       	brne	.-24     	; 0x652a <__ftoa_engine+0x74>
    6542:	05 90       	lpm	r0, Z+
    6544:	07 94       	ror	r0
    6546:	28 f4       	brcc	.+10     	; 0x6552 <__ftoa_engine+0x9c>
    6548:	e7 0e       	add	r14, r23
    654a:	f8 1e       	adc	r15, r24
    654c:	49 1f       	adc	r20, r25
    654e:	56 1f       	adc	r21, r22
    6550:	c1 1d       	adc	r28, r1
    6552:	77 0f       	add	r23, r23
    6554:	88 1f       	adc	r24, r24
    6556:	99 1f       	adc	r25, r25
    6558:	66 1f       	adc	r22, r22
    655a:	06 94       	lsr	r0
    655c:	a1 f7       	brne	.-24     	; 0x6546 <__ftoa_engine+0x90>
    655e:	05 90       	lpm	r0, Z+
    6560:	07 94       	ror	r0
    6562:	28 f4       	brcc	.+10     	; 0x656e <__ftoa_engine+0xb8>
    6564:	f8 0e       	add	r15, r24
    6566:	49 1f       	adc	r20, r25
    6568:	56 1f       	adc	r21, r22
    656a:	c7 1f       	adc	r28, r23
    656c:	d1 1d       	adc	r29, r1
    656e:	88 0f       	add	r24, r24
    6570:	99 1f       	adc	r25, r25
    6572:	66 1f       	adc	r22, r22
    6574:	77 1f       	adc	r23, r23
    6576:	06 94       	lsr	r0
    6578:	a1 f7       	brne	.-24     	; 0x6562 <__ftoa_engine+0xac>
    657a:	05 90       	lpm	r0, Z+
    657c:	07 94       	ror	r0
    657e:	20 f4       	brcc	.+8      	; 0x6588 <__ftoa_engine+0xd2>
    6580:	49 0f       	add	r20, r25
    6582:	56 1f       	adc	r21, r22
    6584:	c7 1f       	adc	r28, r23
    6586:	d8 1f       	adc	r29, r24
    6588:	99 0f       	add	r25, r25
    658a:	66 1f       	adc	r22, r22
    658c:	77 1f       	adc	r23, r23
    658e:	88 1f       	adc	r24, r24
    6590:	06 94       	lsr	r0
    6592:	a9 f7       	brne	.-22     	; 0x657e <__ftoa_engine+0xc8>
    6594:	84 91       	lpm	r24, Z+
    6596:	10 95       	com	r17
    6598:	17 70       	andi	r17, 0x07	; 7
    659a:	41 f0       	breq	.+16     	; 0x65ac <__ftoa_engine+0xf6>
    659c:	d6 95       	lsr	r29
    659e:	c7 95       	ror	r28
    65a0:	57 95       	ror	r21
    65a2:	47 95       	ror	r20
    65a4:	f7 94       	ror	r15
    65a6:	e7 94       	ror	r14
    65a8:	1a 95       	dec	r17
    65aa:	c1 f7       	brne	.-16     	; 0x659c <__ftoa_engine+0xe6>
    65ac:	e4 e5       	ldi	r30, 0x54	; 84
    65ae:	f0 e0       	ldi	r31, 0x00	; 0
    65b0:	68 94       	set
    65b2:	15 90       	lpm	r1, Z+
    65b4:	15 91       	lpm	r17, Z+
    65b6:	35 91       	lpm	r19, Z+
    65b8:	65 91       	lpm	r22, Z+
    65ba:	95 91       	lpm	r25, Z+
    65bc:	05 90       	lpm	r0, Z+
    65be:	7f e2       	ldi	r23, 0x2F	; 47
    65c0:	73 95       	inc	r23
    65c2:	e1 18       	sub	r14, r1
    65c4:	f1 0a       	sbc	r15, r17
    65c6:	43 0b       	sbc	r20, r19
    65c8:	56 0b       	sbc	r21, r22
    65ca:	c9 0b       	sbc	r28, r25
    65cc:	d0 09       	sbc	r29, r0
    65ce:	c0 f7       	brcc	.-16     	; 0x65c0 <__ftoa_engine+0x10a>
    65d0:	e1 0c       	add	r14, r1
    65d2:	f1 1e       	adc	r15, r17
    65d4:	43 1f       	adc	r20, r19
    65d6:	56 1f       	adc	r21, r22
    65d8:	c9 1f       	adc	r28, r25
    65da:	d0 1d       	adc	r29, r0
    65dc:	7e f4       	brtc	.+30     	; 0x65fc <__ftoa_engine+0x146>
    65de:	70 33       	cpi	r23, 0x30	; 48
    65e0:	11 f4       	brne	.+4      	; 0x65e6 <__ftoa_engine+0x130>
    65e2:	8a 95       	dec	r24
    65e4:	e6 cf       	rjmp	.-52     	; 0x65b2 <__ftoa_engine+0xfc>
    65e6:	e8 94       	clt
    65e8:	01 50       	subi	r16, 0x01	; 1
    65ea:	30 f0       	brcs	.+12     	; 0x65f8 <__ftoa_engine+0x142>
    65ec:	08 0f       	add	r16, r24
    65ee:	0a f4       	brpl	.+2      	; 0x65f2 <__ftoa_engine+0x13c>
    65f0:	00 27       	eor	r16, r16
    65f2:	02 17       	cp	r16, r18
    65f4:	08 f4       	brcc	.+2      	; 0x65f8 <__ftoa_engine+0x142>
    65f6:	20 2f       	mov	r18, r16
    65f8:	23 95       	inc	r18
    65fa:	02 2f       	mov	r16, r18
    65fc:	7a 33       	cpi	r23, 0x3A	; 58
    65fe:	28 f0       	brcs	.+10     	; 0x660a <__ftoa_engine+0x154>
    6600:	79 e3       	ldi	r23, 0x39	; 57
    6602:	7d 93       	st	X+, r23
    6604:	2a 95       	dec	r18
    6606:	e9 f7       	brne	.-6      	; 0x6602 <__ftoa_engine+0x14c>
    6608:	10 c0       	rjmp	.+32     	; 0x662a <__ftoa_engine+0x174>
    660a:	7d 93       	st	X+, r23
    660c:	2a 95       	dec	r18
    660e:	89 f6       	brne	.-94     	; 0x65b2 <__ftoa_engine+0xfc>
    6610:	06 94       	lsr	r0
    6612:	97 95       	ror	r25
    6614:	67 95       	ror	r22
    6616:	37 95       	ror	r19
    6618:	17 95       	ror	r17
    661a:	17 94       	ror	r1
    661c:	e1 18       	sub	r14, r1
    661e:	f1 0a       	sbc	r15, r17
    6620:	43 0b       	sbc	r20, r19
    6622:	56 0b       	sbc	r21, r22
    6624:	c9 0b       	sbc	r28, r25
    6626:	d0 09       	sbc	r29, r0
    6628:	98 f0       	brcs	.+38     	; 0x6650 <__ftoa_engine+0x19a>
    662a:	23 95       	inc	r18
    662c:	7e 91       	ld	r23, -X
    662e:	73 95       	inc	r23
    6630:	7a 33       	cpi	r23, 0x3A	; 58
    6632:	08 f0       	brcs	.+2      	; 0x6636 <__ftoa_engine+0x180>
    6634:	70 e3       	ldi	r23, 0x30	; 48
    6636:	7c 93       	st	X, r23
    6638:	20 13       	cpse	r18, r16
    663a:	b8 f7       	brcc	.-18     	; 0x662a <__ftoa_engine+0x174>
    663c:	7e 91       	ld	r23, -X
    663e:	70 61       	ori	r23, 0x10	; 16
    6640:	7d 93       	st	X+, r23
    6642:	30 f0       	brcs	.+12     	; 0x6650 <__ftoa_engine+0x19a>
    6644:	83 95       	inc	r24
    6646:	71 e3       	ldi	r23, 0x31	; 49
    6648:	7d 93       	st	X+, r23
    664a:	70 e3       	ldi	r23, 0x30	; 48
    664c:	2a 95       	dec	r18
    664e:	e1 f7       	brne	.-8      	; 0x6648 <__ftoa_engine+0x192>
    6650:	11 24       	eor	r1, r1
    6652:	ef 90       	pop	r14
    6654:	ff 90       	pop	r15
    6656:	0f 91       	pop	r16
    6658:	1f 91       	pop	r17
    665a:	cf 91       	pop	r28
    665c:	df 91       	pop	r29
    665e:	99 27       	eor	r25, r25
    6660:	87 fd       	sbrc	r24, 7
    6662:	90 95       	com	r25
    6664:	08 95       	ret

00006666 <strnlen_P>:
    6666:	fc 01       	movw	r30, r24
    6668:	05 90       	lpm	r0, Z+
    666a:	61 50       	subi	r22, 0x01	; 1
    666c:	70 40       	sbci	r23, 0x00	; 0
    666e:	01 10       	cpse	r0, r1
    6670:	d8 f7       	brcc	.-10     	; 0x6668 <strnlen_P+0x2>
    6672:	80 95       	com	r24
    6674:	90 95       	com	r25
    6676:	8e 0f       	add	r24, r30
    6678:	9f 1f       	adc	r25, r31
    667a:	08 95       	ret

0000667c <strnlen>:
    667c:	fc 01       	movw	r30, r24
    667e:	61 50       	subi	r22, 0x01	; 1
    6680:	70 40       	sbci	r23, 0x00	; 0
    6682:	01 90       	ld	r0, Z+
    6684:	01 10       	cpse	r0, r1
    6686:	d8 f7       	brcc	.-10     	; 0x667e <strnlen+0x2>
    6688:	80 95       	com	r24
    668a:	90 95       	com	r25
    668c:	8e 0f       	add	r24, r30
    668e:	9f 1f       	adc	r25, r31
    6690:	08 95       	ret

00006692 <strrev>:
    6692:	dc 01       	movw	r26, r24
    6694:	fc 01       	movw	r30, r24
    6696:	67 2f       	mov	r22, r23
    6698:	71 91       	ld	r23, Z+
    669a:	77 23       	and	r23, r23
    669c:	e1 f7       	brne	.-8      	; 0x6696 <strrev+0x4>
    669e:	32 97       	sbiw	r30, 0x02	; 2
    66a0:	04 c0       	rjmp	.+8      	; 0x66aa <strrev+0x18>
    66a2:	7c 91       	ld	r23, X
    66a4:	6d 93       	st	X+, r22
    66a6:	70 83       	st	Z, r23
    66a8:	62 91       	ld	r22, -Z
    66aa:	ae 17       	cp	r26, r30
    66ac:	bf 07       	cpc	r27, r31
    66ae:	c8 f3       	brcs	.-14     	; 0x66a2 <strrev+0x10>
    66b0:	08 95       	ret

000066b2 <fputc>:
    66b2:	0f 93       	push	r16
    66b4:	1f 93       	push	r17
    66b6:	cf 93       	push	r28
    66b8:	df 93       	push	r29
    66ba:	8c 01       	movw	r16, r24
    66bc:	eb 01       	movw	r28, r22
    66be:	8b 81       	ldd	r24, Y+3	; 0x03
    66c0:	81 ff       	sbrs	r24, 1
    66c2:	1b c0       	rjmp	.+54     	; 0x66fa <fputc+0x48>
    66c4:	82 ff       	sbrs	r24, 2
    66c6:	0d c0       	rjmp	.+26     	; 0x66e2 <fputc+0x30>
    66c8:	2e 81       	ldd	r18, Y+6	; 0x06
    66ca:	3f 81       	ldd	r19, Y+7	; 0x07
    66cc:	8c 81       	ldd	r24, Y+4	; 0x04
    66ce:	9d 81       	ldd	r25, Y+5	; 0x05
    66d0:	28 17       	cp	r18, r24
    66d2:	39 07       	cpc	r19, r25
    66d4:	64 f4       	brge	.+24     	; 0x66ee <fputc+0x3c>
    66d6:	e8 81       	ld	r30, Y
    66d8:	f9 81       	ldd	r31, Y+1	; 0x01
    66da:	01 93       	st	Z+, r16
    66dc:	f9 83       	std	Y+1, r31	; 0x01
    66de:	e8 83       	st	Y, r30
    66e0:	06 c0       	rjmp	.+12     	; 0x66ee <fputc+0x3c>
    66e2:	e8 85       	ldd	r30, Y+8	; 0x08
    66e4:	f9 85       	ldd	r31, Y+9	; 0x09
    66e6:	80 2f       	mov	r24, r16
    66e8:	09 95       	icall
    66ea:	89 2b       	or	r24, r25
    66ec:	31 f4       	brne	.+12     	; 0x66fa <fputc+0x48>
    66ee:	8e 81       	ldd	r24, Y+6	; 0x06
    66f0:	9f 81       	ldd	r25, Y+7	; 0x07
    66f2:	01 96       	adiw	r24, 0x01	; 1
    66f4:	9f 83       	std	Y+7, r25	; 0x07
    66f6:	8e 83       	std	Y+6, r24	; 0x06
    66f8:	02 c0       	rjmp	.+4      	; 0x66fe <fputc+0x4c>
    66fa:	0f ef       	ldi	r16, 0xFF	; 255
    66fc:	1f ef       	ldi	r17, 0xFF	; 255
    66fe:	c8 01       	movw	r24, r16
    6700:	df 91       	pop	r29
    6702:	cf 91       	pop	r28
    6704:	1f 91       	pop	r17
    6706:	0f 91       	pop	r16
    6708:	08 95       	ret

0000670a <__ultoa_invert>:
    670a:	fa 01       	movw	r30, r20
    670c:	aa 27       	eor	r26, r26
    670e:	28 30       	cpi	r18, 0x08	; 8
    6710:	51 f1       	breq	.+84     	; 0x6766 <__ultoa_invert+0x5c>
    6712:	20 31       	cpi	r18, 0x10	; 16
    6714:	81 f1       	breq	.+96     	; 0x6776 <__ultoa_invert+0x6c>
    6716:	e8 94       	clt
    6718:	6f 93       	push	r22
    671a:	6e 7f       	andi	r22, 0xFE	; 254
    671c:	6e 5f       	subi	r22, 0xFE	; 254
    671e:	7f 4f       	sbci	r23, 0xFF	; 255
    6720:	8f 4f       	sbci	r24, 0xFF	; 255
    6722:	9f 4f       	sbci	r25, 0xFF	; 255
    6724:	af 4f       	sbci	r26, 0xFF	; 255
    6726:	b1 e0       	ldi	r27, 0x01	; 1
    6728:	3e d0       	rcall	.+124    	; 0x67a6 <__ultoa_invert+0x9c>
    672a:	b4 e0       	ldi	r27, 0x04	; 4
    672c:	3c d0       	rcall	.+120    	; 0x67a6 <__ultoa_invert+0x9c>
    672e:	67 0f       	add	r22, r23
    6730:	78 1f       	adc	r23, r24
    6732:	89 1f       	adc	r24, r25
    6734:	9a 1f       	adc	r25, r26
    6736:	a1 1d       	adc	r26, r1
    6738:	68 0f       	add	r22, r24
    673a:	79 1f       	adc	r23, r25
    673c:	8a 1f       	adc	r24, r26
    673e:	91 1d       	adc	r25, r1
    6740:	a1 1d       	adc	r26, r1
    6742:	6a 0f       	add	r22, r26
    6744:	71 1d       	adc	r23, r1
    6746:	81 1d       	adc	r24, r1
    6748:	91 1d       	adc	r25, r1
    674a:	a1 1d       	adc	r26, r1
    674c:	20 d0       	rcall	.+64     	; 0x678e <__ultoa_invert+0x84>
    674e:	09 f4       	brne	.+2      	; 0x6752 <__ultoa_invert+0x48>
    6750:	68 94       	set
    6752:	3f 91       	pop	r19
    6754:	2a e0       	ldi	r18, 0x0A	; 10
    6756:	26 9f       	mul	r18, r22
    6758:	11 24       	eor	r1, r1
    675a:	30 19       	sub	r19, r0
    675c:	30 5d       	subi	r19, 0xD0	; 208
    675e:	31 93       	st	Z+, r19
    6760:	de f6       	brtc	.-74     	; 0x6718 <__ultoa_invert+0xe>
    6762:	cf 01       	movw	r24, r30
    6764:	08 95       	ret
    6766:	46 2f       	mov	r20, r22
    6768:	47 70       	andi	r20, 0x07	; 7
    676a:	40 5d       	subi	r20, 0xD0	; 208
    676c:	41 93       	st	Z+, r20
    676e:	b3 e0       	ldi	r27, 0x03	; 3
    6770:	0f d0       	rcall	.+30     	; 0x6790 <__ultoa_invert+0x86>
    6772:	c9 f7       	brne	.-14     	; 0x6766 <__ultoa_invert+0x5c>
    6774:	f6 cf       	rjmp	.-20     	; 0x6762 <__ultoa_invert+0x58>
    6776:	46 2f       	mov	r20, r22
    6778:	4f 70       	andi	r20, 0x0F	; 15
    677a:	40 5d       	subi	r20, 0xD0	; 208
    677c:	4a 33       	cpi	r20, 0x3A	; 58
    677e:	18 f0       	brcs	.+6      	; 0x6786 <__ultoa_invert+0x7c>
    6780:	49 5d       	subi	r20, 0xD9	; 217
    6782:	31 fd       	sbrc	r19, 1
    6784:	40 52       	subi	r20, 0x20	; 32
    6786:	41 93       	st	Z+, r20
    6788:	02 d0       	rcall	.+4      	; 0x678e <__ultoa_invert+0x84>
    678a:	a9 f7       	brne	.-22     	; 0x6776 <__ultoa_invert+0x6c>
    678c:	ea cf       	rjmp	.-44     	; 0x6762 <__ultoa_invert+0x58>
    678e:	b4 e0       	ldi	r27, 0x04	; 4
    6790:	a6 95       	lsr	r26
    6792:	97 95       	ror	r25
    6794:	87 95       	ror	r24
    6796:	77 95       	ror	r23
    6798:	67 95       	ror	r22
    679a:	ba 95       	dec	r27
    679c:	c9 f7       	brne	.-14     	; 0x6790 <__ultoa_invert+0x86>
    679e:	00 97       	sbiw	r24, 0x00	; 0
    67a0:	61 05       	cpc	r22, r1
    67a2:	71 05       	cpc	r23, r1
    67a4:	08 95       	ret
    67a6:	9b 01       	movw	r18, r22
    67a8:	ac 01       	movw	r20, r24
    67aa:	0a 2e       	mov	r0, r26
    67ac:	06 94       	lsr	r0
    67ae:	57 95       	ror	r21
    67b0:	47 95       	ror	r20
    67b2:	37 95       	ror	r19
    67b4:	27 95       	ror	r18
    67b6:	ba 95       	dec	r27
    67b8:	c9 f7       	brne	.-14     	; 0x67ac <__ultoa_invert+0xa2>
    67ba:	62 0f       	add	r22, r18
    67bc:	73 1f       	adc	r23, r19
    67be:	84 1f       	adc	r24, r20
    67c0:	95 1f       	adc	r25, r21
    67c2:	a0 1d       	adc	r26, r0
    67c4:	08 95       	ret

000067c6 <__fp_mpack>:
    67c6:	9f 3f       	cpi	r25, 0xFF	; 255
    67c8:	31 f0       	breq	.+12     	; 0x67d6 <__fp_mpack_finite+0xc>

000067ca <__fp_mpack_finite>:
    67ca:	91 50       	subi	r25, 0x01	; 1
    67cc:	20 f4       	brcc	.+8      	; 0x67d6 <__fp_mpack_finite+0xc>
    67ce:	87 95       	ror	r24
    67d0:	77 95       	ror	r23
    67d2:	67 95       	ror	r22
    67d4:	b7 95       	ror	r27
    67d6:	88 0f       	add	r24, r24
    67d8:	91 1d       	adc	r25, r1
    67da:	96 95       	lsr	r25
    67dc:	87 95       	ror	r24
    67de:	97 f9       	bld	r25, 7
    67e0:	08 95       	ret

000067e2 <__fp_nan>:
    67e2:	9f ef       	ldi	r25, 0xFF	; 255
    67e4:	80 ec       	ldi	r24, 0xC0	; 192
    67e6:	08 95       	ret

000067e8 <__fp_norm2>:
    67e8:	91 50       	subi	r25, 0x01	; 1
    67ea:	50 40       	sbci	r21, 0x00	; 0
    67ec:	66 0f       	add	r22, r22
    67ee:	77 1f       	adc	r23, r23
    67f0:	88 1f       	adc	r24, r24
    67f2:	d2 f7       	brpl	.-12     	; 0x67e8 <__fp_norm2>
    67f4:	08 95       	ret

000067f6 <__fp_split3>:
    67f6:	57 fd       	sbrc	r21, 7
    67f8:	90 58       	subi	r25, 0x80	; 128
    67fa:	44 0f       	add	r20, r20
    67fc:	55 1f       	adc	r21, r21
    67fe:	59 f0       	breq	.+22     	; 0x6816 <__fp_splitA+0x10>
    6800:	5f 3f       	cpi	r21, 0xFF	; 255
    6802:	71 f0       	breq	.+28     	; 0x6820 <__fp_splitA+0x1a>
    6804:	47 95       	ror	r20

00006806 <__fp_splitA>:
    6806:	88 0f       	add	r24, r24
    6808:	97 fb       	bst	r25, 7
    680a:	99 1f       	adc	r25, r25
    680c:	61 f0       	breq	.+24     	; 0x6826 <__fp_splitA+0x20>
    680e:	9f 3f       	cpi	r25, 0xFF	; 255
    6810:	79 f0       	breq	.+30     	; 0x6830 <__fp_splitA+0x2a>
    6812:	87 95       	ror	r24
    6814:	08 95       	ret
    6816:	12 16       	cp	r1, r18
    6818:	13 06       	cpc	r1, r19
    681a:	14 06       	cpc	r1, r20
    681c:	55 1f       	adc	r21, r21
    681e:	f2 cf       	rjmp	.-28     	; 0x6804 <__fp_split3+0xe>
    6820:	46 95       	lsr	r20
    6822:	f1 df       	rcall	.-30     	; 0x6806 <__fp_splitA>
    6824:	08 c0       	rjmp	.+16     	; 0x6836 <__fp_splitA+0x30>
    6826:	16 16       	cp	r1, r22
    6828:	17 06       	cpc	r1, r23
    682a:	18 06       	cpc	r1, r24
    682c:	99 1f       	adc	r25, r25
    682e:	f1 cf       	rjmp	.-30     	; 0x6812 <__fp_splitA+0xc>
    6830:	86 95       	lsr	r24
    6832:	71 05       	cpc	r23, r1
    6834:	61 05       	cpc	r22, r1
    6836:	08 94       	sec
    6838:	08 95       	ret

0000683a <_exit>:
    683a:	f8 94       	cli

0000683c <__stop_program>:
    683c:	ff cf       	rjmp	.-2      	; 0x683c <__stop_program>
